Archive member included because of file (symbol)

/home/vladimir/Documentos/SOFTWARE/arduino/BluePill/primeros_ejemplos/Blink/build/core/core.a(exc.S.o)
                              (__exc_nmi)
/home/vladimir/Documentos/SOFTWARE/arduino/BluePill/primeros_ejemplos/Blink/build/core/core.a(isrs.S.o)
                              (__stm32reservedexception7)
/home/vladimir/Documentos/SOFTWARE/arduino/BluePill/primeros_ejemplos/Blink/build/core/core.a(vector_table.S.o)
                              (__stm32_vector_table)
/home/vladimir/Documentos/SOFTWARE/arduino/BluePill/primeros_ejemplos/Blink/build/core/core.a(adc.c.o)
                              /home/vladimir/Documentos/SOFTWARE/arduino/BluePill/primeros_ejemplos/Blink/build/core/wirish/boards.cpp.o (adc_set_sample_rate)
/home/vladimir/Documentos/SOFTWARE/arduino/BluePill/primeros_ejemplos/Blink/build/core/core.a(adc_f1.c.o)
                              (__irq_adc)
/home/vladimir/Documentos/SOFTWARE/arduino/BluePill/primeros_ejemplos/Blink/build/core/core.a(dma_f1.c.o)
                              (__irq_dma1_channel1)
/home/vladimir/Documentos/SOFTWARE/arduino/BluePill/primeros_ejemplos/Blink/build/core/core.a(exti.c.o)
                              (__irq_exti0)
/home/vladimir/Documentos/SOFTWARE/arduino/BluePill/primeros_ejemplos/Blink/build/core/core.a(exti_f1.c.o)
                              /home/vladimir/Documentos/SOFTWARE/arduino/BluePill/primeros_ejemplos/Blink/build/core/core.a(exti.c.o) (exti_select)
/home/vladimir/Documentos/SOFTWARE/arduino/BluePill/primeros_ejemplos/Blink/build/core/core.a(flash.c.o)
                              /home/vladimir/Documentos/SOFTWARE/arduino/BluePill/primeros_ejemplos/Blink/build/core/wirish/boards.cpp.o (flash_set_latency)
/home/vladimir/Documentos/SOFTWARE/arduino/BluePill/primeros_ejemplos/Blink/build/core/core.a(gpio_f1.c.o)
                              /home/vladimir/Documentos/SOFTWARE/arduino/BluePill/primeros_ejemplos/Blink/build/core/wirish/boards_setup.cpp.o (gpio_init_all)
/home/vladimir/Documentos/SOFTWARE/arduino/BluePill/primeros_ejemplos/Blink/build/core/core.a(i2c_f1.c.o)
                              (__irq_i2c1_ev)
/home/vladimir/Documentos/SOFTWARE/arduino/BluePill/primeros_ejemplos/Blink/build/core/core.a(nvic.c.o)
                              /home/vladimir/Documentos/SOFTWARE/arduino/BluePill/primeros_ejemplos/Blink/build/core/core.a(i2c_f1.c.o) (nvic_irq_set_priority)
/home/vladimir/Documentos/SOFTWARE/arduino/BluePill/primeros_ejemplos/Blink/build/core/core.a(rcc.c.o)
                              /home/vladimir/Documentos/SOFTWARE/arduino/BluePill/primeros_ejemplos/Blink/build/core/wirish/boards.cpp.o (rcc_switch_sysclk)
/home/vladimir/Documentos/SOFTWARE/arduino/BluePill/primeros_ejemplos/Blink/build/core/core.a(rcc_f1.c.o)
                              /home/vladimir/Documentos/SOFTWARE/arduino/BluePill/primeros_ejemplos/Blink/build/core/wirish/boards.cpp.o (rcc_configure_pll)
/home/vladimir/Documentos/SOFTWARE/arduino/BluePill/primeros_ejemplos/Blink/build/core/core.a(systick.c.o)
                              /home/vladimir/Documentos/SOFTWARE/arduino/BluePill/primeros_ejemplos/Blink/build/core/wirish/boards.cpp.o (systick_init)
/home/vladimir/Documentos/SOFTWARE/arduino/BluePill/primeros_ejemplos/Blink/build/core/core.a(timer.c.o)
                              /home/vladimir/Documentos/SOFTWARE/arduino/BluePill/primeros_ejemplos/Blink/build/core/wirish/boards.cpp.o (timer_foreach)
/home/vladimir/Documentos/SOFTWARE/arduino/BluePill/primeros_ejemplos/Blink/build/core/core.a(usart_f1.c.o)
                              (__irq_usart1)
/home/vladimir/Documentos/SOFTWARE/arduino/BluePill/primeros_ejemplos/Blink/build/core/core.a(usart_private.c.o)
                              /home/vladimir/Documentos/SOFTWARE/arduino/BluePill/primeros_ejemplos/Blink/build/core/core.a(usart_f1.c.o) (_usart_clock_freq)
/home/vladimir/Documentos/SOFTWARE/arduino/BluePill/primeros_ejemplos/Blink/build/core/core.a(util.c.o)
                              /home/vladimir/Documentos/SOFTWARE/arduino/BluePill/primeros_ejemplos/Blink/build/core/core.a(exc.S.o) (__error)
/home/vladimir/Documentos/SOFTWARE/arduino/BluePill/primeros_ejemplos/Blink/build/core/core.a(usb.c.o)
                              (__irq_usb_lp_can_rx0)
/home/vladimir/Documentos/SOFTWARE/arduino/BluePill/primeros_ejemplos/Blink/build/core/core.a(usb_cdcacm.c.o)
                              /home/vladimir/Documentos/SOFTWARE/arduino/BluePill/primeros_ejemplos/Blink/build/core/core.a(usb.c.o) (User_Standard_Requests)
/home/vladimir/Documentos/SOFTWARE/arduino/BluePill/primeros_ejemplos/Blink/build/core/core.a(usb_reg_map.c.o)
                              /home/vladimir/Documentos/SOFTWARE/arduino/BluePill/primeros_ejemplos/Blink/build/core/core.a(usb_cdcacm.c.o) (usb_set_ep_rx_count)
/home/vladimir/Documentos/SOFTWARE/arduino/BluePill/primeros_ejemplos/Blink/build/core/core.a(usb_core.c.o)
                              /home/vladimir/Documentos/SOFTWARE/arduino/BluePill/primeros_ejemplos/Blink/build/core/core.a(usb_cdcacm.c.o) (Standard_GetDescriptorData)
/home/vladimir/Documentos/SOFTWARE/arduino/BluePill/primeros_ejemplos/Blink/build/core/core.a(usb_init.c.o)
                              /home/vladimir/Documentos/SOFTWARE/arduino/BluePill/primeros_ejemplos/Blink/build/core/core.a(usb.c.o) (pInformation)
/home/vladimir/Documentos/SOFTWARE/arduino/BluePill/primeros_ejemplos/Blink/build/core/core.a(usb_mem.c.o)
                              /home/vladimir/Documentos/SOFTWARE/arduino/BluePill/primeros_ejemplos/Blink/build/core/core.a(usb_core.c.o) (UserToPMABufferCopy)
/home/vladimir/Documentos/SOFTWARE/arduino/BluePill/primeros_ejemplos/Blink/build/core/core.a(usb_regs.c.o)
                              /home/vladimir/Documentos/SOFTWARE/arduino/BluePill/primeros_ejemplos/Blink/build/core/core.a(usb_core.c.o) (SetEPTxStatus)
/home/vladimir/Documentos/SOFTWARE/arduino/BluePill/primeros_ejemplos/Blink/build/core/core.a(HardwareSerial.cpp.o)
                              /home/vladimir/Documentos/SOFTWARE/arduino/BluePill/primeros_ejemplos/Blink/build/core/board.cpp.o (HardwareSerial::HardwareSerial(usart_dev*, unsigned char, unsigned char))
/home/vladimir/Documentos/SOFTWARE/arduino/BluePill/primeros_ejemplos/Blink/build/core/core.a(Print.cpp.o)
                              /home/vladimir/Documentos/SOFTWARE/arduino/BluePill/primeros_ejemplos/Blink/build/core/core.a(HardwareSerial.cpp.o) (Print::write(void const*, unsigned long))
/home/vladimir/Documentos/SOFTWARE/arduino/BluePill/primeros_ejemplos/Blink/build/core/core.a(cxxabi-compat.cpp.o)
                              /home/vladimir/Documentos/SOFTWARE/arduino/BluePill/primeros_ejemplos/Blink/build/core/core.a(HardwareSerial.cpp.o) (__cxa_pure_virtual)
/home/vladimir/Documentos/SOFTWARE/arduino/BluePill/primeros_ejemplos/Blink/build/core/core.a(main.cpp.o)
                              (main)
/home/vladimir/Documentos/SOFTWARE/arduino/BluePill/primeros_ejemplos/Blink/build/core/core.a(usb_serial.cpp.o)
                              /home/vladimir/Documentos/SOFTWARE/arduino/BluePill/primeros_ejemplos/Blink/build/core/wirish/boards_setup.cpp.o (USBSerial::begin())
/home/vladimir/Documentos/SOFTWARE/arduino/BluePill/primeros_ejemplos/Blink/build/core/core.a(wirish_digital.cpp.o)
                              /home/vladimir/Documentos/SOFTWARE/arduino/BluePill/primeros_ejemplos/Blink/build/sketch/Blink.ino.cpp.o (digitalWrite(unsigned char, unsigned char))
/home/vladimir/Documentos/SOFTWARE/arduino/BluePill/primeros_ejemplos/Blink/build/core/core.a(wirish_time.cpp.o)
                              /home/vladimir/Documentos/SOFTWARE/arduino/BluePill/primeros_ejemplos/Blink/build/sketch/Blink.ino.cpp.o (delay(unsigned long))
/home/vladimir/Documentos/SOFTWARE/arduino/BluePill/primeros_ejemplos/Blink/build/core/core.a(wirish_digital_f1.cpp.o)
                              /home/vladimir/Documentos/SOFTWARE/arduino/BluePill/primeros_ejemplos/Blink/build/sketch/Blink.ino.cpp.o (pinMode(unsigned char, WiringPinMode))
/home/vladimir/Documentos/SOFTWARE/arduino/BluePill/primeros_ejemplos/Blink/build/core/core.a(hooks.c.o)
                              /home/vladimir/Documentos/SOFTWARE/arduino/BluePill/primeros_ejemplos/Blink/build/core/core.a(wirish_time.cpp.o) (yield)
/home/vladimir/Documentos/SOFTWARE/arduino/BluePill/primeros_ejemplos/Blink/build/core/core.a(bkp_f1.c.o)
                              /home/vladimir/Documentos/SOFTWARE/arduino/BluePill/primeros_ejemplos/Blink/build/core/core.a(usb_serial.cpp.o) (bkp_init)
/home/vladimir/Documentos/SOFTWARE/arduino/BluePill/primeros_ejemplos/Blink/build/core/core.a(dma.c.o)
                              /home/vladimir/Documentos/SOFTWARE/arduino/BluePill/primeros_ejemplos/Blink/build/core/core.a(dma_f1.c.o) (_dma_addr_type)
/home/vladimir/Documentos/SOFTWARE/arduino/BluePill/primeros_ejemplos/Blink/build/core/core.a(gpio.c.o)
                              /home/vladimir/Documentos/SOFTWARE/arduino/BluePill/primeros_ejemplos/Blink/build/core/core.a(gpio_f1.c.o) (gpio_init)
/home/vladimir/Documentos/SOFTWARE/arduino/BluePill/primeros_ejemplos/Blink/build/core/core.a(i2c.c.o)
                              /home/vladimir/Documentos/SOFTWARE/arduino/BluePill/primeros_ejemplos/Blink/build/core/core.a(i2c_f1.c.o) (_i2c_irq_handler)
/home/vladimir/Documentos/SOFTWARE/arduino/BluePill/primeros_ejemplos/Blink/build/core/core.a(usart.c.o)
                              /home/vladimir/Documentos/SOFTWARE/arduino/BluePill/primeros_ejemplos/Blink/build/core/core.a(HardwareSerial.cpp.o) (usart_init)
/home/vladimir/.arduino15/packages/arduino/tools/arm-none-eabi-gcc/4.8.3-2014q1/bin/../lib/gcc/arm-none-eabi/4.8.3/armv7-m/libgcc.a(_arm_addsubdf3.o)
                              /home/vladimir/Documentos/SOFTWARE/arduino/BluePill/primeros_ejemplos/Blink/build/core/core.a(Print.cpp.o) (__aeabi_dsub)
/home/vladimir/.arduino15/packages/arduino/tools/arm-none-eabi-gcc/4.8.3-2014q1/bin/../lib/gcc/arm-none-eabi/4.8.3/armv7-m/libgcc.a(_arm_muldivdf3.o)
                              /home/vladimir/Documentos/SOFTWARE/arduino/BluePill/primeros_ejemplos/Blink/build/core/core.a(Print.cpp.o) (__aeabi_dmul)
/home/vladimir/.arduino15/packages/arduino/tools/arm-none-eabi-gcc/4.8.3-2014q1/bin/../lib/gcc/arm-none-eabi/4.8.3/armv7-m/libgcc.a(_arm_cmpdf2.o)
                              /home/vladimir/Documentos/SOFTWARE/arduino/BluePill/primeros_ejemplos/Blink/build/core/core.a(Print.cpp.o) (__aeabi_dcmplt)
/home/vladimir/.arduino15/packages/arduino/tools/arm-none-eabi-gcc/4.8.3-2014q1/bin/../lib/gcc/arm-none-eabi/4.8.3/armv7-m/libgcc.a(_arm_fixdfsi.o)
                              /home/vladimir/Documentos/SOFTWARE/arduino/BluePill/primeros_ejemplos/Blink/build/core/core.a(Print.cpp.o) (__aeabi_d2iz)
/home/vladimir/.arduino15/packages/arduino/tools/arm-none-eabi-gcc/4.8.3-2014q1/bin/../lib/gcc/arm-none-eabi/4.8.3/armv7-m/libgcc.a(_aeabi_uldivmod.o)
                              /home/vladimir/Documentos/SOFTWARE/arduino/BluePill/primeros_ejemplos/Blink/build/core/core.a(Print.cpp.o) (__aeabi_uldivmod)
/home/vladimir/.arduino15/packages/arduino/tools/arm-none-eabi-gcc/4.8.3-2014q1/bin/../lib/gcc/arm-none-eabi/4.8.3/armv7-m/libgcc.a(_fixdfdi.o)
                              /home/vladimir/Documentos/SOFTWARE/arduino/BluePill/primeros_ejemplos/Blink/build/core/core.a(Print.cpp.o) (__aeabi_d2lz)
/home/vladimir/.arduino15/packages/arduino/tools/arm-none-eabi-gcc/4.8.3-2014q1/bin/../lib/gcc/arm-none-eabi/4.8.3/armv7-m/libgcc.a(_fixunsdfdi.o)
                              /home/vladimir/.arduino15/packages/arduino/tools/arm-none-eabi-gcc/4.8.3-2014q1/bin/../lib/gcc/arm-none-eabi/4.8.3/armv7-m/libgcc.a(_fixdfdi.o) (__aeabi_d2ulz)
/home/vladimir/.arduino15/packages/arduino/tools/arm-none-eabi-gcc/4.8.3-2014q1/bin/../lib/gcc/arm-none-eabi/4.8.3/armv7-m/libgcc.a(bpabi.o)
                              /home/vladimir/.arduino15/packages/arduino/tools/arm-none-eabi-gcc/4.8.3-2014q1/bin/../lib/gcc/arm-none-eabi/4.8.3/armv7-m/libgcc.a(_aeabi_uldivmod.o) (__gnu_uldivmod_helper)
/home/vladimir/.arduino15/packages/arduino/tools/arm-none-eabi-gcc/4.8.3-2014q1/bin/../lib/gcc/arm-none-eabi/4.8.3/armv7-m/libgcc.a(_dvmd_tls.o)
                              /home/vladimir/.arduino15/packages/arduino/tools/arm-none-eabi-gcc/4.8.3-2014q1/bin/../lib/gcc/arm-none-eabi/4.8.3/armv7-m/libgcc.a(_aeabi_uldivmod.o) (__aeabi_ldiv0)
/home/vladimir/.arduino15/packages/arduino/tools/arm-none-eabi-gcc/4.8.3-2014q1/bin/../lib/gcc/arm-none-eabi/4.8.3/armv7-m/libgcc.a(_arm_fixunsdfsi.o)
                              /home/vladimir/.arduino15/packages/arduino/tools/arm-none-eabi-gcc/4.8.3-2014q1/bin/../lib/gcc/arm-none-eabi/4.8.3/armv7-m/libgcc.a(_fixunsdfdi.o) (__aeabi_d2uiz)
/home/vladimir/.arduino15/packages/arduino/tools/arm-none-eabi-gcc/4.8.3-2014q1/bin/../lib/gcc/arm-none-eabi/4.8.3/armv7-m/libgcc.a(_divdi3.o)
                              /home/vladimir/.arduino15/packages/arduino/tools/arm-none-eabi-gcc/4.8.3-2014q1/bin/../lib/gcc/arm-none-eabi/4.8.3/armv7-m/libgcc.a(bpabi.o) (__divdi3)
/home/vladimir/.arduino15/packages/arduino/tools/arm-none-eabi-gcc/4.8.3-2014q1/bin/../lib/gcc/arm-none-eabi/4.8.3/armv7-m/libgcc.a(_udivdi3.o)
                              /home/vladimir/.arduino15/packages/arduino/tools/arm-none-eabi-gcc/4.8.3-2014q1/bin/../lib/gcc/arm-none-eabi/4.8.3/armv7-m/libgcc.a(bpabi.o) (__udivdi3)
/home/vladimir/.arduino15/packages/arduino/tools/arm-none-eabi-gcc/4.8.3-2014q1/bin/../lib/gcc/arm-none-eabi/4.8.3/../../../../arm-none-eabi/lib/armv7-m/libc.a(lib_a-errno.o)
                              /home/vladimir/Documentos/SOFTWARE/arduino/BluePill/primeros_ejemplos/Blink/build/core/wirish/syscalls.c.o (__errno)
/home/vladimir/.arduino15/packages/arduino/tools/arm-none-eabi-gcc/4.8.3-2014q1/bin/../lib/gcc/arm-none-eabi/4.8.3/../../../../arm-none-eabi/lib/armv7-m/libc.a(lib_a-exit.o)
                              /home/vladimir/.arduino15/packages/arduino/tools/arm-none-eabi-gcc/4.8.3-2014q1/bin/../lib/gcc/arm-none-eabi/4.8.3/../../../../arm-none-eabi/lib/armv7-m/crt0.o (exit)
/home/vladimir/.arduino15/packages/arduino/tools/arm-none-eabi-gcc/4.8.3-2014q1/bin/../lib/gcc/arm-none-eabi/4.8.3/../../../../arm-none-eabi/lib/armv7-m/libc.a(lib_a-impure.o)
                              /home/vladimir/.arduino15/packages/arduino/tools/arm-none-eabi-gcc/4.8.3-2014q1/bin/../lib/gcc/arm-none-eabi/4.8.3/../../../../arm-none-eabi/lib/armv7-m/libc.a(lib_a-exit.o) (_global_impure_ptr)
/home/vladimir/.arduino15/packages/arduino/tools/arm-none-eabi-gcc/4.8.3-2014q1/bin/../lib/gcc/arm-none-eabi/4.8.3/../../../../arm-none-eabi/lib/armv7-m/libc.a(lib_a-init.o)
                              /home/vladimir/.arduino15/packages/arduino/tools/arm-none-eabi-gcc/4.8.3-2014q1/bin/../lib/gcc/arm-none-eabi/4.8.3/../../../../arm-none-eabi/lib/armv7-m/crt0.o (__libc_init_array)
/home/vladimir/.arduino15/packages/arduino/tools/arm-none-eabi-gcc/4.8.3-2014q1/bin/../lib/gcc/arm-none-eabi/4.8.3/../../../../arm-none-eabi/lib/armv7-m/libc.a(lib_a-memset.o)
                              /home/vladimir/.arduino15/packages/arduino/tools/arm-none-eabi-gcc/4.8.3-2014q1/bin/../lib/gcc/arm-none-eabi/4.8.3/../../../../arm-none-eabi/lib/armv7-m/crt0.o (memset)
/home/vladimir/.arduino15/packages/arduino/tools/arm-none-eabi-gcc/4.8.3-2014q1/bin/../lib/gcc/arm-none-eabi/4.8.3/../../../../arm-none-eabi/lib/armv7-m/libc.a(lib_a-strlen.o)
                              /home/vladimir/Documentos/SOFTWARE/arduino/BluePill/primeros_ejemplos/Blink/build/core/core.a(Print.cpp.o) (strlen)
/home/vladimir/.arduino15/packages/arduino/tools/arm-none-eabi-gcc/4.8.3-2014q1/bin/../lib/gcc/arm-none-eabi/4.8.3/../../../../arm-none-eabi/lib/armv7-m/libc.a(lib_a-__call_atexit.o)
                              /home/vladimir/.arduino15/packages/arduino/tools/arm-none-eabi-gcc/4.8.3-2014q1/bin/../lib/gcc/arm-none-eabi/4.8.3/../../../../arm-none-eabi/lib/armv7-m/libc.a(lib_a-exit.o) (__call_exitprocs)
/home/vladimir/.arduino15/packages/arduino/tools/arm-none-eabi-gcc/4.8.3-2014q1/bin/../lib/gcc/arm-none-eabi/4.8.3/../../../../arm-none-eabi/lib/armv7-m/libc.a(lib_a-atexit.o)
                              /home/vladimir/.arduino15/packages/arduino/tools/arm-none-eabi-gcc/4.8.3-2014q1/bin/../lib/gcc/arm-none-eabi/4.8.3/../../../../arm-none-eabi/lib/armv7-m/libc.a(lib_a-__call_atexit.o) (atexit)
/home/vladimir/.arduino15/packages/arduino/tools/arm-none-eabi-gcc/4.8.3-2014q1/bin/../lib/gcc/arm-none-eabi/4.8.3/../../../../arm-none-eabi/lib/armv7-m/libc.a(lib_a-fini.o)
                              /home/vladimir/.arduino15/packages/arduino/tools/arm-none-eabi-gcc/4.8.3-2014q1/bin/../lib/gcc/arm-none-eabi/4.8.3/../../../../arm-none-eabi/lib/armv7-m/libc.a(lib_a-__call_atexit.o) (__libc_fini_array)
/home/vladimir/.arduino15/packages/arduino/tools/arm-none-eabi-gcc/4.8.3-2014q1/bin/../lib/gcc/arm-none-eabi/4.8.3/../../../../arm-none-eabi/lib/armv7-m/libc.a(lib_a-__atexit.o)
                              /home/vladimir/.arduino15/packages/arduino/tools/arm-none-eabi-gcc/4.8.3-2014q1/bin/../lib/gcc/arm-none-eabi/4.8.3/../../../../arm-none-eabi/lib/armv7-m/libc.a(lib_a-atexit.o) (__register_exitproc)

Allocating common symbols
Common symbol       size              file

SaveRState          0x2               /home/vladimir/Documentos/SOFTWARE/arduino/BluePill/primeros_ejemplos/Blink/build/core/core.a(usb.c.o)
SaveState           0x2               /home/vladimir/Documentos/SOFTWARE/arduino/BluePill/primeros_ejemplos/Blink/build/core/core.a(usb_init.c.o)
pProperty           0x4               /home/vladimir/Documentos/SOFTWARE/arduino/BluePill/primeros_ejemplos/Blink/build/core/core.a(usb_init.c.o)
EPindex             0x1               /home/vladimir/Documentos/SOFTWARE/arduino/BluePill/primeros_ejemplos/Blink/build/core/core.a(usb_init.c.o)
SaveTState          0x2               /home/vladimir/Documentos/SOFTWARE/arduino/BluePill/primeros_ejemplos/Blink/build/core/core.a(usb.c.o)
systick_uptime_millis
                    0x4               /home/vladimir/Documentos/SOFTWARE/arduino/BluePill/primeros_ejemplos/Blink/build/core/core.a(systick.c.o)
Device_Info         0x1c              /home/vladimir/Documentos/SOFTWARE/arduino/BluePill/primeros_ejemplos/Blink/build/core/core.a(usb_init.c.o)
pUser_Standard_Requests
                    0x4               /home/vladimir/Documentos/SOFTWARE/arduino/BluePill/primeros_ejemplos/Blink/build/core/core.a(usb_init.c.o)
StatusInfo          0x2               /home/vladimir/Documentos/SOFTWARE/arduino/BluePill/primeros_ejemplos/Blink/build/core/core.a(usb_core.c.o)
pInformation        0x4               /home/vladimir/Documentos/SOFTWARE/arduino/BluePill/primeros_ejemplos/Blink/build/core/core.a(usb_init.c.o)
ResumeS             0x2               /home/vladimir/Documentos/SOFTWARE/arduino/BluePill/primeros_ejemplos/Blink/build/core/core.a(usb.c.o)
wInterrupt_Mask     0x2               /home/vladimir/Documentos/SOFTWARE/arduino/BluePill/primeros_ejemplos/Blink/build/core/core.a(usb_init.c.o)

Discarded input sections

 .text          0x0000000000000000        0x0 /home/vladimir/.arduino15/packages/arduino/tools/arm-none-eabi-gcc/4.8.3-2014q1/bin/../lib/gcc/arm-none-eabi/4.8.3/armv7-m/crti.o
 .data          0x0000000000000000        0x0 /home/vladimir/.arduino15/packages/arduino/tools/arm-none-eabi-gcc/4.8.3-2014q1/bin/../lib/gcc/arm-none-eabi/4.8.3/armv7-m/crti.o
 .bss           0x0000000000000000        0x0 /home/vladimir/.arduino15/packages/arduino/tools/arm-none-eabi-gcc/4.8.3-2014q1/bin/../lib/gcc/arm-none-eabi/4.8.3/armv7-m/crti.o
 .data          0x0000000000000000        0x4 /home/vladimir/.arduino15/packages/arduino/tools/arm-none-eabi-gcc/4.8.3-2014q1/bin/../lib/gcc/arm-none-eabi/4.8.3/armv7-m/crtbegin.o
 .text          0x0000000000000000       0x74 /home/vladimir/.arduino15/packages/arduino/tools/arm-none-eabi-gcc/4.8.3-2014q1/bin/../lib/gcc/arm-none-eabi/4.8.3/../../../../arm-none-eabi/lib/armv7-m/crt0.o
 .data          0x0000000000000000        0x0 /home/vladimir/.arduino15/packages/arduino/tools/arm-none-eabi-gcc/4.8.3-2014q1/bin/../lib/gcc/arm-none-eabi/4.8.3/../../../../arm-none-eabi/lib/armv7-m/crt0.o
 .bss           0x0000000000000000        0x0 /home/vladimir/.arduino15/packages/arduino/tools/arm-none-eabi-gcc/4.8.3-2014q1/bin/../lib/gcc/arm-none-eabi/4.8.3/../../../../arm-none-eabi/lib/armv7-m/crt0.o
 .ARM.extab     0x0000000000000000        0x0 /home/vladimir/.arduino15/packages/arduino/tools/arm-none-eabi-gcc/4.8.3-2014q1/bin/../lib/gcc/arm-none-eabi/4.8.3/../../../../arm-none-eabi/lib/armv7-m/crt0.o
 .ARM.exidx     0x0000000000000000        0x8 /home/vladimir/.arduino15/packages/arduino/tools/arm-none-eabi-gcc/4.8.3-2014q1/bin/../lib/gcc/arm-none-eabi/4.8.3/../../../../arm-none-eabi/lib/armv7-m/crt0.o
 .text          0x0000000000000000        0x0 /home/vladimir/Documentos/SOFTWARE/arduino/BluePill/primeros_ejemplos/Blink/build/sketch/Blink.ino.cpp.o
 .data          0x0000000000000000        0x0 /home/vladimir/Documentos/SOFTWARE/arduino/BluePill/primeros_ejemplos/Blink/build/sketch/Blink.ino.cpp.o
 .bss           0x0000000000000000        0x0 /home/vladimir/Documentos/SOFTWARE/arduino/BluePill/primeros_ejemplos/Blink/build/sketch/Blink.ino.cpp.o
 .data          0x0000000000000000        0x0 /home/vladimir/Documentos/SOFTWARE/arduino/BluePill/primeros_ejemplos/Blink/build/core/wirish/start.S.o
 .bss           0x0000000000000000        0x0 /home/vladimir/Documentos/SOFTWARE/arduino/BluePill/primeros_ejemplos/Blink/build/core/wirish/start.S.o
 .ARM.extab     0x0000000000000000        0x0 /home/vladimir/Documentos/SOFTWARE/arduino/BluePill/primeros_ejemplos/Blink/build/core/wirish/start.S.o
 .text          0x0000000000000000        0x0 /home/vladimir/Documentos/SOFTWARE/arduino/BluePill/primeros_ejemplos/Blink/build/core/wirish/start_c.c.o
 .data          0x0000000000000000        0x0 /home/vladimir/Documentos/SOFTWARE/arduino/BluePill/primeros_ejemplos/Blink/build/core/wirish/start_c.c.o
 .bss           0x0000000000000000        0x0 /home/vladimir/Documentos/SOFTWARE/arduino/BluePill/primeros_ejemplos/Blink/build/core/wirish/start_c.c.o
 .text          0x0000000000000000        0x0 /home/vladimir/Documentos/SOFTWARE/arduino/BluePill/primeros_ejemplos/Blink/build/core/wirish/syscalls.c.o
 .data          0x0000000000000000        0x0 /home/vladimir/Documentos/SOFTWARE/arduino/BluePill/primeros_ejemplos/Blink/build/core/wirish/syscalls.c.o
 .bss           0x0000000000000000        0x0 /home/vladimir/Documentos/SOFTWARE/arduino/BluePill/primeros_ejemplos/Blink/build/core/wirish/syscalls.c.o
 .text._sbrk    0x0000000000000000       0x44 /home/vladimir/Documentos/SOFTWARE/arduino/BluePill/primeros_ejemplos/Blink/build/core/wirish/syscalls.c.o
 .text._open    0x0000000000000000        0x8 /home/vladimir/Documentos/SOFTWARE/arduino/BluePill/primeros_ejemplos/Blink/build/core/wirish/syscalls.c.o
 .text._close   0x0000000000000000        0x4 /home/vladimir/Documentos/SOFTWARE/arduino/BluePill/primeros_ejemplos/Blink/build/core/wirish/syscalls.c.o
 .text._fstat   0x0000000000000000        0xa /home/vladimir/Documentos/SOFTWARE/arduino/BluePill/primeros_ejemplos/Blink/build/core/wirish/syscalls.c.o
 .text._isatty  0x0000000000000000        0x4 /home/vladimir/Documentos/SOFTWARE/arduino/BluePill/primeros_ejemplos/Blink/build/core/wirish/syscalls.c.o
 .text.isatty   0x0000000000000000        0x4 /home/vladimir/Documentos/SOFTWARE/arduino/BluePill/primeros_ejemplos/Blink/build/core/wirish/syscalls.c.o
 .text._lseek   0x0000000000000000        0x6 /home/vladimir/Documentos/SOFTWARE/arduino/BluePill/primeros_ejemplos/Blink/build/core/wirish/syscalls.c.o
 .text.getch    0x0000000000000000        0x4 /home/vladimir/Documentos/SOFTWARE/arduino/BluePill/primeros_ejemplos/Blink/build/core/wirish/syscalls.c.o
 .text._read    0x0000000000000000        0xe /home/vladimir/Documentos/SOFTWARE/arduino/BluePill/primeros_ejemplos/Blink/build/core/wirish/syscalls.c.o
 .text.putch    0x0000000000000000        0x2 /home/vladimir/Documentos/SOFTWARE/arduino/BluePill/primeros_ejemplos/Blink/build/core/wirish/syscalls.c.o
 .text.cgets    0x0000000000000000       0x78 /home/vladimir/Documentos/SOFTWARE/arduino/BluePill/primeros_ejemplos/Blink/build/core/wirish/syscalls.c.o
 .text._write   0x0000000000000000       0x1a /home/vladimir/Documentos/SOFTWARE/arduino/BluePill/primeros_ejemplos/Blink/build/core/wirish/syscalls.c.o
 .text.fgets    0x0000000000000000        0xc /home/vladimir/Documentos/SOFTWARE/arduino/BluePill/primeros_ejemplos/Blink/build/core/wirish/syscalls.c.o
 .bss.pbreak.4444
                0x0000000000000000        0x4 /home/vladimir/Documentos/SOFTWARE/arduino/BluePill/primeros_ejemplos/Blink/build/core/wirish/syscalls.c.o
 .text          0x0000000000000000        0x0 /home/vladimir/Documentos/SOFTWARE/arduino/BluePill/primeros_ejemplos/Blink/build/core/board.cpp.o
 .data          0x0000000000000000        0x0 /home/vladimir/Documentos/SOFTWARE/arduino/BluePill/primeros_ejemplos/Blink/build/core/board.cpp.o
 .bss           0x0000000000000000        0x0 /home/vladimir/Documentos/SOFTWARE/arduino/BluePill/primeros_ejemplos/Blink/build/core/board.cpp.o
 .USER_FLASH    0x0000000000000000       0x19 /home/vladimir/Documentos/SOFTWARE/arduino/BluePill/primeros_ejemplos/Blink/build/core/board.cpp.o
 .text          0x0000000000000000        0x0 /home/vladimir/Documentos/SOFTWARE/arduino/BluePill/primeros_ejemplos/Blink/build/core/wirish/boards.cpp.o
 .data          0x0000000000000000        0x0 /home/vladimir/Documentos/SOFTWARE/arduino/BluePill/primeros_ejemplos/Blink/build/core/wirish/boards.cpp.o
 .bss           0x0000000000000000        0x0 /home/vladimir/Documentos/SOFTWARE/arduino/BluePill/primeros_ejemplos/Blink/build/core/wirish/boards.cpp.o
 .text._Z9boardInitv
                0x0000000000000000        0x2 /home/vladimir/Documentos/SOFTWARE/arduino/BluePill/primeros_ejemplos/Blink/build/core/wirish/boards.cpp.o
 .text._Z12boardUsesPinh
                0x0000000000000000       0x1c /home/vladimir/Documentos/SOFTWARE/arduino/BluePill/primeros_ejemplos/Blink/build/core/wirish/boards.cpp.o
 .text          0x0000000000000000        0x0 /home/vladimir/Documentos/SOFTWARE/arduino/BluePill/primeros_ejemplos/Blink/build/core/wirish/boards_setup.cpp.o
 .data          0x0000000000000000        0x0 /home/vladimir/Documentos/SOFTWARE/arduino/BluePill/primeros_ejemplos/Blink/build/core/wirish/boards_setup.cpp.o
 .bss           0x0000000000000000        0x0 /home/vladimir/Documentos/SOFTWARE/arduino/BluePill/primeros_ejemplos/Blink/build/core/wirish/boards_setup.cpp.o
 .data          0x0000000000000000        0x0 /home/vladimir/Documentos/SOFTWARE/arduino/BluePill/primeros_ejemplos/Blink/build/core/core.a(exc.S.o)
 .bss           0x0000000000000000        0x0 /home/vladimir/Documentos/SOFTWARE/arduino/BluePill/primeros_ejemplos/Blink/build/core/core.a(exc.S.o)
 .data          0x0000000000000000        0x0 /home/vladimir/Documentos/SOFTWARE/arduino/BluePill/primeros_ejemplos/Blink/build/core/core.a(isrs.S.o)
 .bss           0x0000000000000000        0x0 /home/vladimir/Documentos/SOFTWARE/arduino/BluePill/primeros_ejemplos/Blink/build/core/core.a(isrs.S.o)
 .text          0x0000000000000000        0x0 /home/vladimir/Documentos/SOFTWARE/arduino/BluePill/primeros_ejemplos/Blink/build/core/core.a(vector_table.S.o)
 .data          0x0000000000000000        0x0 /home/vladimir/Documentos/SOFTWARE/arduino/BluePill/primeros_ejemplos/Blink/build/core/core.a(vector_table.S.o)
 .bss           0x0000000000000000        0x0 /home/vladimir/Documentos/SOFTWARE/arduino/BluePill/primeros_ejemplos/Blink/build/core/core.a(vector_table.S.o)
 .text          0x0000000000000000        0x0 /home/vladimir/Documentos/SOFTWARE/arduino/BluePill/primeros_ejemplos/Blink/build/core/core.a(adc.c.o)
 .data          0x0000000000000000        0x0 /home/vladimir/Documentos/SOFTWARE/arduino/BluePill/primeros_ejemplos/Blink/build/core/core.a(adc.c.o)
 .bss           0x0000000000000000        0x0 /home/vladimir/Documentos/SOFTWARE/arduino/BluePill/primeros_ejemplos/Blink/build/core/core.a(adc.c.o)
 .text.adc_read
                0x0000000000000000       0x20 /home/vladimir/Documentos/SOFTWARE/arduino/BluePill/primeros_ejemplos/Blink/build/core/core.a(adc.c.o)
 .text          0x0000000000000000        0x0 /home/vladimir/Documentos/SOFTWARE/arduino/BluePill/primeros_ejemplos/Blink/build/core/core.a(adc_f1.c.o)
 .data          0x0000000000000000        0x0 /home/vladimir/Documentos/SOFTWARE/arduino/BluePill/primeros_ejemplos/Blink/build/core/core.a(adc_f1.c.o)
 .bss           0x0000000000000000        0x0 /home/vladimir/Documentos/SOFTWARE/arduino/BluePill/primeros_ejemplos/Blink/build/core/core.a(adc_f1.c.o)
 .text.adc_enable_irq
                0x0000000000000000       0x30 /home/vladimir/Documentos/SOFTWARE/arduino/BluePill/primeros_ejemplos/Blink/build/core/core.a(adc_f1.c.o)
 .text.adc_attach_interrupt
                0x0000000000000000        0xa /home/vladimir/Documentos/SOFTWARE/arduino/BluePill/primeros_ejemplos/Blink/build/core/core.a(adc_f1.c.o)
 .text.adc_config_gpio
                0x0000000000000000        0xa /home/vladimir/Documentos/SOFTWARE/arduino/BluePill/primeros_ejemplos/Blink/build/core/core.a(adc_f1.c.o)
 .text          0x0000000000000000        0x0 /home/vladimir/Documentos/SOFTWARE/arduino/BluePill/primeros_ejemplos/Blink/build/core/core.a(dma_f1.c.o)
 .data          0x0000000000000000        0x0 /home/vladimir/Documentos/SOFTWARE/arduino/BluePill/primeros_ejemplos/Blink/build/core/core.a(dma_f1.c.o)
 .bss           0x0000000000000000        0x0 /home/vladimir/Documentos/SOFTWARE/arduino/BluePill/primeros_ejemplos/Blink/build/core/core.a(dma_f1.c.o)
 .text.dma_set_priority
                0x0000000000000000       0x18 /home/vladimir/Documentos/SOFTWARE/arduino/BluePill/primeros_ejemplos/Blink/build/core/core.a(dma_f1.c.o)
 .text.dma_set_num_transfers
                0x0000000000000000       0x10 /home/vladimir/Documentos/SOFTWARE/arduino/BluePill/primeros_ejemplos/Blink/build/core/core.a(dma_f1.c.o)
 .text.dma_attach_interrupt
                0x0000000000000000       0x28 /home/vladimir/Documentos/SOFTWARE/arduino/BluePill/primeros_ejemplos/Blink/build/core/core.a(dma_f1.c.o)
 .text.dma_detach_interrupt
                0x0000000000000000       0x1c /home/vladimir/Documentos/SOFTWARE/arduino/BluePill/primeros_ejemplos/Blink/build/core/core.a(dma_f1.c.o)
 .text.dma_enable
                0x0000000000000000       0x18 /home/vladimir/Documentos/SOFTWARE/arduino/BluePill/primeros_ejemplos/Blink/build/core/core.a(dma_f1.c.o)
 .text.dma_disable
                0x0000000000000000       0x18 /home/vladimir/Documentos/SOFTWARE/arduino/BluePill/primeros_ejemplos/Blink/build/core/core.a(dma_f1.c.o)
 .text.dma_tube_cfg
                0x0000000000000000      0x15c /home/vladimir/Documentos/SOFTWARE/arduino/BluePill/primeros_ejemplos/Blink/build/core/core.a(dma_f1.c.o)
 .text.dma_get_irq_cause
                0x0000000000000000       0x3c /home/vladimir/Documentos/SOFTWARE/arduino/BluePill/primeros_ejemplos/Blink/build/core/core.a(dma_f1.c.o)
 .text.dma_set_mem_addr
                0x0000000000000000       0x10 /home/vladimir/Documentos/SOFTWARE/arduino/BluePill/primeros_ejemplos/Blink/build/core/core.a(dma_f1.c.o)
 .text.dma_set_per_addr
                0x0000000000000000       0x10 /home/vladimir/Documentos/SOFTWARE/arduino/BluePill/primeros_ejemplos/Blink/build/core/core.a(dma_f1.c.o)
 .text.dma_setup_transfer
                0x0000000000000000       0x36 /home/vladimir/Documentos/SOFTWARE/arduino/BluePill/primeros_ejemplos/Blink/build/core/core.a(dma_f1.c.o)
 .text          0x0000000000000000        0x0 /home/vladimir/Documentos/SOFTWARE/arduino/BluePill/primeros_ejemplos/Blink/build/core/core.a(exti.c.o)
 .data          0x0000000000000000        0x0 /home/vladimir/Documentos/SOFTWARE/arduino/BluePill/primeros_ejemplos/Blink/build/core/core.a(exti.c.o)
 .bss           0x0000000000000000        0x0 /home/vladimir/Documentos/SOFTWARE/arduino/BluePill/primeros_ejemplos/Blink/build/core/core.a(exti.c.o)
 .text.exti_attach_callback
                0x0000000000000000       0xac /home/vladimir/Documentos/SOFTWARE/arduino/BluePill/primeros_ejemplos/Blink/build/core/core.a(exti.c.o)
 .text.exti_attach_interrupt
                0x0000000000000000       0x10 /home/vladimir/Documentos/SOFTWARE/arduino/BluePill/primeros_ejemplos/Blink/build/core/core.a(exti.c.o)
 .text.exti_detach_interrupt
                0x0000000000000000       0x28 /home/vladimir/Documentos/SOFTWARE/arduino/BluePill/primeros_ejemplos/Blink/build/core/core.a(exti.c.o)
 .text.exti_do_select
                0x0000000000000000       0x1a /home/vladimir/Documentos/SOFTWARE/arduino/BluePill/primeros_ejemplos/Blink/build/core/core.a(exti.c.o)
 .text          0x0000000000000000        0x0 /home/vladimir/Documentos/SOFTWARE/arduino/BluePill/primeros_ejemplos/Blink/build/core/core.a(exti_f1.c.o)
 .data          0x0000000000000000        0x0 /home/vladimir/Documentos/SOFTWARE/arduino/BluePill/primeros_ejemplos/Blink/build/core/core.a(exti_f1.c.o)
 .bss           0x0000000000000000        0x0 /home/vladimir/Documentos/SOFTWARE/arduino/BluePill/primeros_ejemplos/Blink/build/core/core.a(exti_f1.c.o)
 .text.exti_select
                0x0000000000000000       0x18 /home/vladimir/Documentos/SOFTWARE/arduino/BluePill/primeros_ejemplos/Blink/build/core/core.a(exti_f1.c.o)
 .text          0x0000000000000000        0x0 /home/vladimir/Documentos/SOFTWARE/arduino/BluePill/primeros_ejemplos/Blink/build/core/core.a(flash.c.o)
 .data          0x0000000000000000        0x0 /home/vladimir/Documentos/SOFTWARE/arduino/BluePill/primeros_ejemplos/Blink/build/core/core.a(flash.c.o)
 .bss           0x0000000000000000        0x0 /home/vladimir/Documentos/SOFTWARE/arduino/BluePill/primeros_ejemplos/Blink/build/core/core.a(flash.c.o)
 .text          0x0000000000000000        0x0 /home/vladimir/Documentos/SOFTWARE/arduino/BluePill/primeros_ejemplos/Blink/build/core/core.a(gpio_f1.c.o)
 .data          0x0000000000000000        0x0 /home/vladimir/Documentos/SOFTWARE/arduino/BluePill/primeros_ejemplos/Blink/build/core/core.a(gpio_f1.c.o)
 .bss           0x0000000000000000        0x0 /home/vladimir/Documentos/SOFTWARE/arduino/BluePill/primeros_ejemplos/Blink/build/core/core.a(gpio_f1.c.o)
 .text.gpio_get_mode
                0x0000000000000000       0x2a /home/vladimir/Documentos/SOFTWARE/arduino/BluePill/primeros_ejemplos/Blink/build/core/core.a(gpio_f1.c.o)
 .text.afio_remap
                0x0000000000000000       0x20 /home/vladimir/Documentos/SOFTWARE/arduino/BluePill/primeros_ejemplos/Blink/build/core/core.a(gpio_f1.c.o)
 .rodata.GPIOA  0x0000000000000000        0x4 /home/vladimir/Documentos/SOFTWARE/arduino/BluePill/primeros_ejemplos/Blink/build/core/core.a(gpio_f1.c.o)
 .rodata.GPIOB  0x0000000000000000        0x4 /home/vladimir/Documentos/SOFTWARE/arduino/BluePill/primeros_ejemplos/Blink/build/core/core.a(gpio_f1.c.o)
 .rodata.GPIOD  0x0000000000000000        0x4 /home/vladimir/Documentos/SOFTWARE/arduino/BluePill/primeros_ejemplos/Blink/build/core/core.a(gpio_f1.c.o)
 .text          0x0000000000000000        0x0 /home/vladimir/Documentos/SOFTWARE/arduino/BluePill/primeros_ejemplos/Blink/build/core/core.a(i2c_f1.c.o)
 .data          0x0000000000000000        0x0 /home/vladimir/Documentos/SOFTWARE/arduino/BluePill/primeros_ejemplos/Blink/build/core/core.a(i2c_f1.c.o)
 .bss           0x0000000000000000        0x0 /home/vladimir/Documentos/SOFTWARE/arduino/BluePill/primeros_ejemplos/Blink/build/core/core.a(i2c_f1.c.o)
 .text.i2c_config_gpios
                0x0000000000000000       0x58 /home/vladimir/Documentos/SOFTWARE/arduino/BluePill/primeros_ejemplos/Blink/build/core/core.a(i2c_f1.c.o)
 .text.i2c_master_release_bus
                0x0000000000000000       0x4c /home/vladimir/Documentos/SOFTWARE/arduino/BluePill/primeros_ejemplos/Blink/build/core/core.a(i2c_f1.c.o)
 .rodata.I2C1   0x0000000000000000        0x4 /home/vladimir/Documentos/SOFTWARE/arduino/BluePill/primeros_ejemplos/Blink/build/core/core.a(i2c_f1.c.o)
 .rodata.I2C2   0x0000000000000000        0x4 /home/vladimir/Documentos/SOFTWARE/arduino/BluePill/primeros_ejemplos/Blink/build/core/core.a(i2c_f1.c.o)
 .text          0x0000000000000000        0x0 /home/vladimir/Documentos/SOFTWARE/arduino/BluePill/primeros_ejemplos/Blink/build/core/core.a(nvic.c.o)
 .data          0x0000000000000000        0x0 /home/vladimir/Documentos/SOFTWARE/arduino/BluePill/primeros_ejemplos/Blink/build/core/core.a(nvic.c.o)
 .bss           0x0000000000000000        0x0 /home/vladimir/Documentos/SOFTWARE/arduino/BluePill/primeros_ejemplos/Blink/build/core/core.a(nvic.c.o)
 .text.nvic_set_vector_table
                0x0000000000000000       0x14 /home/vladimir/Documentos/SOFTWARE/arduino/BluePill/primeros_ejemplos/Blink/build/core/core.a(nvic.c.o)
 .text          0x0000000000000000        0x0 /home/vladimir/Documentos/SOFTWARE/arduino/BluePill/primeros_ejemplos/Blink/build/core/core.a(rcc.c.o)
 .data          0x0000000000000000        0x0 /home/vladimir/Documentos/SOFTWARE/arduino/BluePill/primeros_ejemplos/Blink/build/core/core.a(rcc.c.o)
 .bss           0x0000000000000000        0x0 /home/vladimir/Documentos/SOFTWARE/arduino/BluePill/primeros_ejemplos/Blink/build/core/core.a(rcc.c.o)
 .text.rcc_is_clk_on
                0x0000000000000000       0x1e /home/vladimir/Documentos/SOFTWARE/arduino/BluePill/primeros_ejemplos/Blink/build/core/core.a(rcc.c.o)
 .text          0x0000000000000000        0x0 /home/vladimir/Documentos/SOFTWARE/arduino/BluePill/primeros_ejemplos/Blink/build/core/core.a(rcc_f1.c.o)
 .data          0x0000000000000000        0x0 /home/vladimir/Documentos/SOFTWARE/arduino/BluePill/primeros_ejemplos/Blink/build/core/core.a(rcc_f1.c.o)
 .bss           0x0000000000000000        0x0 /home/vladimir/Documentos/SOFTWARE/arduino/BluePill/primeros_ejemplos/Blink/build/core/core.a(rcc_f1.c.o)
 .text.rcc_clk_init
                0x0000000000000000       0x3c /home/vladimir/Documentos/SOFTWARE/arduino/BluePill/primeros_ejemplos/Blink/build/core/core.a(rcc_f1.c.o)
 .text          0x0000000000000000        0x0 /home/vladimir/Documentos/SOFTWARE/arduino/BluePill/primeros_ejemplos/Blink/build/core/core.a(systick.c.o)
 .data          0x0000000000000000        0x0 /home/vladimir/Documentos/SOFTWARE/arduino/BluePill/primeros_ejemplos/Blink/build/core/core.a(systick.c.o)
 .bss           0x0000000000000000        0x0 /home/vladimir/Documentos/SOFTWARE/arduino/BluePill/primeros_ejemplos/Blink/build/core/core.a(systick.c.o)
 .text.systick_disable
                0x0000000000000000        0xc /home/vladimir/Documentos/SOFTWARE/arduino/BluePill/primeros_ejemplos/Blink/build/core/core.a(systick.c.o)
 .text.systick_enable
                0x0000000000000000        0xc /home/vladimir/Documentos/SOFTWARE/arduino/BluePill/primeros_ejemplos/Blink/build/core/core.a(systick.c.o)
 .text.systick_attach_callback
                0x0000000000000000        0xc /home/vladimir/Documentos/SOFTWARE/arduino/BluePill/primeros_ejemplos/Blink/build/core/core.a(systick.c.o)
 .text          0x0000000000000000        0x0 /home/vladimir/Documentos/SOFTWARE/arduino/BluePill/primeros_ejemplos/Blink/build/core/core.a(timer.c.o)
 .data          0x0000000000000000        0x0 /home/vladimir/Documentos/SOFTWARE/arduino/BluePill/primeros_ejemplos/Blink/build/core/core.a(timer.c.o)
 .bss           0x0000000000000000        0x0 /home/vladimir/Documentos/SOFTWARE/arduino/BluePill/primeros_ejemplos/Blink/build/core/core.a(timer.c.o)
 .text.timer_disable
                0x0000000000000000       0x12 /home/vladimir/Documentos/SOFTWARE/arduino/BluePill/primeros_ejemplos/Blink/build/core/core.a(timer.c.o)
 .text.timer_attach_interrupt
                0x0000000000000000       0xe0 /home/vladimir/Documentos/SOFTWARE/arduino/BluePill/primeros_ejemplos/Blink/build/core/core.a(timer.c.o)
 .text.get_direction
                0x0000000000000000        0xe /home/vladimir/Documentos/SOFTWARE/arduino/BluePill/primeros_ejemplos/Blink/build/core/core.a(timer.c.o)
 .rodata.TIMER1
                0x0000000000000000        0x4 /home/vladimir/Documentos/SOFTWARE/arduino/BluePill/primeros_ejemplos/Blink/build/core/core.a(timer.c.o)
 .rodata.TIMER2
                0x0000000000000000        0x4 /home/vladimir/Documentos/SOFTWARE/arduino/BluePill/primeros_ejemplos/Blink/build/core/core.a(timer.c.o)
 .rodata.TIMER3
                0x0000000000000000        0x4 /home/vladimir/Documentos/SOFTWARE/arduino/BluePill/primeros_ejemplos/Blink/build/core/core.a(timer.c.o)
 .rodata.TIMER4
                0x0000000000000000        0x4 /home/vladimir/Documentos/SOFTWARE/arduino/BluePill/primeros_ejemplos/Blink/build/core/core.a(timer.c.o)
 .text          0x0000000000000000        0x0 /home/vladimir/Documentos/SOFTWARE/arduino/BluePill/primeros_ejemplos/Blink/build/core/core.a(usart_f1.c.o)
 .data          0x0000000000000000        0x0 /home/vladimir/Documentos/SOFTWARE/arduino/BluePill/primeros_ejemplos/Blink/build/core/core.a(usart_f1.c.o)
 .bss           0x0000000000000000        0x0 /home/vladimir/Documentos/SOFTWARE/arduino/BluePill/primeros_ejemplos/Blink/build/core/core.a(usart_f1.c.o)
 .text.usart_config_gpios_async
                0x0000000000000000       0x4a /home/vladimir/Documentos/SOFTWARE/arduino/BluePill/primeros_ejemplos/Blink/build/core/core.a(usart_f1.c.o)
 .text.usart_set_baud_rate
                0x0000000000000000       0x3c /home/vladimir/Documentos/SOFTWARE/arduino/BluePill/primeros_ejemplos/Blink/build/core/core.a(usart_f1.c.o)
 .text.usart_foreach
                0x0000000000000000       0x24 /home/vladimir/Documentos/SOFTWARE/arduino/BluePill/primeros_ejemplos/Blink/build/core/core.a(usart_f1.c.o)
 .text          0x0000000000000000        0x0 /home/vladimir/Documentos/SOFTWARE/arduino/BluePill/primeros_ejemplos/Blink/build/core/core.a(usart_private.c.o)
 .data          0x0000000000000000        0x0 /home/vladimir/Documentos/SOFTWARE/arduino/BluePill/primeros_ejemplos/Blink/build/core/core.a(usart_private.c.o)
 .bss           0x0000000000000000        0x0 /home/vladimir/Documentos/SOFTWARE/arduino/BluePill/primeros_ejemplos/Blink/build/core/core.a(usart_private.c.o)
 .text._usart_clock_freq
                0x0000000000000000       0x24 /home/vladimir/Documentos/SOFTWARE/arduino/BluePill/primeros_ejemplos/Blink/build/core/core.a(usart_private.c.o)
 .text          0x0000000000000000        0x0 /home/vladimir/Documentos/SOFTWARE/arduino/BluePill/primeros_ejemplos/Blink/build/core/core.a(util.c.o)
 .data          0x0000000000000000        0x0 /home/vladimir/Documentos/SOFTWARE/arduino/BluePill/primeros_ejemplos/Blink/build/core/core.a(util.c.o)
 .bss           0x0000000000000000        0x0 /home/vladimir/Documentos/SOFTWARE/arduino/BluePill/primeros_ejemplos/Blink/build/core/core.a(util.c.o)
 .text.usart_putc
                0x0000000000000000       0x1c /home/vladimir/Documentos/SOFTWARE/arduino/BluePill/primeros_ejemplos/Blink/build/core/core.a(util.c.o)
 .text.usart_putstr
                0x0000000000000000       0x16 /home/vladimir/Documentos/SOFTWARE/arduino/BluePill/primeros_ejemplos/Blink/build/core/core.a(util.c.o)
 .text._fail    0x0000000000000000       0x64 /home/vladimir/Documentos/SOFTWARE/arduino/BluePill/primeros_ejemplos/Blink/build/core/core.a(util.c.o)
 .text.__assert_func
                0x0000000000000000        0x8 /home/vladimir/Documentos/SOFTWARE/arduino/BluePill/primeros_ejemplos/Blink/build/core/core.a(util.c.o)
 .text.abort    0x0000000000000000       0x1c /home/vladimir/Documentos/SOFTWARE/arduino/BluePill/primeros_ejemplos/Blink/build/core/core.a(util.c.o)
 .rodata.str1.1
                0x0000000000000000       0x42 /home/vladimir/Documentos/SOFTWARE/arduino/BluePill/primeros_ejemplos/Blink/build/core/core.a(util.c.o)
 .text          0x0000000000000000        0x0 /home/vladimir/Documentos/SOFTWARE/arduino/BluePill/primeros_ejemplos/Blink/build/core/core.a(usb.c.o)
 .data          0x0000000000000000        0x0 /home/vladimir/Documentos/SOFTWARE/arduino/BluePill/primeros_ejemplos/Blink/build/core/core.a(usb.c.o)
 .bss           0x0000000000000000        0x0 /home/vladimir/Documentos/SOFTWARE/arduino/BluePill/primeros_ejemplos/Blink/build/core/core.a(usb.c.o)
 .text.usb_power_off
                0x0000000000000000       0x14 /home/vladimir/Documentos/SOFTWARE/arduino/BluePill/primeros_ejemplos/Blink/build/core/core.a(usb.c.o)
 .text          0x0000000000000000        0x0 /home/vladimir/Documentos/SOFTWARE/arduino/BluePill/primeros_ejemplos/Blink/build/core/core.a(usb_cdcacm.c.o)
 .data          0x0000000000000000        0x0 /home/vladimir/Documentos/SOFTWARE/arduino/BluePill/primeros_ejemplos/Blink/build/core/core.a(usb_cdcacm.c.o)
 .bss           0x0000000000000000        0x0 /home/vladimir/Documentos/SOFTWARE/arduino/BluePill/primeros_ejemplos/Blink/build/core/core.a(usb_cdcacm.c.o)
 .text.usb_cdcacm_disable
                0x0000000000000000       0x20 /home/vladimir/Documentos/SOFTWARE/arduino/BluePill/primeros_ejemplos/Blink/build/core/core.a(usb_cdcacm.c.o)
 .text.usb_cdcacm_putc
                0x0000000000000000       0x1a /home/vladimir/Documentos/SOFTWARE/arduino/BluePill/primeros_ejemplos/Blink/build/core/core.a(usb_cdcacm.c.o)
 .text.usb_cdcacm_is_transmitting
                0x0000000000000000       0x14 /home/vladimir/Documentos/SOFTWARE/arduino/BluePill/primeros_ejemplos/Blink/build/core/core.a(usb_cdcacm.c.o)
 .text.usb_cdcacm_get_pending
                0x0000000000000000       0x18 /home/vladimir/Documentos/SOFTWARE/arduino/BluePill/primeros_ejemplos/Blink/build/core/core.a(usb_cdcacm.c.o)
 .text.usb_cdcacm_tx_available
                0x0000000000000000        0xc /home/vladimir/Documentos/SOFTWARE/arduino/BluePill/primeros_ejemplos/Blink/build/core/core.a(usb_cdcacm.c.o)
 .text.usb_cdcacm_peek_char
                0x0000000000000000       0x24 /home/vladimir/Documentos/SOFTWARE/arduino/BluePill/primeros_ejemplos/Blink/build/core/core.a(usb_cdcacm.c.o)
 .text.usb_cdcacm_get_rts
                0x0000000000000000       0x10 /home/vladimir/Documentos/SOFTWARE/arduino/BluePill/primeros_ejemplos/Blink/build/core/core.a(usb_cdcacm.c.o)
 .text.usb_cdcacm_get_line_coding
                0x0000000000000000       0x18 /home/vladimir/Documentos/SOFTWARE/arduino/BluePill/primeros_ejemplos/Blink/build/core/core.a(usb_cdcacm.c.o)
 .text.usb_cdcacm_get_baud
                0x0000000000000000        0xc /home/vladimir/Documentos/SOFTWARE/arduino/BluePill/primeros_ejemplos/Blink/build/core/core.a(usb_cdcacm.c.o)
 .text.usb_cdcacm_get_stop_bits
                0x0000000000000000        0xc /home/vladimir/Documentos/SOFTWARE/arduino/BluePill/primeros_ejemplos/Blink/build/core/core.a(usb_cdcacm.c.o)
 .text.usb_cdcacm_get_parity
                0x0000000000000000        0xc /home/vladimir/Documentos/SOFTWARE/arduino/BluePill/primeros_ejemplos/Blink/build/core/core.a(usb_cdcacm.c.o)
 .text.usb_cdcacm_get_n_data_bits
                0x0000000000000000        0xc /home/vladimir/Documentos/SOFTWARE/arduino/BluePill/primeros_ejemplos/Blink/build/core/core.a(usb_cdcacm.c.o)
 .text          0x0000000000000000        0x0 /home/vladimir/Documentos/SOFTWARE/arduino/BluePill/primeros_ejemplos/Blink/build/core/core.a(usb_reg_map.c.o)
 .data          0x0000000000000000        0x0 /home/vladimir/Documentos/SOFTWARE/arduino/BluePill/primeros_ejemplos/Blink/build/core/core.a(usb_reg_map.c.o)
 .bss           0x0000000000000000        0x0 /home/vladimir/Documentos/SOFTWARE/arduino/BluePill/primeros_ejemplos/Blink/build/core/core.a(usb_reg_map.c.o)
 .text          0x0000000000000000        0x0 /home/vladimir/Documentos/SOFTWARE/arduino/BluePill/primeros_ejemplos/Blink/build/core/core.a(usb_core.c.o)
 .data          0x0000000000000000        0x0 /home/vladimir/Documentos/SOFTWARE/arduino/BluePill/primeros_ejemplos/Blink/build/core/core.a(usb_core.c.o)
 .bss           0x0000000000000000        0x0 /home/vladimir/Documentos/SOFTWARE/arduino/BluePill/primeros_ejemplos/Blink/build/core/core.a(usb_core.c.o)
 .text          0x0000000000000000        0x0 /home/vladimir/Documentos/SOFTWARE/arduino/BluePill/primeros_ejemplos/Blink/build/core/core.a(usb_init.c.o)
 .data          0x0000000000000000        0x0 /home/vladimir/Documentos/SOFTWARE/arduino/BluePill/primeros_ejemplos/Blink/build/core/core.a(usb_init.c.o)
 .bss           0x0000000000000000        0x0 /home/vladimir/Documentos/SOFTWARE/arduino/BluePill/primeros_ejemplos/Blink/build/core/core.a(usb_init.c.o)
 .text.USB_Init
                0x0000000000000000       0x38 /home/vladimir/Documentos/SOFTWARE/arduino/BluePill/primeros_ejemplos/Blink/build/core/core.a(usb_init.c.o)
 .text          0x0000000000000000        0x0 /home/vladimir/Documentos/SOFTWARE/arduino/BluePill/primeros_ejemplos/Blink/build/core/core.a(usb_mem.c.o)
 .data          0x0000000000000000        0x0 /home/vladimir/Documentos/SOFTWARE/arduino/BluePill/primeros_ejemplos/Blink/build/core/core.a(usb_mem.c.o)
 .bss           0x0000000000000000        0x0 /home/vladimir/Documentos/SOFTWARE/arduino/BluePill/primeros_ejemplos/Blink/build/core/core.a(usb_mem.c.o)
 .text          0x0000000000000000        0x0 /home/vladimir/Documentos/SOFTWARE/arduino/BluePill/primeros_ejemplos/Blink/build/core/core.a(usb_regs.c.o)
 .data          0x0000000000000000        0x0 /home/vladimir/Documentos/SOFTWARE/arduino/BluePill/primeros_ejemplos/Blink/build/core/core.a(usb_regs.c.o)
 .bss           0x0000000000000000        0x0 /home/vladimir/Documentos/SOFTWARE/arduino/BluePill/primeros_ejemplos/Blink/build/core/core.a(usb_regs.c.o)
 .text.SetCNTR  0x0000000000000000        0xc /home/vladimir/Documentos/SOFTWARE/arduino/BluePill/primeros_ejemplos/Blink/build/core/core.a(usb_regs.c.o)
 .text.GetCNTR  0x0000000000000000        0xc /home/vladimir/Documentos/SOFTWARE/arduino/BluePill/primeros_ejemplos/Blink/build/core/core.a(usb_regs.c.o)
 .text.SetISTR  0x0000000000000000        0xc /home/vladimir/Documentos/SOFTWARE/arduino/BluePill/primeros_ejemplos/Blink/build/core/core.a(usb_regs.c.o)
 .text.GetISTR  0x0000000000000000        0xc /home/vladimir/Documentos/SOFTWARE/arduino/BluePill/primeros_ejemplos/Blink/build/core/core.a(usb_regs.c.o)
 .text.GetFNR   0x0000000000000000        0xc /home/vladimir/Documentos/SOFTWARE/arduino/BluePill/primeros_ejemplos/Blink/build/core/core.a(usb_regs.c.o)
 .text.SetDADDR
                0x0000000000000000        0xc /home/vladimir/Documentos/SOFTWARE/arduino/BluePill/primeros_ejemplos/Blink/build/core/core.a(usb_regs.c.o)
 .text.GetDADDR
                0x0000000000000000        0xc /home/vladimir/Documentos/SOFTWARE/arduino/BluePill/primeros_ejemplos/Blink/build/core/core.a(usb_regs.c.o)
 .text.SetBTABLE
                0x0000000000000000       0x10 /home/vladimir/Documentos/SOFTWARE/arduino/BluePill/primeros_ejemplos/Blink/build/core/core.a(usb_regs.c.o)
 .text.GetBTABLE
                0x0000000000000000        0xc /home/vladimir/Documentos/SOFTWARE/arduino/BluePill/primeros_ejemplos/Blink/build/core/core.a(usb_regs.c.o)
 .text.SetENDPOINT
                0x0000000000000000        0xe /home/vladimir/Documentos/SOFTWARE/arduino/BluePill/primeros_ejemplos/Blink/build/core/core.a(usb_regs.c.o)
 .text.GetENDPOINT
                0x0000000000000000       0x10 /home/vladimir/Documentos/SOFTWARE/arduino/BluePill/primeros_ejemplos/Blink/build/core/core.a(usb_regs.c.o)
 .text.SetEPType
                0x0000000000000000       0x1c /home/vladimir/Documentos/SOFTWARE/arduino/BluePill/primeros_ejemplos/Blink/build/core/core.a(usb_regs.c.o)
 .text.GetEPType
                0x0000000000000000       0x12 /home/vladimir/Documentos/SOFTWARE/arduino/BluePill/primeros_ejemplos/Blink/build/core/core.a(usb_regs.c.o)
 .text.SetEPRxStatus
                0x0000000000000000       0x2a /home/vladimir/Documentos/SOFTWARE/arduino/BluePill/primeros_ejemplos/Blink/build/core/core.a(usb_regs.c.o)
 .text.SetDouBleBuffEPStall
                0x0000000000000000       0x24 /home/vladimir/Documentos/SOFTWARE/arduino/BluePill/primeros_ejemplos/Blink/build/core/core.a(usb_regs.c.o)
 .text.GetEPTxStatus
                0x0000000000000000       0x12 /home/vladimir/Documentos/SOFTWARE/arduino/BluePill/primeros_ejemplos/Blink/build/core/core.a(usb_regs.c.o)
 .text.GetEPRxStatus
                0x0000000000000000       0x12 /home/vladimir/Documentos/SOFTWARE/arduino/BluePill/primeros_ejemplos/Blink/build/core/core.a(usb_regs.c.o)
 .text.SetEPTxValid
                0x0000000000000000       0x1e /home/vladimir/Documentos/SOFTWARE/arduino/BluePill/primeros_ejemplos/Blink/build/core/core.a(usb_regs.c.o)
 .text.SetEPRxValid
                0x0000000000000000       0x1e /home/vladimir/Documentos/SOFTWARE/arduino/BluePill/primeros_ejemplos/Blink/build/core/core.a(usb_regs.c.o)
 .text.SetEP_KIND
                0x0000000000000000       0x1e /home/vladimir/Documentos/SOFTWARE/arduino/BluePill/primeros_ejemplos/Blink/build/core/core.a(usb_regs.c.o)
 .text.ClearEP_KIND
                0x0000000000000000       0x1c /home/vladimir/Documentos/SOFTWARE/arduino/BluePill/primeros_ejemplos/Blink/build/core/core.a(usb_regs.c.o)
 .text.Clear_Status_Out
                0x0000000000000000       0x1c /home/vladimir/Documentos/SOFTWARE/arduino/BluePill/primeros_ejemplos/Blink/build/core/core.a(usb_regs.c.o)
 .text.Set_Status_Out
                0x0000000000000000       0x1e /home/vladimir/Documentos/SOFTWARE/arduino/BluePill/primeros_ejemplos/Blink/build/core/core.a(usb_regs.c.o)
 .text.SetEPDoubleBuff
                0x0000000000000000       0x1e /home/vladimir/Documentos/SOFTWARE/arduino/BluePill/primeros_ejemplos/Blink/build/core/core.a(usb_regs.c.o)
 .text.ClearEPDoubleBuff
                0x0000000000000000       0x1c /home/vladimir/Documentos/SOFTWARE/arduino/BluePill/primeros_ejemplos/Blink/build/core/core.a(usb_regs.c.o)
 .text.GetTxStallStatus
                0x0000000000000000       0x1a /home/vladimir/Documentos/SOFTWARE/arduino/BluePill/primeros_ejemplos/Blink/build/core/core.a(usb_regs.c.o)
 .text.GetRxStallStatus
                0x0000000000000000       0x1a /home/vladimir/Documentos/SOFTWARE/arduino/BluePill/primeros_ejemplos/Blink/build/core/core.a(usb_regs.c.o)
 .text.ClearEP_CTR_RX
                0x0000000000000000       0x18 /home/vladimir/Documentos/SOFTWARE/arduino/BluePill/primeros_ejemplos/Blink/build/core/core.a(usb_regs.c.o)
 .text.ClearEP_CTR_TX
                0x0000000000000000       0x1c /home/vladimir/Documentos/SOFTWARE/arduino/BluePill/primeros_ejemplos/Blink/build/core/core.a(usb_regs.c.o)
 .text.ToggleDTOG_RX
                0x0000000000000000       0x20 /home/vladimir/Documentos/SOFTWARE/arduino/BluePill/primeros_ejemplos/Blink/build/core/core.a(usb_regs.c.o)
 .text.ToggleDTOG_TX
                0x0000000000000000       0x20 /home/vladimir/Documentos/SOFTWARE/arduino/BluePill/primeros_ejemplos/Blink/build/core/core.a(usb_regs.c.o)
 .text.SetEPAddress
                0x0000000000000000       0x1e /home/vladimir/Documentos/SOFTWARE/arduino/BluePill/primeros_ejemplos/Blink/build/core/core.a(usb_regs.c.o)
 .text.GetEPAddress
                0x0000000000000000       0x12 /home/vladimir/Documentos/SOFTWARE/arduino/BluePill/primeros_ejemplos/Blink/build/core/core.a(usb_regs.c.o)
 .text.SetEPTxAddr
                0x0000000000000000       0x20 /home/vladimir/Documentos/SOFTWARE/arduino/BluePill/primeros_ejemplos/Blink/build/core/core.a(usb_regs.c.o)
 .text.SetEPRxAddr
                0x0000000000000000       0x20 /home/vladimir/Documentos/SOFTWARE/arduino/BluePill/primeros_ejemplos/Blink/build/core/core.a(usb_regs.c.o)
 .text.SetEPCountRxReg
                0x0000000000000000       0x26 /home/vladimir/Documentos/SOFTWARE/arduino/BluePill/primeros_ejemplos/Blink/build/core/core.a(usb_regs.c.o)
 .text.GetEPTxCount
                0x0000000000000000       0x20 /home/vladimir/Documentos/SOFTWARE/arduino/BluePill/primeros_ejemplos/Blink/build/core/core.a(usb_regs.c.o)
 .text.GetEPRxCount
                0x0000000000000000       0x20 /home/vladimir/Documentos/SOFTWARE/arduino/BluePill/primeros_ejemplos/Blink/build/core/core.a(usb_regs.c.o)
 .text.SetEPDblBuffAddr
                0x0000000000000000       0x38 /home/vladimir/Documentos/SOFTWARE/arduino/BluePill/primeros_ejemplos/Blink/build/core/core.a(usb_regs.c.o)
 .text.SetEPDblBuf0Addr
                0x0000000000000000       0x20 /home/vladimir/Documentos/SOFTWARE/arduino/BluePill/primeros_ejemplos/Blink/build/core/core.a(usb_regs.c.o)
 .text.SetEPDblBuf1Addr
                0x0000000000000000       0x20 /home/vladimir/Documentos/SOFTWARE/arduino/BluePill/primeros_ejemplos/Blink/build/core/core.a(usb_regs.c.o)
 .text.GetEPDblBuf0Addr
                0x0000000000000000       0x1c /home/vladimir/Documentos/SOFTWARE/arduino/BluePill/primeros_ejemplos/Blink/build/core/core.a(usb_regs.c.o)
 .text.GetEPDblBuf1Addr
                0x0000000000000000       0x1c /home/vladimir/Documentos/SOFTWARE/arduino/BluePill/primeros_ejemplos/Blink/build/core/core.a(usb_regs.c.o)
 .text.SetEPDblBuffCount
                0x0000000000000000       0xa8 /home/vladimir/Documentos/SOFTWARE/arduino/BluePill/primeros_ejemplos/Blink/build/core/core.a(usb_regs.c.o)
 .text.SetEPDblBuf0Count
                0x0000000000000000       0x5c /home/vladimir/Documentos/SOFTWARE/arduino/BluePill/primeros_ejemplos/Blink/build/core/core.a(usb_regs.c.o)
 .text.SetEPDblBuf1Count
                0x0000000000000000       0x5c /home/vladimir/Documentos/SOFTWARE/arduino/BluePill/primeros_ejemplos/Blink/build/core/core.a(usb_regs.c.o)
 .text.GetEPDblBuf0Count
                0x0000000000000000       0x20 /home/vladimir/Documentos/SOFTWARE/arduino/BluePill/primeros_ejemplos/Blink/build/core/core.a(usb_regs.c.o)
 .text.GetEPDblBuf1Count
                0x0000000000000000       0x20 /home/vladimir/Documentos/SOFTWARE/arduino/BluePill/primeros_ejemplos/Blink/build/core/core.a(usb_regs.c.o)
 .text.GetEPDblBufDir
                0x0000000000000000       0x44 /home/vladimir/Documentos/SOFTWARE/arduino/BluePill/primeros_ejemplos/Blink/build/core/core.a(usb_regs.c.o)
 .text.FreeUserBuffer
                0x0000000000000000       0x3a /home/vladimir/Documentos/SOFTWARE/arduino/BluePill/primeros_ejemplos/Blink/build/core/core.a(usb_regs.c.o)
 .text.ToWord   0x0000000000000000        0x6 /home/vladimir/Documentos/SOFTWARE/arduino/BluePill/primeros_ejemplos/Blink/build/core/core.a(usb_regs.c.o)
 .text.ByteSwap
                0x0000000000000000        0xa /home/vladimir/Documentos/SOFTWARE/arduino/BluePill/primeros_ejemplos/Blink/build/core/core.a(usb_regs.c.o)
 .group         0x0000000000000000        0x8 /home/vladimir/Documentos/SOFTWARE/arduino/BluePill/primeros_ejemplos/Blink/build/core/core.a(HardwareSerial.cpp.o)
 .text          0x0000000000000000        0x0 /home/vladimir/Documentos/SOFTWARE/arduino/BluePill/primeros_ejemplos/Blink/build/core/core.a(HardwareSerial.cpp.o)
 .data          0x0000000000000000        0x0 /home/vladimir/Documentos/SOFTWARE/arduino/BluePill/primeros_ejemplos/Blink/build/core/core.a(HardwareSerial.cpp.o)
 .bss           0x0000000000000000        0x0 /home/vladimir/Documentos/SOFTWARE/arduino/BluePill/primeros_ejemplos/Blink/build/core/core.a(HardwareSerial.cpp.o)
 .text._ZN14HardwareSerial5beginEmh
                0x0000000000000000       0x78 /home/vladimir/Documentos/SOFTWARE/arduino/BluePill/primeros_ejemplos/Blink/build/core/core.a(HardwareSerial.cpp.o)
 .text._ZN14HardwareSerial5beginEm
                0x0000000000000000        0x6 /home/vladimir/Documentos/SOFTWARE/arduino/BluePill/primeros_ejemplos/Blink/build/core/core.a(HardwareSerial.cpp.o)
 .text._ZN14HardwareSerial3endEv
                0x0000000000000000        0x6 /home/vladimir/Documentos/SOFTWARE/arduino/BluePill/primeros_ejemplos/Blink/build/core/core.a(HardwareSerial.cpp.o)
 .text._ZN14HardwareSerial17availableForWriteEv
                0x0000000000000000       0x12 /home/vladimir/Documentos/SOFTWARE/arduino/BluePill/primeros_ejemplos/Blink/build/core/core.a(HardwareSerial.cpp.o)
 .rodata._ZTV6Stream
                0x0000000000000000       0x28 /home/vladimir/Documentos/SOFTWARE/arduino/BluePill/primeros_ejemplos/Blink/build/core/core.a(HardwareSerial.cpp.o)
 .text          0x0000000000000000        0x0 /home/vladimir/Documentos/SOFTWARE/arduino/BluePill/primeros_ejemplos/Blink/build/core/core.a(Print.cpp.o)
 .data          0x0000000000000000        0x0 /home/vladimir/Documentos/SOFTWARE/arduino/BluePill/primeros_ejemplos/Blink/build/core/core.a(Print.cpp.o)
 .bss           0x0000000000000000        0x0 /home/vladimir/Documentos/SOFTWARE/arduino/BluePill/primeros_ejemplos/Blink/build/core/core.a(Print.cpp.o)
 .text._ZN5Print5printERK6String
                0x0000000000000000       0x10 /home/vladimir/Documentos/SOFTWARE/arduino/BluePill/primeros_ejemplos/Blink/build/core/core.a(Print.cpp.o)
 .text._ZN5Print5printEc
                0x0000000000000000        0xa /home/vladimir/Documentos/SOFTWARE/arduino/BluePill/primeros_ejemplos/Blink/build/core/core.a(Print.cpp.o)
 .text._ZN5Print5printEPKc
                0x0000000000000000        0xa /home/vladimir/Documentos/SOFTWARE/arduino/BluePill/primeros_ejemplos/Blink/build/core/core.a(Print.cpp.o)
 .text._ZN5Print5printEPK19__FlashStringHelper
                0x0000000000000000        0x4 /home/vladimir/Documentos/SOFTWARE/arduino/BluePill/primeros_ejemplos/Blink/build/core/core.a(Print.cpp.o)
 .text._ZN5Print5printERK9Printable
                0x0000000000000000       0x10 /home/vladimir/Documentos/SOFTWARE/arduino/BluePill/primeros_ejemplos/Blink/build/core/core.a(Print.cpp.o)
 .text._ZN5Print7printlnEv
                0x0000000000000000       0x18 /home/vladimir/Documentos/SOFTWARE/arduino/BluePill/primeros_ejemplos/Blink/build/core/core.a(Print.cpp.o)
 .text._ZN5Print7printlnERK6String
                0x0000000000000000       0x14 /home/vladimir/Documentos/SOFTWARE/arduino/BluePill/primeros_ejemplos/Blink/build/core/core.a(Print.cpp.o)
 .text._ZN5Print7printlnEc
                0x0000000000000000       0x14 /home/vladimir/Documentos/SOFTWARE/arduino/BluePill/primeros_ejemplos/Blink/build/core/core.a(Print.cpp.o)
 .text._ZN5Print7printlnEPKc
                0x0000000000000000       0x14 /home/vladimir/Documentos/SOFTWARE/arduino/BluePill/primeros_ejemplos/Blink/build/core/core.a(Print.cpp.o)
 .text._ZN5Print7printlnEPK19__FlashStringHelper
                0x0000000000000000       0x14 /home/vladimir/Documentos/SOFTWARE/arduino/BluePill/primeros_ejemplos/Blink/build/core/core.a(Print.cpp.o)
 .text._ZN5Print7printlnERK9Printable
                0x0000000000000000       0x14 /home/vladimir/Documentos/SOFTWARE/arduino/BluePill/primeros_ejemplos/Blink/build/core/core.a(Print.cpp.o)
 .text._ZN5Print11printNumberEyh
                0x0000000000000000       0x84 /home/vladimir/Documentos/SOFTWARE/arduino/BluePill/primeros_ejemplos/Blink/build/core/core.a(Print.cpp.o)
 .text._ZN5Print5printExi
                0x0000000000000000       0x32 /home/vladimir/Documentos/SOFTWARE/arduino/BluePill/primeros_ejemplos/Blink/build/core/core.a(Print.cpp.o)
 .text._ZN5Print5printEii
                0x0000000000000000       0x12 /home/vladimir/Documentos/SOFTWARE/arduino/BluePill/primeros_ejemplos/Blink/build/core/core.a(Print.cpp.o)
 .text._ZN5Print7printlnEii
                0x0000000000000000       0x14 /home/vladimir/Documentos/SOFTWARE/arduino/BluePill/primeros_ejemplos/Blink/build/core/core.a(Print.cpp.o)
 .text._ZN5Print5printEli
                0x0000000000000000       0x12 /home/vladimir/Documentos/SOFTWARE/arduino/BluePill/primeros_ejemplos/Blink/build/core/core.a(Print.cpp.o)
 .text._ZN5Print7printlnEli
                0x0000000000000000       0x1c /home/vladimir/Documentos/SOFTWARE/arduino/BluePill/primeros_ejemplos/Blink/build/core/core.a(Print.cpp.o)
 .text._ZN5Print7printlnExi
                0x0000000000000000       0x1a /home/vladimir/Documentos/SOFTWARE/arduino/BluePill/primeros_ejemplos/Blink/build/core/core.a(Print.cpp.o)
 .text._ZN5Print5printEyi
                0x0000000000000000        0xa /home/vladimir/Documentos/SOFTWARE/arduino/BluePill/primeros_ejemplos/Blink/build/core/core.a(Print.cpp.o)
 .text._ZN5Print5printEhi
                0x0000000000000000       0x14 /home/vladimir/Documentos/SOFTWARE/arduino/BluePill/primeros_ejemplos/Blink/build/core/core.a(Print.cpp.o)
 .text._ZN5Print7printlnEhi
                0x0000000000000000       0x14 /home/vladimir/Documentos/SOFTWARE/arduino/BluePill/primeros_ejemplos/Blink/build/core/core.a(Print.cpp.o)
 .text._ZN5Print5printEji
                0x0000000000000000       0x14 /home/vladimir/Documentos/SOFTWARE/arduino/BluePill/primeros_ejemplos/Blink/build/core/core.a(Print.cpp.o)
 .text._ZN5Print7printlnEji
                0x0000000000000000       0x14 /home/vladimir/Documentos/SOFTWARE/arduino/BluePill/primeros_ejemplos/Blink/build/core/core.a(Print.cpp.o)
 .text._ZN5Print5printEmi
                0x0000000000000000       0x14 /home/vladimir/Documentos/SOFTWARE/arduino/BluePill/primeros_ejemplos/Blink/build/core/core.a(Print.cpp.o)
 .text._ZN5Print7printlnEmi
                0x0000000000000000       0x1e /home/vladimir/Documentos/SOFTWARE/arduino/BluePill/primeros_ejemplos/Blink/build/core/core.a(Print.cpp.o)
 .text._ZN5Print7printlnEyi
                0x0000000000000000       0x1c /home/vladimir/Documentos/SOFTWARE/arduino/BluePill/primeros_ejemplos/Blink/build/core/core.a(Print.cpp.o)
 .text._ZN5Print10printFloatEdh
                0x0000000000000000      0x158 /home/vladimir/Documentos/SOFTWARE/arduino/BluePill/primeros_ejemplos/Blink/build/core/core.a(Print.cpp.o)
 .text._ZN5Print5printEdi
                0x0000000000000000        0xa /home/vladimir/Documentos/SOFTWARE/arduino/BluePill/primeros_ejemplos/Blink/build/core/core.a(Print.cpp.o)
 .text._ZN5Print7printlnEdi
                0x0000000000000000       0x1c /home/vladimir/Documentos/SOFTWARE/arduino/BluePill/primeros_ejemplos/Blink/build/core/core.a(Print.cpp.o)
 .rodata._ZTV5Print
                0x0000000000000000       0x18 /home/vladimir/Documentos/SOFTWARE/arduino/BluePill/primeros_ejemplos/Blink/build/core/core.a(Print.cpp.o)
 .rodata.str1.1
                0x0000000000000000       0x11 /home/vladimir/Documentos/SOFTWARE/arduino/BluePill/primeros_ejemplos/Blink/build/core/core.a(Print.cpp.o)
 .text          0x0000000000000000        0x0 /home/vladimir/Documentos/SOFTWARE/arduino/BluePill/primeros_ejemplos/Blink/build/core/core.a(cxxabi-compat.cpp.o)
 .data          0x0000000000000000        0x0 /home/vladimir/Documentos/SOFTWARE/arduino/BluePill/primeros_ejemplos/Blink/build/core/core.a(cxxabi-compat.cpp.o)
 .bss           0x0000000000000000        0x0 /home/vladimir/Documentos/SOFTWARE/arduino/BluePill/primeros_ejemplos/Blink/build/core/core.a(cxxabi-compat.cpp.o)
 .text.__cxa_pure_virtual
                0x0000000000000000        0x2 /home/vladimir/Documentos/SOFTWARE/arduino/BluePill/primeros_ejemplos/Blink/build/core/core.a(cxxabi-compat.cpp.o)
 .text          0x0000000000000000        0x0 /home/vladimir/Documentos/SOFTWARE/arduino/BluePill/primeros_ejemplos/Blink/build/core/core.a(main.cpp.o)
 .data          0x0000000000000000        0x0 /home/vladimir/Documentos/SOFTWARE/arduino/BluePill/primeros_ejemplos/Blink/build/core/core.a(main.cpp.o)
 .bss           0x0000000000000000        0x0 /home/vladimir/Documentos/SOFTWARE/arduino/BluePill/primeros_ejemplos/Blink/build/core/core.a(main.cpp.o)
 .group         0x0000000000000000        0x8 /home/vladimir/Documentos/SOFTWARE/arduino/BluePill/primeros_ejemplos/Blink/build/core/core.a(usb_serial.cpp.o)
 .text          0x0000000000000000        0x0 /home/vladimir/Documentos/SOFTWARE/arduino/BluePill/primeros_ejemplos/Blink/build/core/core.a(usb_serial.cpp.o)
 .data          0x0000000000000000        0x0 /home/vladimir/Documentos/SOFTWARE/arduino/BluePill/primeros_ejemplos/Blink/build/core/core.a(usb_serial.cpp.o)
 .bss           0x0000000000000000        0x0 /home/vladimir/Documentos/SOFTWARE/arduino/BluePill/primeros_ejemplos/Blink/build/core/core.a(usb_serial.cpp.o)
 .text._ZN9USBSerial5beginEm
                0x0000000000000000       0x10 /home/vladimir/Documentos/SOFTWARE/arduino/BluePill/primeros_ejemplos/Blink/build/core/core.a(usb_serial.cpp.o)
 .text._ZN9USBSerial5beginEmh
                0x0000000000000000       0x18 /home/vladimir/Documentos/SOFTWARE/arduino/BluePill/primeros_ejemplos/Blink/build/core/core.a(usb_serial.cpp.o)
 .text._ZN9USBSerial3endEv
                0x0000000000000000       0x20 /home/vladimir/Documentos/SOFTWARE/arduino/BluePill/primeros_ejemplos/Blink/build/core/core.a(usb_serial.cpp.o)
 .text._ZN9USBSerial17availableForWriteEv
                0x0000000000000000        0x4 /home/vladimir/Documentos/SOFTWARE/arduino/BluePill/primeros_ejemplos/Blink/build/core/core.a(usb_serial.cpp.o)
 .text._ZN9USBSerial9readBytesEPcRKj
                0x0000000000000000       0x40 /home/vladimir/Documentos/SOFTWARE/arduino/BluePill/primeros_ejemplos/Blink/build/core/core.a(usb_serial.cpp.o)
 .text._ZN9USBSerial7pendingEv
                0x0000000000000000        0xa /home/vladimir/Documentos/SOFTWARE/arduino/BluePill/primeros_ejemplos/Blink/build/core/core.a(usb_serial.cpp.o)
 .text._ZN9USBSerial6getDTREv
                0x0000000000000000        0x4 /home/vladimir/Documentos/SOFTWARE/arduino/BluePill/primeros_ejemplos/Blink/build/core/core.a(usb_serial.cpp.o)
 .text._ZN9USBSerial6getRTSEv
                0x0000000000000000        0x4 /home/vladimir/Documentos/SOFTWARE/arduino/BluePill/primeros_ejemplos/Blink/build/core/core.a(usb_serial.cpp.o)
 .text._ZN9USBSerialcvbEv
                0x0000000000000000       0x20 /home/vladimir/Documentos/SOFTWARE/arduino/BluePill/primeros_ejemplos/Blink/build/core/core.a(usb_serial.cpp.o)
 .text._ZN9USBSerial16enableBlockingTxEv
                0x0000000000000000        0xc /home/vladimir/Documentos/SOFTWARE/arduino/BluePill/primeros_ejemplos/Blink/build/core/core.a(usb_serial.cpp.o)
 .text._ZN9USBSerial17disableBlockingTxEv
                0x0000000000000000        0xc /home/vladimir/Documentos/SOFTWARE/arduino/BluePill/primeros_ejemplos/Blink/build/core/core.a(usb_serial.cpp.o)
 .rodata._ZTV6Stream
                0x0000000000000000       0x28 /home/vladimir/Documentos/SOFTWARE/arduino/BluePill/primeros_ejemplos/Blink/build/core/core.a(usb_serial.cpp.o)
 .text          0x0000000000000000        0x0 /home/vladimir/Documentos/SOFTWARE/arduino/BluePill/primeros_ejemplos/Blink/build/core/core.a(wirish_digital.cpp.o)
 .data          0x0000000000000000        0x0 /home/vladimir/Documentos/SOFTWARE/arduino/BluePill/primeros_ejemplos/Blink/build/core/core.a(wirish_digital.cpp.o)
 .bss           0x0000000000000000        0x0 /home/vladimir/Documentos/SOFTWARE/arduino/BluePill/primeros_ejemplos/Blink/build/core/core.a(wirish_digital.cpp.o)
 .text._Z11digitalReadh
                0x0000000000000000       0x2c /home/vladimir/Documentos/SOFTWARE/arduino/BluePill/primeros_ejemplos/Blink/build/core/core.a(wirish_digital.cpp.o)
 .text          0x0000000000000000        0x0 /home/vladimir/Documentos/SOFTWARE/arduino/BluePill/primeros_ejemplos/Blink/build/core/core.a(wirish_time.cpp.o)
 .data          0x0000000000000000        0x0 /home/vladimir/Documentos/SOFTWARE/arduino/BluePill/primeros_ejemplos/Blink/build/core/core.a(wirish_time.cpp.o)
 .bss           0x0000000000000000        0x0 /home/vladimir/Documentos/SOFTWARE/arduino/BluePill/primeros_ejemplos/Blink/build/core/core.a(wirish_time.cpp.o)
 .text._Z17delayMicrosecondsm
                0x0000000000000000       0x10 /home/vladimir/Documentos/SOFTWARE/arduino/BluePill/primeros_ejemplos/Blink/build/core/core.a(wirish_time.cpp.o)
 .text          0x0000000000000000        0x0 /home/vladimir/Documentos/SOFTWARE/arduino/BluePill/primeros_ejemplos/Blink/build/core/core.a(wirish_digital_f1.cpp.o)
 .data          0x0000000000000000        0x0 /home/vladimir/Documentos/SOFTWARE/arduino/BluePill/primeros_ejemplos/Blink/build/core/core.a(wirish_digital_f1.cpp.o)
 .bss           0x0000000000000000        0x0 /home/vladimir/Documentos/SOFTWARE/arduino/BluePill/primeros_ejemplos/Blink/build/core/core.a(wirish_digital_f1.cpp.o)
 .text          0x0000000000000000        0x0 /home/vladimir/Documentos/SOFTWARE/arduino/BluePill/primeros_ejemplos/Blink/build/core/core.a(hooks.c.o)
 .data          0x0000000000000000        0x0 /home/vladimir/Documentos/SOFTWARE/arduino/BluePill/primeros_ejemplos/Blink/build/core/core.a(hooks.c.o)
 .bss           0x0000000000000000        0x0 /home/vladimir/Documentos/SOFTWARE/arduino/BluePill/primeros_ejemplos/Blink/build/core/core.a(hooks.c.o)
 .text          0x0000000000000000        0x0 /home/vladimir/Documentos/SOFTWARE/arduino/BluePill/primeros_ejemplos/Blink/build/core/core.a(bkp_f1.c.o)
 .data          0x0000000000000000        0x0 /home/vladimir/Documentos/SOFTWARE/arduino/BluePill/primeros_ejemplos/Blink/build/core/core.a(bkp_f1.c.o)
 .bss           0x0000000000000000        0x0 /home/vladimir/Documentos/SOFTWARE/arduino/BluePill/primeros_ejemplos/Blink/build/core/core.a(bkp_f1.c.o)
 .text.bkp_read
                0x0000000000000000       0x1c /home/vladimir/Documentos/SOFTWARE/arduino/BluePill/primeros_ejemplos/Blink/build/core/core.a(bkp_f1.c.o)
 .data.bkp      0x0000000000000000        0x4 /home/vladimir/Documentos/SOFTWARE/arduino/BluePill/primeros_ejemplos/Blink/build/core/core.a(bkp_f1.c.o)
 .data.BKP      0x0000000000000000        0x4 /home/vladimir/Documentos/SOFTWARE/arduino/BluePill/primeros_ejemplos/Blink/build/core/core.a(bkp_f1.c.o)
 .text          0x0000000000000000        0x0 /home/vladimir/Documentos/SOFTWARE/arduino/BluePill/primeros_ejemplos/Blink/build/core/core.a(dma.c.o)
 .data          0x0000000000000000        0x0 /home/vladimir/Documentos/SOFTWARE/arduino/BluePill/primeros_ejemplos/Blink/build/core/core.a(dma.c.o)
 .bss           0x0000000000000000        0x0 /home/vladimir/Documentos/SOFTWARE/arduino/BluePill/primeros_ejemplos/Blink/build/core/core.a(dma.c.o)
 .text.dma_init
                0x0000000000000000        0x6 /home/vladimir/Documentos/SOFTWARE/arduino/BluePill/primeros_ejemplos/Blink/build/core/core.a(dma.c.o)
 .text._dma_addr_type
                0x0000000000000000       0x28 /home/vladimir/Documentos/SOFTWARE/arduino/BluePill/primeros_ejemplos/Blink/build/core/core.a(dma.c.o)
 .text          0x0000000000000000        0x0 /home/vladimir/Documentos/SOFTWARE/arduino/BluePill/primeros_ejemplos/Blink/build/core/core.a(gpio.c.o)
 .data          0x0000000000000000        0x0 /home/vladimir/Documentos/SOFTWARE/arduino/BluePill/primeros_ejemplos/Blink/build/core/core.a(gpio.c.o)
 .bss           0x0000000000000000        0x0 /home/vladimir/Documentos/SOFTWARE/arduino/BluePill/primeros_ejemplos/Blink/build/core/core.a(gpio.c.o)
 .text          0x0000000000000000        0x0 /home/vladimir/Documentos/SOFTWARE/arduino/BluePill/primeros_ejemplos/Blink/build/core/core.a(i2c.c.o)
 .data          0x0000000000000000        0x0 /home/vladimir/Documentos/SOFTWARE/arduino/BluePill/primeros_ejemplos/Blink/build/core/core.a(i2c.c.o)
 .bss           0x0000000000000000        0x0 /home/vladimir/Documentos/SOFTWARE/arduino/BluePill/primeros_ejemplos/Blink/build/core/core.a(i2c.c.o)
 .text.delay_us.part.0.constprop.6
                0x0000000000000000        0xa /home/vladimir/Documentos/SOFTWARE/arduino/BluePill/primeros_ejemplos/Blink/build/core/core.a(i2c.c.o)
 .text.i2c_bus_reset
                0x0000000000000000       0xb2 /home/vladimir/Documentos/SOFTWARE/arduino/BluePill/primeros_ejemplos/Blink/build/core/core.a(i2c.c.o)
 .text.i2c_init
                0x0000000000000000       0x18 /home/vladimir/Documentos/SOFTWARE/arduino/BluePill/primeros_ejemplos/Blink/build/core/core.a(i2c.c.o)
 .text.i2c_master_enable
                0x0000000000000000       0xe0 /home/vladimir/Documentos/SOFTWARE/arduino/BluePill/primeros_ejemplos/Blink/build/core/core.a(i2c.c.o)
 .text.i2c_master_xfer
                0x0000000000000000       0x5c /home/vladimir/Documentos/SOFTWARE/arduino/BluePill/primeros_ejemplos/Blink/build/core/core.a(i2c.c.o)
 .text          0x0000000000000000        0x0 /home/vladimir/Documentos/SOFTWARE/arduino/BluePill/primeros_ejemplos/Blink/build/core/core.a(usart.c.o)
 .data          0x0000000000000000        0x0 /home/vladimir/Documentos/SOFTWARE/arduino/BluePill/primeros_ejemplos/Blink/build/core/core.a(usart.c.o)
 .bss           0x0000000000000000        0x0 /home/vladimir/Documentos/SOFTWARE/arduino/BluePill/primeros_ejemplos/Blink/build/core/core.a(usart.c.o)
 .text.usart_init
                0x0000000000000000       0x4c /home/vladimir/Documentos/SOFTWARE/arduino/BluePill/primeros_ejemplos/Blink/build/core/core.a(usart.c.o)
 .text.usart_enable
                0x0000000000000000       0x14 /home/vladimir/Documentos/SOFTWARE/arduino/BluePill/primeros_ejemplos/Blink/build/core/core.a(usart.c.o)
 .text.usart_disable
                0x0000000000000000       0x38 /home/vladimir/Documentos/SOFTWARE/arduino/BluePill/primeros_ejemplos/Blink/build/core/core.a(usart.c.o)
 .text.usart_rx
                0x0000000000000000       0x58 /home/vladimir/Documentos/SOFTWARE/arduino/BluePill/primeros_ejemplos/Blink/build/core/core.a(usart.c.o)
 .text.usart_putudec
                0x0000000000000000       0x44 /home/vladimir/Documentos/SOFTWARE/arduino/BluePill/primeros_ejemplos/Blink/build/core/core.a(usart.c.o)
 .text          0x0000000000000000      0x370 /home/vladimir/.arduino15/packages/arduino/tools/arm-none-eabi-gcc/4.8.3-2014q1/bin/../lib/gcc/arm-none-eabi/4.8.3/armv7-m/libgcc.a(_arm_addsubdf3.o)
 .data          0x0000000000000000        0x0 /home/vladimir/.arduino15/packages/arduino/tools/arm-none-eabi-gcc/4.8.3-2014q1/bin/../lib/gcc/arm-none-eabi/4.8.3/armv7-m/libgcc.a(_arm_addsubdf3.o)
 .bss           0x0000000000000000        0x0 /home/vladimir/.arduino15/packages/arduino/tools/arm-none-eabi-gcc/4.8.3-2014q1/bin/../lib/gcc/arm-none-eabi/4.8.3/armv7-m/libgcc.a(_arm_addsubdf3.o)
 .text          0x0000000000000000      0x424 /home/vladimir/.arduino15/packages/arduino/tools/arm-none-eabi-gcc/4.8.3-2014q1/bin/../lib/gcc/arm-none-eabi/4.8.3/armv7-m/libgcc.a(_arm_muldivdf3.o)
 .data          0x0000000000000000        0x0 /home/vladimir/.arduino15/packages/arduino/tools/arm-none-eabi-gcc/4.8.3-2014q1/bin/../lib/gcc/arm-none-eabi/4.8.3/armv7-m/libgcc.a(_arm_muldivdf3.o)
 .bss           0x0000000000000000        0x0 /home/vladimir/.arduino15/packages/arduino/tools/arm-none-eabi-gcc/4.8.3-2014q1/bin/../lib/gcc/arm-none-eabi/4.8.3/armv7-m/libgcc.a(_arm_muldivdf3.o)
 .text          0x0000000000000000      0x110 /home/vladimir/.arduino15/packages/arduino/tools/arm-none-eabi-gcc/4.8.3-2014q1/bin/../lib/gcc/arm-none-eabi/4.8.3/armv7-m/libgcc.a(_arm_cmpdf2.o)
 .data          0x0000000000000000        0x0 /home/vladimir/.arduino15/packages/arduino/tools/arm-none-eabi-gcc/4.8.3-2014q1/bin/../lib/gcc/arm-none-eabi/4.8.3/armv7-m/libgcc.a(_arm_cmpdf2.o)
 .bss           0x0000000000000000        0x0 /home/vladimir/.arduino15/packages/arduino/tools/arm-none-eabi-gcc/4.8.3-2014q1/bin/../lib/gcc/arm-none-eabi/4.8.3/armv7-m/libgcc.a(_arm_cmpdf2.o)
 .text          0x0000000000000000       0x50 /home/vladimir/.arduino15/packages/arduino/tools/arm-none-eabi-gcc/4.8.3-2014q1/bin/../lib/gcc/arm-none-eabi/4.8.3/armv7-m/libgcc.a(_arm_fixdfsi.o)
 .data          0x0000000000000000        0x0 /home/vladimir/.arduino15/packages/arduino/tools/arm-none-eabi-gcc/4.8.3-2014q1/bin/../lib/gcc/arm-none-eabi/4.8.3/armv7-m/libgcc.a(_arm_fixdfsi.o)
 .bss           0x0000000000000000        0x0 /home/vladimir/.arduino15/packages/arduino/tools/arm-none-eabi-gcc/4.8.3-2014q1/bin/../lib/gcc/arm-none-eabi/4.8.3/armv7-m/libgcc.a(_arm_fixdfsi.o)
 .text          0x0000000000000000       0x2c /home/vladimir/.arduino15/packages/arduino/tools/arm-none-eabi-gcc/4.8.3-2014q1/bin/../lib/gcc/arm-none-eabi/4.8.3/armv7-m/libgcc.a(_aeabi_uldivmod.o)
 .data          0x0000000000000000        0x0 /home/vladimir/.arduino15/packages/arduino/tools/arm-none-eabi-gcc/4.8.3-2014q1/bin/../lib/gcc/arm-none-eabi/4.8.3/armv7-m/libgcc.a(_aeabi_uldivmod.o)
 .bss           0x0000000000000000        0x0 /home/vladimir/.arduino15/packages/arduino/tools/arm-none-eabi-gcc/4.8.3-2014q1/bin/../lib/gcc/arm-none-eabi/4.8.3/armv7-m/libgcc.a(_aeabi_uldivmod.o)
 .text          0x0000000000000000       0x30 /home/vladimir/.arduino15/packages/arduino/tools/arm-none-eabi-gcc/4.8.3-2014q1/bin/../lib/gcc/arm-none-eabi/4.8.3/armv7-m/libgcc.a(_fixdfdi.o)
 .data          0x0000000000000000        0x0 /home/vladimir/.arduino15/packages/arduino/tools/arm-none-eabi-gcc/4.8.3-2014q1/bin/../lib/gcc/arm-none-eabi/4.8.3/armv7-m/libgcc.a(_fixdfdi.o)
 .bss           0x0000000000000000        0x0 /home/vladimir/.arduino15/packages/arduino/tools/arm-none-eabi-gcc/4.8.3-2014q1/bin/../lib/gcc/arm-none-eabi/4.8.3/armv7-m/libgcc.a(_fixdfdi.o)
 .text          0x0000000000000000       0x44 /home/vladimir/.arduino15/packages/arduino/tools/arm-none-eabi-gcc/4.8.3-2014q1/bin/../lib/gcc/arm-none-eabi/4.8.3/armv7-m/libgcc.a(_fixunsdfdi.o)
 .data          0x0000000000000000        0x0 /home/vladimir/.arduino15/packages/arduino/tools/arm-none-eabi-gcc/4.8.3-2014q1/bin/../lib/gcc/arm-none-eabi/4.8.3/armv7-m/libgcc.a(_fixunsdfdi.o)
 .bss           0x0000000000000000        0x0 /home/vladimir/.arduino15/packages/arduino/tools/arm-none-eabi-gcc/4.8.3-2014q1/bin/../lib/gcc/arm-none-eabi/4.8.3/armv7-m/libgcc.a(_fixunsdfdi.o)
 .text          0x0000000000000000       0x60 /home/vladimir/.arduino15/packages/arduino/tools/arm-none-eabi-gcc/4.8.3-2014q1/bin/../lib/gcc/arm-none-eabi/4.8.3/armv7-m/libgcc.a(bpabi.o)
 .data          0x0000000000000000        0x0 /home/vladimir/.arduino15/packages/arduino/tools/arm-none-eabi-gcc/4.8.3-2014q1/bin/../lib/gcc/arm-none-eabi/4.8.3/armv7-m/libgcc.a(bpabi.o)
 .bss           0x0000000000000000        0x0 /home/vladimir/.arduino15/packages/arduino/tools/arm-none-eabi-gcc/4.8.3-2014q1/bin/../lib/gcc/arm-none-eabi/4.8.3/armv7-m/libgcc.a(bpabi.o)
 .text          0x0000000000000000        0x4 /home/vladimir/.arduino15/packages/arduino/tools/arm-none-eabi-gcc/4.8.3-2014q1/bin/../lib/gcc/arm-none-eabi/4.8.3/armv7-m/libgcc.a(_dvmd_tls.o)
 .data          0x0000000000000000        0x0 /home/vladimir/.arduino15/packages/arduino/tools/arm-none-eabi-gcc/4.8.3-2014q1/bin/../lib/gcc/arm-none-eabi/4.8.3/armv7-m/libgcc.a(_dvmd_tls.o)
 .bss           0x0000000000000000        0x0 /home/vladimir/.arduino15/packages/arduino/tools/arm-none-eabi-gcc/4.8.3-2014q1/bin/../lib/gcc/arm-none-eabi/4.8.3/armv7-m/libgcc.a(_dvmd_tls.o)
 .text          0x0000000000000000       0x40 /home/vladimir/.arduino15/packages/arduino/tools/arm-none-eabi-gcc/4.8.3-2014q1/bin/../lib/gcc/arm-none-eabi/4.8.3/armv7-m/libgcc.a(_arm_fixunsdfsi.o)
 .data          0x0000000000000000        0x0 /home/vladimir/.arduino15/packages/arduino/tools/arm-none-eabi-gcc/4.8.3-2014q1/bin/../lib/gcc/arm-none-eabi/4.8.3/armv7-m/libgcc.a(_arm_fixunsdfsi.o)
 .bss           0x0000000000000000        0x0 /home/vladimir/.arduino15/packages/arduino/tools/arm-none-eabi-gcc/4.8.3-2014q1/bin/../lib/gcc/arm-none-eabi/4.8.3/armv7-m/libgcc.a(_arm_fixunsdfsi.o)
 .text          0x0000000000000000      0x2a0 /home/vladimir/.arduino15/packages/arduino/tools/arm-none-eabi-gcc/4.8.3-2014q1/bin/../lib/gcc/arm-none-eabi/4.8.3/armv7-m/libgcc.a(_divdi3.o)
 .data          0x0000000000000000        0x0 /home/vladimir/.arduino15/packages/arduino/tools/arm-none-eabi-gcc/4.8.3-2014q1/bin/../lib/gcc/arm-none-eabi/4.8.3/armv7-m/libgcc.a(_divdi3.o)
 .bss           0x0000000000000000        0x0 /home/vladimir/.arduino15/packages/arduino/tools/arm-none-eabi-gcc/4.8.3-2014q1/bin/../lib/gcc/arm-none-eabi/4.8.3/armv7-m/libgcc.a(_divdi3.o)
 .ARM.extab     0x0000000000000000        0x0 /home/vladimir/.arduino15/packages/arduino/tools/arm-none-eabi-gcc/4.8.3-2014q1/bin/../lib/gcc/arm-none-eabi/4.8.3/armv7-m/libgcc.a(_divdi3.o)
 .ARM.exidx     0x0000000000000000        0x8 /home/vladimir/.arduino15/packages/arduino/tools/arm-none-eabi-gcc/4.8.3-2014q1/bin/../lib/gcc/arm-none-eabi/4.8.3/armv7-m/libgcc.a(_divdi3.o)
 .text          0x0000000000000000      0x290 /home/vladimir/.arduino15/packages/arduino/tools/arm-none-eabi-gcc/4.8.3-2014q1/bin/../lib/gcc/arm-none-eabi/4.8.3/armv7-m/libgcc.a(_udivdi3.o)
 .data          0x0000000000000000        0x0 /home/vladimir/.arduino15/packages/arduino/tools/arm-none-eabi-gcc/4.8.3-2014q1/bin/../lib/gcc/arm-none-eabi/4.8.3/armv7-m/libgcc.a(_udivdi3.o)
 .bss           0x0000000000000000        0x0 /home/vladimir/.arduino15/packages/arduino/tools/arm-none-eabi-gcc/4.8.3-2014q1/bin/../lib/gcc/arm-none-eabi/4.8.3/armv7-m/libgcc.a(_udivdi3.o)
 .ARM.extab     0x0000000000000000        0x0 /home/vladimir/.arduino15/packages/arduino/tools/arm-none-eabi-gcc/4.8.3-2014q1/bin/../lib/gcc/arm-none-eabi/4.8.3/armv7-m/libgcc.a(_udivdi3.o)
 .ARM.exidx     0x0000000000000000        0x8 /home/vladimir/.arduino15/packages/arduino/tools/arm-none-eabi-gcc/4.8.3-2014q1/bin/../lib/gcc/arm-none-eabi/4.8.3/armv7-m/libgcc.a(_udivdi3.o)
 .text          0x0000000000000000        0x0 /home/vladimir/.arduino15/packages/arduino/tools/arm-none-eabi-gcc/4.8.3-2014q1/bin/../lib/gcc/arm-none-eabi/4.8.3/../../../../arm-none-eabi/lib/armv7-m/libc.a(lib_a-errno.o)
 .data          0x0000000000000000        0x0 /home/vladimir/.arduino15/packages/arduino/tools/arm-none-eabi-gcc/4.8.3-2014q1/bin/../lib/gcc/arm-none-eabi/4.8.3/../../../../arm-none-eabi/lib/armv7-m/libc.a(lib_a-errno.o)
 .bss           0x0000000000000000        0x0 /home/vladimir/.arduino15/packages/arduino/tools/arm-none-eabi-gcc/4.8.3-2014q1/bin/../lib/gcc/arm-none-eabi/4.8.3/../../../../arm-none-eabi/lib/armv7-m/libc.a(lib_a-errno.o)
 .text.__errno  0x0000000000000000        0xc /home/vladimir/.arduino15/packages/arduino/tools/arm-none-eabi-gcc/4.8.3-2014q1/bin/../lib/gcc/arm-none-eabi/4.8.3/../../../../arm-none-eabi/lib/armv7-m/libc.a(lib_a-errno.o)
 .text          0x0000000000000000        0x0 /home/vladimir/.arduino15/packages/arduino/tools/arm-none-eabi-gcc/4.8.3-2014q1/bin/../lib/gcc/arm-none-eabi/4.8.3/../../../../arm-none-eabi/lib/armv7-m/libc.a(lib_a-exit.o)
 .data          0x0000000000000000        0x0 /home/vladimir/.arduino15/packages/arduino/tools/arm-none-eabi-gcc/4.8.3-2014q1/bin/../lib/gcc/arm-none-eabi/4.8.3/../../../../arm-none-eabi/lib/armv7-m/libc.a(lib_a-exit.o)
 .bss           0x0000000000000000        0x0 /home/vladimir/.arduino15/packages/arduino/tools/arm-none-eabi-gcc/4.8.3-2014q1/bin/../lib/gcc/arm-none-eabi/4.8.3/../../../../arm-none-eabi/lib/armv7-m/libc.a(lib_a-exit.o)
 .text          0x0000000000000000        0x0 /home/vladimir/.arduino15/packages/arduino/tools/arm-none-eabi-gcc/4.8.3-2014q1/bin/../lib/gcc/arm-none-eabi/4.8.3/../../../../arm-none-eabi/lib/armv7-m/libc.a(lib_a-impure.o)
 .data          0x0000000000000000        0x0 /home/vladimir/.arduino15/packages/arduino/tools/arm-none-eabi-gcc/4.8.3-2014q1/bin/../lib/gcc/arm-none-eabi/4.8.3/../../../../arm-none-eabi/lib/armv7-m/libc.a(lib_a-impure.o)
 .bss           0x0000000000000000        0x0 /home/vladimir/.arduino15/packages/arduino/tools/arm-none-eabi-gcc/4.8.3-2014q1/bin/../lib/gcc/arm-none-eabi/4.8.3/../../../../arm-none-eabi/lib/armv7-m/libc.a(lib_a-impure.o)
 .data._impure_ptr
                0x0000000000000000        0x4 /home/vladimir/.arduino15/packages/arduino/tools/arm-none-eabi-gcc/4.8.3-2014q1/bin/../lib/gcc/arm-none-eabi/4.8.3/../../../../arm-none-eabi/lib/armv7-m/libc.a(lib_a-impure.o)
 .text          0x0000000000000000        0x0 /home/vladimir/.arduino15/packages/arduino/tools/arm-none-eabi-gcc/4.8.3-2014q1/bin/../lib/gcc/arm-none-eabi/4.8.3/../../../../arm-none-eabi/lib/armv7-m/libc.a(lib_a-init.o)
 .data          0x0000000000000000        0x0 /home/vladimir/.arduino15/packages/arduino/tools/arm-none-eabi-gcc/4.8.3-2014q1/bin/../lib/gcc/arm-none-eabi/4.8.3/../../../../arm-none-eabi/lib/armv7-m/libc.a(lib_a-init.o)
 .bss           0x0000000000000000        0x0 /home/vladimir/.arduino15/packages/arduino/tools/arm-none-eabi-gcc/4.8.3-2014q1/bin/../lib/gcc/arm-none-eabi/4.8.3/../../../../arm-none-eabi/lib/armv7-m/libc.a(lib_a-init.o)
 .text          0x0000000000000000        0x0 /home/vladimir/.arduino15/packages/arduino/tools/arm-none-eabi-gcc/4.8.3-2014q1/bin/../lib/gcc/arm-none-eabi/4.8.3/../../../../arm-none-eabi/lib/armv7-m/libc.a(lib_a-memset.o)
 .data          0x0000000000000000        0x0 /home/vladimir/.arduino15/packages/arduino/tools/arm-none-eabi-gcc/4.8.3-2014q1/bin/../lib/gcc/arm-none-eabi/4.8.3/../../../../arm-none-eabi/lib/armv7-m/libc.a(lib_a-memset.o)
 .bss           0x0000000000000000        0x0 /home/vladimir/.arduino15/packages/arduino/tools/arm-none-eabi-gcc/4.8.3-2014q1/bin/../lib/gcc/arm-none-eabi/4.8.3/../../../../arm-none-eabi/lib/armv7-m/libc.a(lib_a-memset.o)
 .text.memset   0x0000000000000000       0x94 /home/vladimir/.arduino15/packages/arduino/tools/arm-none-eabi-gcc/4.8.3-2014q1/bin/../lib/gcc/arm-none-eabi/4.8.3/../../../../arm-none-eabi/lib/armv7-m/libc.a(lib_a-memset.o)
 .text          0x0000000000000000        0x0 /home/vladimir/.arduino15/packages/arduino/tools/arm-none-eabi-gcc/4.8.3-2014q1/bin/../lib/gcc/arm-none-eabi/4.8.3/../../../../arm-none-eabi/lib/armv7-m/libc.a(lib_a-strlen.o)
 .data          0x0000000000000000        0x0 /home/vladimir/.arduino15/packages/arduino/tools/arm-none-eabi-gcc/4.8.3-2014q1/bin/../lib/gcc/arm-none-eabi/4.8.3/../../../../arm-none-eabi/lib/armv7-m/libc.a(lib_a-strlen.o)
 .bss           0x0000000000000000        0x0 /home/vladimir/.arduino15/packages/arduino/tools/arm-none-eabi-gcc/4.8.3-2014q1/bin/../lib/gcc/arm-none-eabi/4.8.3/../../../../arm-none-eabi/lib/armv7-m/libc.a(lib_a-strlen.o)
 .text          0x0000000000000000        0x0 /home/vladimir/.arduino15/packages/arduino/tools/arm-none-eabi-gcc/4.8.3-2014q1/bin/../lib/gcc/arm-none-eabi/4.8.3/../../../../arm-none-eabi/lib/armv7-m/libc.a(lib_a-__call_atexit.o)
 .data          0x0000000000000000        0x0 /home/vladimir/.arduino15/packages/arduino/tools/arm-none-eabi-gcc/4.8.3-2014q1/bin/../lib/gcc/arm-none-eabi/4.8.3/../../../../arm-none-eabi/lib/armv7-m/libc.a(lib_a-__call_atexit.o)
 .bss           0x0000000000000000        0x0 /home/vladimir/.arduino15/packages/arduino/tools/arm-none-eabi-gcc/4.8.3-2014q1/bin/../lib/gcc/arm-none-eabi/4.8.3/../../../../arm-none-eabi/lib/armv7-m/libc.a(lib_a-__call_atexit.o)
 .text          0x0000000000000000        0x0 /home/vladimir/.arduino15/packages/arduino/tools/arm-none-eabi-gcc/4.8.3-2014q1/bin/../lib/gcc/arm-none-eabi/4.8.3/../../../../arm-none-eabi/lib/armv7-m/libc.a(lib_a-atexit.o)
 .data          0x0000000000000000        0x0 /home/vladimir/.arduino15/packages/arduino/tools/arm-none-eabi-gcc/4.8.3-2014q1/bin/../lib/gcc/arm-none-eabi/4.8.3/../../../../arm-none-eabi/lib/armv7-m/libc.a(lib_a-atexit.o)
 .bss           0x0000000000000000        0x0 /home/vladimir/.arduino15/packages/arduino/tools/arm-none-eabi-gcc/4.8.3-2014q1/bin/../lib/gcc/arm-none-eabi/4.8.3/../../../../arm-none-eabi/lib/armv7-m/libc.a(lib_a-atexit.o)
 .text          0x0000000000000000        0x0 /home/vladimir/.arduino15/packages/arduino/tools/arm-none-eabi-gcc/4.8.3-2014q1/bin/../lib/gcc/arm-none-eabi/4.8.3/../../../../arm-none-eabi/lib/armv7-m/libc.a(lib_a-fini.o)
 .data          0x0000000000000000        0x0 /home/vladimir/.arduino15/packages/arduino/tools/arm-none-eabi-gcc/4.8.3-2014q1/bin/../lib/gcc/arm-none-eabi/4.8.3/../../../../arm-none-eabi/lib/armv7-m/libc.a(lib_a-fini.o)
 .bss           0x0000000000000000        0x0 /home/vladimir/.arduino15/packages/arduino/tools/arm-none-eabi-gcc/4.8.3-2014q1/bin/../lib/gcc/arm-none-eabi/4.8.3/../../../../arm-none-eabi/lib/armv7-m/libc.a(lib_a-fini.o)
 .text          0x0000000000000000        0x0 /home/vladimir/.arduino15/packages/arduino/tools/arm-none-eabi-gcc/4.8.3-2014q1/bin/../lib/gcc/arm-none-eabi/4.8.3/../../../../arm-none-eabi/lib/armv7-m/libc.a(lib_a-__atexit.o)
 .data          0x0000000000000000        0x0 /home/vladimir/.arduino15/packages/arduino/tools/arm-none-eabi-gcc/4.8.3-2014q1/bin/../lib/gcc/arm-none-eabi/4.8.3/../../../../arm-none-eabi/lib/armv7-m/libc.a(lib_a-__atexit.o)
 .bss           0x0000000000000000        0x0 /home/vladimir/.arduino15/packages/arduino/tools/arm-none-eabi-gcc/4.8.3-2014q1/bin/../lib/gcc/arm-none-eabi/4.8.3/../../../../arm-none-eabi/lib/armv7-m/libc.a(lib_a-__atexit.o)
 .text          0x0000000000000000        0x0 /home/vladimir/.arduino15/packages/arduino/tools/arm-none-eabi-gcc/4.8.3-2014q1/bin/../lib/gcc/arm-none-eabi/4.8.3/armv7-m/crtend.o
 .data          0x0000000000000000        0x0 /home/vladimir/.arduino15/packages/arduino/tools/arm-none-eabi-gcc/4.8.3-2014q1/bin/../lib/gcc/arm-none-eabi/4.8.3/armv7-m/crtend.o
 .bss           0x0000000000000000        0x0 /home/vladimir/.arduino15/packages/arduino/tools/arm-none-eabi-gcc/4.8.3-2014q1/bin/../lib/gcc/arm-none-eabi/4.8.3/armv7-m/crtend.o
 .eh_frame      0x0000000000000000        0x4 /home/vladimir/.arduino15/packages/arduino/tools/arm-none-eabi-gcc/4.8.3-2014q1/bin/../lib/gcc/arm-none-eabi/4.8.3/armv7-m/crtend.o
 .jcr           0x0000000000000000        0x4 /home/vladimir/.arduino15/packages/arduino/tools/arm-none-eabi-gcc/4.8.3-2014q1/bin/../lib/gcc/arm-none-eabi/4.8.3/armv7-m/crtend.o
 .text          0x0000000000000000        0x0 /home/vladimir/.arduino15/packages/arduino/tools/arm-none-eabi-gcc/4.8.3-2014q1/bin/../lib/gcc/arm-none-eabi/4.8.3/armv7-m/crtn.o
 .data          0x0000000000000000        0x0 /home/vladimir/.arduino15/packages/arduino/tools/arm-none-eabi-gcc/4.8.3-2014q1/bin/../lib/gcc/arm-none-eabi/4.8.3/armv7-m/crtn.o
 .bss           0x0000000000000000        0x0 /home/vladimir/.arduino15/packages/arduino/tools/arm-none-eabi-gcc/4.8.3-2014q1/bin/../lib/gcc/arm-none-eabi/4.8.3/armv7-m/crtn.o

Memory Configuration

Name             Origin             Length             Attributes
ram              0x0000000020000000 0x0000000000005000 xrw
rom              0x0000000008000000 0x0000000000020000 xr
*default*        0x0000000000000000 0xffffffffffffffff

Linker script and memory map

LOAD /home/vladimir/.arduino15/packages/arduino/tools/arm-none-eabi-gcc/4.8.3-2014q1/bin/../lib/gcc/arm-none-eabi/4.8.3/armv7-m/crti.o
LOAD /home/vladimir/.arduino15/packages/arduino/tools/arm-none-eabi-gcc/4.8.3-2014q1/bin/../lib/gcc/arm-none-eabi/4.8.3/armv7-m/crtbegin.o
LOAD /home/vladimir/.arduino15/packages/arduino/tools/arm-none-eabi-gcc/4.8.3-2014q1/bin/../lib/gcc/arm-none-eabi/4.8.3/../../../../arm-none-eabi/lib/armv7-m/crt0.o
LOAD /home/vladimir/.arduino15/packages/arduino/tools/arm-none-eabi-gcc/4.8.3-2014q1/bin/../lib/gcc/arm-none-eabi/4.8.3/armv7-m/libgcc.a
START GROUP
LOAD /home/vladimir/Documentos/SOFTWARE/arduino/BluePill/primeros_ejemplos/Blink/build/sketch/Blink.ino.cpp.o
LOAD /home/vladimir/Documentos/SOFTWARE/arduino/BluePill/primeros_ejemplos/Blink/build/core/wirish/start.S.o
LOAD /home/vladimir/Documentos/SOFTWARE/arduino/BluePill/primeros_ejemplos/Blink/build/core/wirish/start_c.c.o
LOAD /home/vladimir/Documentos/SOFTWARE/arduino/BluePill/primeros_ejemplos/Blink/build/core/wirish/syscalls.c.o
LOAD /home/vladimir/Documentos/SOFTWARE/arduino/BluePill/primeros_ejemplos/Blink/build/core/board.cpp.o
LOAD /home/vladimir/Documentos/SOFTWARE/arduino/BluePill/primeros_ejemplos/Blink/build/core/wirish/boards.cpp.o
LOAD /home/vladimir/Documentos/SOFTWARE/arduino/BluePill/primeros_ejemplos/Blink/build/core/wirish/boards_setup.cpp.o
LOAD /home/vladimir/Documentos/SOFTWARE/arduino/BluePill/primeros_ejemplos/Blink/build/core/core.a
END GROUP
LOAD /home/vladimir/.arduino15/packages/arduino/tools/arm-none-eabi-gcc/4.8.3-2014q1/bin/../lib/gcc/arm-none-eabi/4.8.3/../../../../arm-none-eabi/lib/armv7-m/libstdc++.a
LOAD /home/vladimir/.arduino15/packages/arduino/tools/arm-none-eabi-gcc/4.8.3-2014q1/bin/../lib/gcc/arm-none-eabi/4.8.3/../../../../arm-none-eabi/lib/armv7-m/libm.a
START GROUP
LOAD /home/vladimir/.arduino15/packages/arduino/tools/arm-none-eabi-gcc/4.8.3-2014q1/bin/../lib/gcc/arm-none-eabi/4.8.3/armv7-m/libgcc.a
LOAD /home/vladimir/.arduino15/packages/arduino/tools/arm-none-eabi-gcc/4.8.3-2014q1/bin/../lib/gcc/arm-none-eabi/4.8.3/../../../../arm-none-eabi/lib/armv7-m/libc.a
END GROUP
LOAD /home/vladimir/.arduino15/packages/arduino/tools/arm-none-eabi-gcc/4.8.3-2014q1/bin/../lib/gcc/arm-none-eabi/4.8.3/armv7-m/crtend.o
LOAD /home/vladimir/.arduino15/packages/arduino/tools/arm-none-eabi-gcc/4.8.3-2014q1/bin/../lib/gcc/arm-none-eabi/4.8.3/armv7-m/crtn.o
START GROUP
LOAD /home/vladimir/.arduino15/packages/arduino/tools/arm-none-eabi-gcc/4.8.3-2014q1/bin/../lib/gcc/arm-none-eabi/4.8.3/armv7-m/libgcc.a
LOAD /home/vladimir/.arduino15/packages/arduino/tools/arm-none-eabi-gcc/4.8.3-2014q1/bin/../lib/gcc/arm-none-eabi/4.8.3/../../../../arm-none-eabi/lib/armv7-m/libc.a
LOAD /home/vladimir/.arduino15/packages/arduino/tools/arm-none-eabi-gcc/4.8.3-2014q1/bin/../lib/gcc/arm-none-eabi/4.8.3/../../../../arm-none-eabi/lib/armv7-m/libm.a
END GROUP
START GROUP
LOAD /home/vladimir/.arduino15/packages/arduino/tools/arm-none-eabi-gcc/4.8.3-2014q1/bin/../lib/gcc/arm-none-eabi/4.8.3/../../../../arm-none-eabi/lib/armv7-m/libnosys.a
END GROUP
                0x0000000020005000                PROVIDE (__msp_init, (ORIGIN (ram) + 0x5000))
                0x000000000800016c                PROVIDE (__exc_reset, __start__)

.text           0x0000000008000000     0x2c08
                0x0000000008000000                __text_start__ = .
 *(.stm32.interrupt_vector)
 .stm32.interrupt_vector
                0x0000000008000000       0xec /home/vladimir/Documentos/SOFTWARE/arduino/BluePill/primeros_ejemplos/Blink/build/core/core.a(vector_table.S.o)
                0x0000000008000000                __stm32_vector_table
 *(.text .text.* .gnu.linkonce.t.*)
 .text          0x00000000080000ec       0x54 /home/vladimir/.arduino15/packages/arduino/tools/arm-none-eabi-gcc/4.8.3-2014q1/bin/../lib/gcc/arm-none-eabi/4.8.3/armv7-m/crtbegin.o
 .text._Z5setupv
                0x0000000008000140        0x8 /home/vladimir/Documentos/SOFTWARE/arduino/BluePill/primeros_ejemplos/Blink/build/sketch/Blink.ino.cpp.o
                0x0000000008000140                setup()
 .text._Z4loopv
                0x0000000008000148       0x22 /home/vladimir/Documentos/SOFTWARE/arduino/BluePill/primeros_ejemplos/Blink/build/sketch/Blink.ino.cpp.o
                0x0000000008000148                loop()
 *fill*         0x000000000800016a        0x2 
 .text          0x000000000800016c       0x10 /home/vladimir/Documentos/SOFTWARE/arduino/BluePill/primeros_ejemplos/Blink/build/core/wirish/start.S.o
                0x000000000800016c                __start__
 .text.start_c  0x000000000800017c       0x64 /home/vladimir/Documentos/SOFTWARE/arduino/BluePill/primeros_ejemplos/Blink/build/core/wirish/start_c.c.o
                0x000000000800017c                start_c
 .text._exit    0x00000000080001e0        0x2 /home/vladimir/Documentos/SOFTWARE/arduino/BluePill/primeros_ejemplos/Blink/build/core/wirish/syscalls.c.o
                0x00000000080001e0                _exit
 .text._Z9boardInitv
                0x00000000080001e2        0x2 /home/vladimir/Documentos/SOFTWARE/arduino/BluePill/primeros_ejemplos/Blink/build/core/board.cpp.o
                0x00000000080001e2                boardInit()
 .text.startup._GLOBAL__sub_I__Z9boardInitv
                0x00000000080001e4       0x48 /home/vladimir/Documentos/SOFTWARE/arduino/BluePill/primeros_ejemplos/Blink/build/core/board.cpp.o
 .text._ZL18adc_default_configP7adc_dev
                0x000000000800022c       0x1c /home/vladimir/Documentos/SOFTWARE/arduino/BluePill/primeros_ejemplos/Blink/build/core/wirish/boards.cpp.o
 .text._ZL20timer_default_configP9timer_dev
                0x0000000008000248       0x9e /home/vladimir/Documentos/SOFTWARE/arduino/BluePill/primeros_ejemplos/Blink/build/core/wirish/boards.cpp.o
 *fill*         0x00000000080002e6        0x2 
 .text._Z4initv
                0x00000000080002e8       0xbc /home/vladimir/Documentos/SOFTWARE/arduino/BluePill/primeros_ejemplos/Blink/build/core/wirish/boards.cpp.o
                0x00000000080002e8                init()
 .text._ZN6wirish4priv15board_reset_pllEv
                0x00000000080003a4        0x2 /home/vladimir/Documentos/SOFTWARE/arduino/BluePill/primeros_ejemplos/Blink/build/core/wirish/boards_setup.cpp.o
                0x00000000080003a4                wirish::priv::board_reset_pll()
 .text._ZN6wirish4priv28board_setup_clock_prescalersEv
                0x00000000080003a6       0x2e /home/vladimir/Documentos/SOFTWARE/arduino/BluePill/primeros_ejemplos/Blink/build/core/wirish/boards_setup.cpp.o
                0x00000000080003a6                wirish::priv::board_setup_clock_prescalers()
 .text._ZN6wirish4priv16board_setup_gpioEv
                0x00000000080003d4        0x4 /home/vladimir/Documentos/SOFTWARE/arduino/BluePill/primeros_ejemplos/Blink/build/core/wirish/boards_setup.cpp.o
                0x00000000080003d4                wirish::priv::board_setup_gpio()
 .text._ZN6wirish4priv15board_setup_usbEv
                0x00000000080003d8       0x54 /home/vladimir/Documentos/SOFTWARE/arduino/BluePill/primeros_ejemplos/Blink/build/core/wirish/boards_setup.cpp.o
                0x00000000080003d8                wirish::priv::board_setup_usb()
 .text._ZN6wirish4priv11series_initEv
                0x000000000800042c        0x4 /home/vladimir/Documentos/SOFTWARE/arduino/BluePill/primeros_ejemplos/Blink/build/core/wirish/boards_setup.cpp.o
                0x000000000800042c                wirish::priv::series_init()
 .text          0x0000000008000430       0x60 /home/vladimir/Documentos/SOFTWARE/arduino/BluePill/primeros_ejemplos/Blink/build/core/core.a(exc.S.o)
                0x0000000008000430                __exc_nmi
                0x0000000008000434                __exc_hardfault
                0x0000000008000438                __exc_memmanage
                0x000000000800043c                __exc_busfault
                0x0000000008000440                __exc_usagefault
 .text          0x0000000008000490        0x2 /home/vladimir/Documentos/SOFTWARE/arduino/BluePill/primeros_ejemplos/Blink/build/core/core.a(isrs.S.o)
                0x0000000008000490                __stm32reservedexception9
                0x0000000008000490                __exc_debug_monitor
                0x0000000008000490                __exc_svc
                0x0000000008000490                __irq_can_rx1
                0x0000000008000490                __irq_spi2
                0x0000000008000490                __irq_can_sce
                0x0000000008000490                __irq_pvd
                0x0000000008000490                __irq_tamper
                0x0000000008000490                __default_handler
                0x0000000008000490                __irq_wwdg
                0x0000000008000490                __stm32reservedexception10
                0x0000000008000490                __irq_flash
                0x0000000008000490                __stm32reservedexception13
                0x0000000008000490                __irq_rtc
                0x0000000008000490                __irq_spi1
                0x0000000008000490                __stm32reservedexception7
                0x0000000008000490                __irq_usb_hp_can_tx
                0x0000000008000490                __irq_rtcalarm
                0x0000000008000490                __stm32reservedexception8
                0x0000000008000490                __exc_pendsv
                0x0000000008000490                __irq_usbwakeup
                0x0000000008000490                __irq_rcc
 .text.adc_init
                0x0000000008000492       0x14 /home/vladimir/Documentos/SOFTWARE/arduino/BluePill/primeros_ejemplos/Blink/build/core/core.a(adc.c.o)
                0x0000000008000492                adc_init
 .text.adc_set_extsel
                0x00000000080004a6       0x12 /home/vladimir/Documentos/SOFTWARE/arduino/BluePill/primeros_ejemplos/Blink/build/core/core.a(adc.c.o)
                0x00000000080004a6                adc_set_extsel
 .text.adc_set_sample_rate
                0x00000000080004b8       0x30 /home/vladimir/Documentos/SOFTWARE/arduino/BluePill/primeros_ejemplos/Blink/build/core/core.a(adc.c.o)
                0x00000000080004b8                adc_set_sample_rate
 .text.__irq_adc
                0x00000000080004e8       0x50 /home/vladimir/Documentos/SOFTWARE/arduino/BluePill/primeros_ejemplos/Blink/build/core/core.a(adc_f1.c.o)
                0x00000000080004e8                __irq_adc
 .text.adc_calibrate
                0x0000000008000538       0x24 /home/vladimir/Documentos/SOFTWARE/arduino/BluePill/primeros_ejemplos/Blink/build/core/core.a(adc_f1.c.o)
                0x0000000008000538                adc_calibrate
 .text.adc_set_prescaler
                0x000000000800055c        0x8 /home/vladimir/Documentos/SOFTWARE/arduino/BluePill/primeros_ejemplos/Blink/build/core/core.a(adc_f1.c.o)
                0x000000000800055c                adc_set_prescaler
 .text.adc_foreach
                0x0000000008000564       0x1c /home/vladimir/Documentos/SOFTWARE/arduino/BluePill/primeros_ejemplos/Blink/build/core/core.a(adc_f1.c.o)
                0x0000000008000564                adc_foreach
 .text.adc_enable_single_swstart
                0x0000000008000580       0x36 /home/vladimir/Documentos/SOFTWARE/arduino/BluePill/primeros_ejemplos/Blink/build/core/core.a(adc_f1.c.o)
                0x0000000008000580                adc_enable_single_swstart
 *fill*         0x00000000080005b6        0x2 
 .text.__irq_dma1_channel1
                0x00000000080005b8       0x18 /home/vladimir/Documentos/SOFTWARE/arduino/BluePill/primeros_ejemplos/Blink/build/core/core.a(dma_f1.c.o)
                0x00000000080005b8                __irq_dma1_channel1
 .text.__irq_dma1_channel2
                0x00000000080005d0       0x18 /home/vladimir/Documentos/SOFTWARE/arduino/BluePill/primeros_ejemplos/Blink/build/core/core.a(dma_f1.c.o)
                0x00000000080005d0                __irq_dma1_channel2
 .text.__irq_dma1_channel3
                0x00000000080005e8       0x1c /home/vladimir/Documentos/SOFTWARE/arduino/BluePill/primeros_ejemplos/Blink/build/core/core.a(dma_f1.c.o)
                0x00000000080005e8                __irq_dma1_channel3
 .text.__irq_dma1_channel4
                0x0000000008000604       0x1c /home/vladimir/Documentos/SOFTWARE/arduino/BluePill/primeros_ejemplos/Blink/build/core/core.a(dma_f1.c.o)
                0x0000000008000604                __irq_dma1_channel4
 .text.__irq_dma1_channel5
                0x0000000008000620       0x1c /home/vladimir/Documentos/SOFTWARE/arduino/BluePill/primeros_ejemplos/Blink/build/core/core.a(dma_f1.c.o)
                0x0000000008000620                __irq_dma1_channel5
 .text.__irq_dma1_channel6
                0x000000000800063c       0x1c /home/vladimir/Documentos/SOFTWARE/arduino/BluePill/primeros_ejemplos/Blink/build/core/core.a(dma_f1.c.o)
                0x000000000800063c                __irq_dma1_channel6
 .text.__irq_dma1_channel7
                0x0000000008000658       0x1c /home/vladimir/Documentos/SOFTWARE/arduino/BluePill/primeros_ejemplos/Blink/build/core/core.a(dma_f1.c.o)
                0x0000000008000658                __irq_dma1_channel7
 .text.__irq_exti0
                0x0000000008000674       0x20 /home/vladimir/Documentos/SOFTWARE/arduino/BluePill/primeros_ejemplos/Blink/build/core/core.a(exti.c.o)
                0x0000000008000674                __irq_exti0
 .text.__irq_exti1
                0x0000000008000694       0x20 /home/vladimir/Documentos/SOFTWARE/arduino/BluePill/primeros_ejemplos/Blink/build/core/core.a(exti.c.o)
                0x0000000008000694                __irq_exti1
 .text.__irq_exti2
                0x00000000080006b4       0x20 /home/vladimir/Documentos/SOFTWARE/arduino/BluePill/primeros_ejemplos/Blink/build/core/core.a(exti.c.o)
                0x00000000080006b4                __irq_exti2
 .text.__irq_exti3
                0x00000000080006d4       0x20 /home/vladimir/Documentos/SOFTWARE/arduino/BluePill/primeros_ejemplos/Blink/build/core/core.a(exti.c.o)
                0x00000000080006d4                __irq_exti3
 .text.__irq_exti4
                0x00000000080006f4       0x20 /home/vladimir/Documentos/SOFTWARE/arduino/BluePill/primeros_ejemplos/Blink/build/core/core.a(exti.c.o)
                0x00000000080006f4                __irq_exti4
 .text.__irq_exti9_5
                0x0000000008000714       0x44 /home/vladimir/Documentos/SOFTWARE/arduino/BluePill/primeros_ejemplos/Blink/build/core/core.a(exti.c.o)
                0x0000000008000714                __irq_exti9_5
 .text.__irq_exti15_10
                0x0000000008000758       0x44 /home/vladimir/Documentos/SOFTWARE/arduino/BluePill/primeros_ejemplos/Blink/build/core/core.a(exti.c.o)
                0x0000000008000758                __irq_exti15_10
 .text.flash_set_latency
                0x000000000800079c       0x14 /home/vladimir/Documentos/SOFTWARE/arduino/BluePill/primeros_ejemplos/Blink/build/core/core.a(flash.c.o)
                0x000000000800079c                flash_set_latency
 .text.gpio_init_all
                0x00000000080007b0       0x30 /home/vladimir/Documentos/SOFTWARE/arduino/BluePill/primeros_ejemplos/Blink/build/core/core.a(gpio_f1.c.o)
                0x00000000080007b0                gpio_init_all
 .text.gpio_set_mode
                0x00000000080007e0       0x50 /home/vladimir/Documentos/SOFTWARE/arduino/BluePill/primeros_ejemplos/Blink/build/core/core.a(gpio_f1.c.o)
                0x00000000080007e0                gpio_set_mode
 .text.afio_init
                0x0000000008000830       0x12 /home/vladimir/Documentos/SOFTWARE/arduino/BluePill/primeros_ejemplos/Blink/build/core/core.a(gpio_f1.c.o)
                0x0000000008000830                afio_init
 *fill*         0x0000000008000842        0x2 
 .text.__irq_i2c1_ev
                0x0000000008000844        0xc /home/vladimir/Documentos/SOFTWARE/arduino/BluePill/primeros_ejemplos/Blink/build/core/core.a(i2c_f1.c.o)
                0x0000000008000844                __irq_i2c1_ev
 .text.__irq_i2c2_ev
                0x0000000008000850        0xc /home/vladimir/Documentos/SOFTWARE/arduino/BluePill/primeros_ejemplos/Blink/build/core/core.a(i2c_f1.c.o)
                0x0000000008000850                __irq_i2c2_ev
 .text.__irq_i2c1_er
                0x000000000800085c        0xc /home/vladimir/Documentos/SOFTWARE/arduino/BluePill/primeros_ejemplos/Blink/build/core/core.a(i2c_f1.c.o)
                0x000000000800085c                __irq_i2c1_er
 .text.__irq_i2c2_er
                0x0000000008000868        0xc /home/vladimir/Documentos/SOFTWARE/arduino/BluePill/primeros_ejemplos/Blink/build/core/core.a(i2c_f1.c.o)
                0x0000000008000868                __irq_i2c2_er
 .text._i2c_irq_priority_fixup
                0x0000000008000874       0x1c /home/vladimir/Documentos/SOFTWARE/arduino/BluePill/primeros_ejemplos/Blink/build/core/core.a(i2c_f1.c.o)
                0x0000000008000874                _i2c_irq_priority_fixup
 .text.nvic_irq_set_priority
                0x0000000008000890       0x28 /home/vladimir/Documentos/SOFTWARE/arduino/BluePill/primeros_ejemplos/Blink/build/core/core.a(nvic.c.o)
                0x0000000008000890                nvic_irq_set_priority
 .text.nvic_init
                0x00000000080008b8       0x30 /home/vladimir/Documentos/SOFTWARE/arduino/BluePill/primeros_ejemplos/Blink/build/core/core.a(nvic.c.o)
                0x00000000080008b8                nvic_init
 .text.nvic_sys_reset
                0x00000000080008e8       0x1c /home/vladimir/Documentos/SOFTWARE/arduino/BluePill/primeros_ejemplos/Blink/build/core/core.a(nvic.c.o)
                0x00000000080008e8                nvic_sys_reset
 .text.rcc_dev_clk
                0x0000000008000904        0xc /home/vladimir/Documentos/SOFTWARE/arduino/BluePill/primeros_ejemplos/Blink/build/core/core.a(rcc.c.o)
                0x0000000008000904                rcc_dev_clk
 .text.rcc_switch_sysclk
                0x0000000008000910       0x20 /home/vladimir/Documentos/SOFTWARE/arduino/BluePill/primeros_ejemplos/Blink/build/core/core.a(rcc.c.o)
                0x0000000008000910                rcc_switch_sysclk
 .text.rcc_turn_on_clk
                0x0000000008000930       0x1a /home/vladimir/Documentos/SOFTWARE/arduino/BluePill/primeros_ejemplos/Blink/build/core/core.a(rcc.c.o)
                0x0000000008000930                rcc_turn_on_clk
 .text.rcc_turn_off_clk
                0x000000000800094a       0x1c /home/vladimir/Documentos/SOFTWARE/arduino/BluePill/primeros_ejemplos/Blink/build/core/core.a(rcc.c.o)
                0x000000000800094a                rcc_turn_off_clk
 .text.rcc_is_clk_ready
                0x0000000008000966       0x18 /home/vladimir/Documentos/SOFTWARE/arduino/BluePill/primeros_ejemplos/Blink/build/core/core.a(rcc.c.o)
                0x0000000008000966                rcc_is_clk_ready
 *fill*         0x000000000800097e        0x2 
 .text.rcc_configure_pll
                0x0000000008000980       0x18 /home/vladimir/Documentos/SOFTWARE/arduino/BluePill/primeros_ejemplos/Blink/build/core/core.a(rcc_f1.c.o)
                0x0000000008000980                rcc_configure_pll
 .text.rcc_clk_enable
                0x0000000008000998       0x30 /home/vladimir/Documentos/SOFTWARE/arduino/BluePill/primeros_ejemplos/Blink/build/core/core.a(rcc_f1.c.o)
                0x0000000008000998                rcc_clk_enable
 .text.rcc_reset_dev
                0x00000000080009c8       0x34 /home/vladimir/Documentos/SOFTWARE/arduino/BluePill/primeros_ejemplos/Blink/build/core/core.a(rcc_f1.c.o)
                0x00000000080009c8                rcc_reset_dev
 .text.rcc_set_prescaler
                0x00000000080009fc       0x20 /home/vladimir/Documentos/SOFTWARE/arduino/BluePill/primeros_ejemplos/Blink/build/core/core.a(rcc_f1.c.o)
                0x00000000080009fc                rcc_set_prescaler
 .text.rcc_clk_disable
                0x0000000008000a1c       0x30 /home/vladimir/Documentos/SOFTWARE/arduino/BluePill/primeros_ejemplos/Blink/build/core/core.a(rcc_f1.c.o)
                0x0000000008000a1c                rcc_clk_disable
 .text.systick_init
                0x0000000008000a4c       0x10 /home/vladimir/Documentos/SOFTWARE/arduino/BluePill/primeros_ejemplos/Blink/build/core/core.a(systick.c.o)
                0x0000000008000a4c                systick_init
 .text.__exc_systick
                0x0000000008000a5c       0x1c /home/vladimir/Documentos/SOFTWARE/arduino/BluePill/primeros_ejemplos/Blink/build/core/core.a(systick.c.o)
                0x0000000008000a5c                __exc_systick
 .text.timer_oc_set_mode
                0x0000000008000a78       0x3a /home/vladimir/Documentos/SOFTWARE/arduino/BluePill/primeros_ejemplos/Blink/build/core/core.a(timer.c.o)
 .text.timer_cc_enable
                0x0000000008000ab2       0x1c /home/vladimir/Documentos/SOFTWARE/arduino/BluePill/primeros_ejemplos/Blink/build/core/core.a(timer.c.o)
 *fill*         0x0000000008000ace        0x2 
 .text.timer_foreach
                0x0000000008000ad0       0x28 /home/vladimir/Documentos/SOFTWARE/arduino/BluePill/primeros_ejemplos/Blink/build/core/core.a(timer.c.o)
                0x0000000008000ad0                timer_foreach
 .text.timer_init
                0x0000000008000af8       0x14 /home/vladimir/Documentos/SOFTWARE/arduino/BluePill/primeros_ejemplos/Blink/build/core/core.a(timer.c.o)
                0x0000000008000af8                timer_init
 .text.timer_has_cc_channel
                0x0000000008000b0c       0x30 /home/vladimir/Documentos/SOFTWARE/arduino/BluePill/primeros_ejemplos/Blink/build/core/core.a(timer.c.o)
                0x0000000008000b0c                timer_has_cc_channel
 .text.timer_detach_interrupt
                0x0000000008000b3c       0x1e /home/vladimir/Documentos/SOFTWARE/arduino/BluePill/primeros_ejemplos/Blink/build/core/core.a(timer.c.o)
                0x0000000008000b3c                timer_detach_interrupt
 .text.input_capture_mode
                0x0000000008000b5a       0x1a /home/vladimir/Documentos/SOFTWARE/arduino/BluePill/primeros_ejemplos/Blink/build/core/core.a(timer.c.o)
                0x0000000008000b5a                input_capture_mode
 .text.timer_set_mode
                0x0000000008000b74       0x8c /home/vladimir/Documentos/SOFTWARE/arduino/BluePill/primeros_ejemplos/Blink/build/core/core.a(timer.c.o)
                0x0000000008000b74                timer_set_mode
 .text.__irq_tim1_brk
                0x0000000008000c00       0x24 /home/vladimir/Documentos/SOFTWARE/arduino/BluePill/primeros_ejemplos/Blink/build/core/core.a(timer.c.o)
                0x0000000008000c00                __irq_tim1_brk
 .text.__irq_tim1_up
                0x0000000008000c24       0x24 /home/vladimir/Documentos/SOFTWARE/arduino/BluePill/primeros_ejemplos/Blink/build/core/core.a(timer.c.o)
                0x0000000008000c24                __irq_tim1_up
 .text.__irq_tim1_trg_com
                0x0000000008000c48       0x38 /home/vladimir/Documentos/SOFTWARE/arduino/BluePill/primeros_ejemplos/Blink/build/core/core.a(timer.c.o)
                0x0000000008000c48                __irq_tim1_trg_com
 .text.__irq_tim1_cc
                0x0000000008000c80       0x54 /home/vladimir/Documentos/SOFTWARE/arduino/BluePill/primeros_ejemplos/Blink/build/core/core.a(timer.c.o)
                0x0000000008000c80                __irq_tim1_cc
 .text.__irq_tim2
                0x0000000008000cd4       0x70 /home/vladimir/Documentos/SOFTWARE/arduino/BluePill/primeros_ejemplos/Blink/build/core/core.a(timer.c.o)
                0x0000000008000cd4                __irq_tim2
 .text.__irq_tim3
                0x0000000008000d44       0x70 /home/vladimir/Documentos/SOFTWARE/arduino/BluePill/primeros_ejemplos/Blink/build/core/core.a(timer.c.o)
                0x0000000008000d44                __irq_tim3
 .text.__irq_tim4
                0x0000000008000db4       0x70 /home/vladimir/Documentos/SOFTWARE/arduino/BluePill/primeros_ejemplos/Blink/build/core/core.a(timer.c.o)
                0x0000000008000db4                __irq_tim4
 .text.rb_remove
                0x0000000008000e24       0x24 /home/vladimir/Documentos/SOFTWARE/arduino/BluePill/primeros_ejemplos/Blink/build/core/core.a(usart_f1.c.o)
 .text.rb_push_insert
                0x0000000008000e48       0x52 /home/vladimir/Documentos/SOFTWARE/arduino/BluePill/primeros_ejemplos/Blink/build/core/core.a(usart_f1.c.o)
 *fill*         0x0000000008000e9a        0x2 
 .text.__irq_usart1
                0x0000000008000e9c       0x54 /home/vladimir/Documentos/SOFTWARE/arduino/BluePill/primeros_ejemplos/Blink/build/core/core.a(usart_f1.c.o)
                0x0000000008000e9c                __irq_usart1
 .text.__irq_usart2
                0x0000000008000ef0       0x54 /home/vladimir/Documentos/SOFTWARE/arduino/BluePill/primeros_ejemplos/Blink/build/core/core.a(usart_f1.c.o)
                0x0000000008000ef0                __irq_usart2
 .text.__irq_usart3
                0x0000000008000f44       0x54 /home/vladimir/Documentos/SOFTWARE/arduino/BluePill/primeros_ejemplos/Blink/build/core/core.a(usart_f1.c.o)
                0x0000000008000f44                __irq_usart3
 .text.throb    0x0000000008000f98       0x4c /home/vladimir/Documentos/SOFTWARE/arduino/BluePill/primeros_ejemplos/Blink/build/core/core.a(util.c.o)
                0x0000000008000f98                throb
 .text.__error  0x0000000008000fe4       0x14 /home/vladimir/Documentos/SOFTWARE/arduino/BluePill/primeros_ejemplos/Blink/build/core/core.a(util.c.o)
                0x0000000008000fe4                __error
 .text.usb_resume
                0x0000000008000ff8       0xb4 /home/vladimir/Documentos/SOFTWARE/arduino/BluePill/primeros_ejemplos/Blink/build/core/core.a(usb.c.o)
 .text.usb_init_usblib
                0x00000000080010ac       0x48 /home/vladimir/Documentos/SOFTWARE/arduino/BluePill/primeros_ejemplos/Blink/build/core/core.a(usb.c.o)
                0x00000000080010ac                usb_init_usblib
 .text.__irq_usb_lp_can_rx0
                0x00000000080010f4      0x1c8 /home/vladimir/Documentos/SOFTWARE/arduino/BluePill/primeros_ejemplos/Blink/build/core/core.a(usb.c.o)
                0x00000000080010f4                __irq_usb_lp_can_rx0
 .text.usb_set_ep_rx_stat
                0x00000000080012bc       0x22 /home/vladimir/Documentos/SOFTWARE/arduino/BluePill/primeros_ejemplos/Blink/build/core/core.a(usb_cdcacm.c.o)
 *fill*         0x00000000080012de        0x2 
 .text.vcomGetSetLineCoding
                0x00000000080012e0       0x18 /home/vladimir/Documentos/SOFTWARE/arduino/BluePill/primeros_ejemplos/Blink/build/core/core.a(usb_cdcacm.c.o)
 .text.usbDataSetup
                0x00000000080012f8       0x54 /home/vladimir/Documentos/SOFTWARE/arduino/BluePill/primeros_ejemplos/Blink/build/core/core.a(usb_cdcacm.c.o)
 .text.usbNoDataSetup
                0x000000000800134c       0x50 /home/vladimir/Documentos/SOFTWARE/arduino/BluePill/primeros_ejemplos/Blink/build/core/core.a(usb_cdcacm.c.o)
 .text.usbGetInterfaceSetting
                0x000000000800139c       0x10 /home/vladimir/Documentos/SOFTWARE/arduino/BluePill/primeros_ejemplos/Blink/build/core/core.a(usb_cdcacm.c.o)
 .text.usbSetConfiguration
                0x00000000080013ac       0x1c /home/vladimir/Documentos/SOFTWARE/arduino/BluePill/primeros_ejemplos/Blink/build/core/core.a(usb_cdcacm.c.o)
 .text.usbSetDeviceAddress
                0x00000000080013c8       0x10 /home/vladimir/Documentos/SOFTWARE/arduino/BluePill/primeros_ejemplos/Blink/build/core/core.a(usb_cdcacm.c.o)
 .text.usbGetStringDescriptor
                0x00000000080013d8       0x20 /home/vladimir/Documentos/SOFTWARE/arduino/BluePill/primeros_ejemplos/Blink/build/core/core.a(usb_cdcacm.c.o)
 .text.usbGetConfigDescriptor
                0x00000000080013f8        0xc /home/vladimir/Documentos/SOFTWARE/arduino/BluePill/primeros_ejemplos/Blink/build/core/core.a(usb_cdcacm.c.o)
 .text.usbGetDeviceDescriptor
                0x0000000008001404        0xc /home/vladimir/Documentos/SOFTWARE/arduino/BluePill/primeros_ejemplos/Blink/build/core/core.a(usb_cdcacm.c.o)
 .text.usbInit  0x0000000008001410       0x44 /home/vladimir/Documentos/SOFTWARE/arduino/BluePill/primeros_ejemplos/Blink/build/core/core.a(usb_cdcacm.c.o)
 .text.vcomDataTxCb
                0x0000000008001454       0xa0 /home/vladimir/Documentos/SOFTWARE/arduino/BluePill/primeros_ejemplos/Blink/build/core/core.a(usb_cdcacm.c.o)
 .text.usbReset
                0x00000000080014f4      0x160 /home/vladimir/Documentos/SOFTWARE/arduino/BluePill/primeros_ejemplos/Blink/build/core/core.a(usb_cdcacm.c.o)
 .text.vcomDataRxCb
                0x0000000008001654       0x7c /home/vladimir/Documentos/SOFTWARE/arduino/BluePill/primeros_ejemplos/Blink/build/core/core.a(usb_cdcacm.c.o)
 .text.usb_cdcacm_set_hooks
                0x00000000080016d0       0x1c /home/vladimir/Documentos/SOFTWARE/arduino/BluePill/primeros_ejemplos/Blink/build/core/core.a(usb_cdcacm.c.o)
                0x00000000080016d0                usb_cdcacm_set_hooks
 .text.usb_cdcacm_enable
                0x00000000080016ec       0x38 /home/vladimir/Documentos/SOFTWARE/arduino/BluePill/primeros_ejemplos/Blink/build/core/core.a(usb_cdcacm.c.o)
                0x00000000080016ec                usb_cdcacm_enable
 .text.usb_cdcacm_tx
                0x0000000008001724       0x60 /home/vladimir/Documentos/SOFTWARE/arduino/BluePill/primeros_ejemplos/Blink/build/core/core.a(usb_cdcacm.c.o)
                0x0000000008001724                usb_cdcacm_tx
 .text.usb_cdcacm_data_available
                0x0000000008001784       0x18 /home/vladimir/Documentos/SOFTWARE/arduino/BluePill/primeros_ejemplos/Blink/build/core/core.a(usb_cdcacm.c.o)
                0x0000000008001784                usb_cdcacm_data_available
 .text.usb_cdcacm_peek
                0x000000000800179c       0x38 /home/vladimir/Documentos/SOFTWARE/arduino/BluePill/primeros_ejemplos/Blink/build/core/core.a(usb_cdcacm.c.o)
                0x000000000800179c                usb_cdcacm_peek
 .text.usb_cdcacm_rx
                0x00000000080017d4       0x34 /home/vladimir/Documentos/SOFTWARE/arduino/BluePill/primeros_ejemplos/Blink/build/core/core.a(usb_cdcacm.c.o)
                0x00000000080017d4                usb_cdcacm_rx
 .text.usb_cdcacm_peek_ex
                0x0000000008001808       0x40 /home/vladimir/Documentos/SOFTWARE/arduino/BluePill/primeros_ejemplos/Blink/build/core/core.a(usb_cdcacm.c.o)
                0x0000000008001808                usb_cdcacm_peek_ex
 .text.usb_cdcacm_get_dtr
                0x0000000008001848       0x10 /home/vladimir/Documentos/SOFTWARE/arduino/BluePill/primeros_ejemplos/Blink/build/core/core.a(usb_cdcacm.c.o)
                0x0000000008001848                usb_cdcacm_get_dtr
 .text.usb_set_ep_rx_count
                0x0000000008001858       0x40 /home/vladimir/Documentos/SOFTWARE/arduino/BluePill/primeros_ejemplos/Blink/build/core/core.a(usb_reg_map.c.o)
                0x0000000008001858                usb_set_ep_rx_count
 .text.Standard_GetConfiguration
                0x0000000008001898       0x24 /home/vladimir/Documentos/SOFTWARE/arduino/BluePill/primeros_ejemplos/Blink/build/core/core.a(usb_core.c.o)
                0x0000000008001898                Standard_GetConfiguration
 .text.Standard_GetInterface
                0x00000000080018bc       0x24 /home/vladimir/Documentos/SOFTWARE/arduino/BluePill/primeros_ejemplos/Blink/build/core/core.a(usb_core.c.o)
                0x00000000080018bc                Standard_GetInterface
 .text.Standard_GetStatus
                0x00000000080018e0       0x90 /home/vladimir/Documentos/SOFTWARE/arduino/BluePill/primeros_ejemplos/Blink/build/core/core.a(usb_core.c.o)
                0x00000000080018e0                Standard_GetStatus
 .text.DataStageIn
                0x0000000008001970       0xa8 /home/vladimir/Documentos/SOFTWARE/arduino/BluePill/primeros_ejemplos/Blink/build/core/core.a(usb_core.c.o)
 .text.Standard_SetConfiguration
                0x0000000008001a18       0x38 /home/vladimir/Documentos/SOFTWARE/arduino/BluePill/primeros_ejemplos/Blink/build/core/core.a(usb_core.c.o)
                0x0000000008001a18                Standard_SetConfiguration
 .text.Standard_SetInterface
                0x0000000008001a50       0x48 /home/vladimir/Documentos/SOFTWARE/arduino/BluePill/primeros_ejemplos/Blink/build/core/core.a(usb_core.c.o)
                0x0000000008001a50                Standard_SetInterface
 .text.Standard_ClearFeature
                0x0000000008001a98       0xd0 /home/vladimir/Documentos/SOFTWARE/arduino/BluePill/primeros_ejemplos/Blink/build/core/core.a(usb_core.c.o)
                0x0000000008001a98                Standard_ClearFeature
 .text.Standard_SetEndPointFeature
                0x0000000008001b68       0x84 /home/vladimir/Documentos/SOFTWARE/arduino/BluePill/primeros_ejemplos/Blink/build/core/core.a(usb_core.c.o)
                0x0000000008001b68                Standard_SetEndPointFeature
 .text.Standard_SetDeviceFeature
                0x0000000008001bec       0x24 /home/vladimir/Documentos/SOFTWARE/arduino/BluePill/primeros_ejemplos/Blink/build/core/core.a(usb_core.c.o)
                0x0000000008001bec                Standard_SetDeviceFeature
 .text.Standard_GetDescriptorData
                0x0000000008001c10       0x1c /home/vladimir/Documentos/SOFTWARE/arduino/BluePill/primeros_ejemplos/Blink/build/core/core.a(usb_core.c.o)
                0x0000000008001c10                Standard_GetDescriptorData
 .text.Post0_Process
                0x0000000008001c2c       0x40 /home/vladimir/Documentos/SOFTWARE/arduino/BluePill/primeros_ejemplos/Blink/build/core/core.a(usb_core.c.o)
                0x0000000008001c2c                Post0_Process
 .text.Setup0_Process
                0x0000000008001c6c      0x2d0 /home/vladimir/Documentos/SOFTWARE/arduino/BluePill/primeros_ejemplos/Blink/build/core/core.a(usb_core.c.o)
                0x0000000008001c6c                Setup0_Process
 .text.Out0_Process
                0x0000000008001f3c       0xc8 /home/vladimir/Documentos/SOFTWARE/arduino/BluePill/primeros_ejemplos/Blink/build/core/core.a(usb_core.c.o)
                0x0000000008001f3c                Out0_Process
 .text.SetDeviceAddress
                0x0000000008002004       0x38 /home/vladimir/Documentos/SOFTWARE/arduino/BluePill/primeros_ejemplos/Blink/build/core/core.a(usb_core.c.o)
                0x0000000008002004                SetDeviceAddress
 .text.In0_Process
                0x000000000800203c       0x5c /home/vladimir/Documentos/SOFTWARE/arduino/BluePill/primeros_ejemplos/Blink/build/core/core.a(usb_core.c.o)
                0x000000000800203c                In0_Process
 .text.NOP_Process
                0x0000000008002098        0x2 /home/vladimir/Documentos/SOFTWARE/arduino/BluePill/primeros_ejemplos/Blink/build/core/core.a(usb_core.c.o)
                0x0000000008002098                NOP_Process
 .text.UserToPMABufferCopy
                0x000000000800209a       0x30 /home/vladimir/Documentos/SOFTWARE/arduino/BluePill/primeros_ejemplos/Blink/build/core/core.a(usb_mem.c.o)
                0x000000000800209a                UserToPMABufferCopy
 .text.PMAToUserBufferCopy
                0x00000000080020ca       0x24 /home/vladimir/Documentos/SOFTWARE/arduino/BluePill/primeros_ejemplos/Blink/build/core/core.a(usb_mem.c.o)
                0x00000000080020ca                PMAToUserBufferCopy
 .text.SetEPTxStatus
                0x00000000080020ee       0x2a /home/vladimir/Documentos/SOFTWARE/arduino/BluePill/primeros_ejemplos/Blink/build/core/core.a(usb_regs.c.o)
                0x00000000080020ee                SetEPTxStatus
 .text.ClearDTOG_RX
                0x0000000008002118       0x20 /home/vladimir/Documentos/SOFTWARE/arduino/BluePill/primeros_ejemplos/Blink/build/core/core.a(usb_regs.c.o)
                0x0000000008002118                ClearDTOG_RX
 .text.ClearDTOG_TX
                0x0000000008002138       0x20 /home/vladimir/Documentos/SOFTWARE/arduino/BluePill/primeros_ejemplos/Blink/build/core/core.a(usb_regs.c.o)
                0x0000000008002138                ClearDTOG_TX
 .text.GetEPTxAddr
                0x0000000008002158       0x1c /home/vladimir/Documentos/SOFTWARE/arduino/BluePill/primeros_ejemplos/Blink/build/core/core.a(usb_regs.c.o)
                0x0000000008002158                GetEPTxAddr
 .text.GetEPRxAddr
                0x0000000008002174       0x1c /home/vladimir/Documentos/SOFTWARE/arduino/BluePill/primeros_ejemplos/Blink/build/core/core.a(usb_regs.c.o)
                0x0000000008002174                GetEPRxAddr
 .text.SetEPTxCount
                0x0000000008002190       0x1c /home/vladimir/Documentos/SOFTWARE/arduino/BluePill/primeros_ejemplos/Blink/build/core/core.a(usb_regs.c.o)
                0x0000000008002190                SetEPTxCount
 .text.SetEPRxCount
                0x00000000080021ac       0x40 /home/vladimir/Documentos/SOFTWARE/arduino/BluePill/primeros_ejemplos/Blink/build/core/core.a(usb_regs.c.o)
                0x00000000080021ac                SetEPRxCount
 .text.rb_full_count
                0x00000000080021ec       0x22 /home/vladimir/Documentos/SOFTWARE/arduino/BluePill/primeros_ejemplos/Blink/build/core/core.a(HardwareSerial.cpp.o)
 .text._ZN14HardwareSerial4readEv
                0x000000000800220e       0x3a /home/vladimir/Documentos/SOFTWARE/arduino/BluePill/primeros_ejemplos/Blink/build/core/core.a(HardwareSerial.cpp.o)
                0x000000000800220e                HardwareSerial::read()
 .text._ZN14HardwareSerial9availableEv
                0x0000000008002248        0xc /home/vladimir/Documentos/SOFTWARE/arduino/BluePill/primeros_ejemplos/Blink/build/core/core.a(HardwareSerial.cpp.o)
                0x0000000008002248                HardwareSerial::available()
 .text._ZN14HardwareSerial4peekEv
                0x0000000008002254       0x22 /home/vladimir/Documentos/SOFTWARE/arduino/BluePill/primeros_ejemplos/Blink/build/core/core.a(HardwareSerial.cpp.o)
                0x0000000008002254                HardwareSerial::peek()
 .text._ZN14HardwareSerial5flushEv
                0x0000000008002276       0x1a /home/vladimir/Documentos/SOFTWARE/arduino/BluePill/primeros_ejemplos/Blink/build/core/core.a(HardwareSerial.cpp.o)
                0x0000000008002276                HardwareSerial::flush()
 .text._ZN14HardwareSerial5writeEh
                0x0000000008002290       0x1e /home/vladimir/Documentos/SOFTWARE/arduino/BluePill/primeros_ejemplos/Blink/build/core/core.a(HardwareSerial.cpp.o)
                0x0000000008002290                HardwareSerial::write(unsigned char)
 *fill*         0x00000000080022ae        0x2 
 .text._ZN14HardwareSerialC2EP9usart_devhh
                0x00000000080022b0       0x1c /home/vladimir/Documentos/SOFTWARE/arduino/BluePill/primeros_ejemplos/Blink/build/core/core.a(HardwareSerial.cpp.o)
                0x00000000080022b0                HardwareSerial::HardwareSerial(usart_dev*, unsigned char, unsigned char)
                0x00000000080022b0                HardwareSerial::HardwareSerial(usart_dev*, unsigned char, unsigned char)
 .text._ZN5Print5writeEPKvm
                0x00000000080022cc       0x20 /home/vladimir/Documentos/SOFTWARE/arduino/BluePill/primeros_ejemplos/Blink/build/core/core.a(Print.cpp.o)
                0x00000000080022cc                Print::write(void const*, unsigned long)
 .text._ZN5Print5writeEPKc
                0x00000000080022ec       0x1e /home/vladimir/Documentos/SOFTWARE/arduino/BluePill/primeros_ejemplos/Blink/build/core/core.a(Print.cpp.o)
                0x00000000080022ec                Print::write(char const*)
 .text.startup._Z7premainv
                0x000000000800230a        0x4 /home/vladimir/Documentos/SOFTWARE/arduino/BluePill/primeros_ejemplos/Blink/build/core/core.a(main.cpp.o)
                0x000000000800230a                premain()
 .text.startup.main
                0x000000000800230e        0xc /home/vladimir/Documentos/SOFTWARE/arduino/BluePill/primeros_ejemplos/Blink/build/core/core.a(main.cpp.o)
                0x000000000800230e                main
 .text._ZN9USBSerial9availableEv
                0x000000000800231a        0x4 /home/vladimir/Documentos/SOFTWARE/arduino/BluePill/primeros_ejemplos/Blink/build/core/core.a(usb_serial.cpp.o)
                0x000000000800231a                USBSerial::available()
 .text._ZN9USBSerial4peekEv
                0x000000000800231e       0x1e /home/vladimir/Documentos/SOFTWARE/arduino/BluePill/primeros_ejemplos/Blink/build/core/core.a(usb_serial.cpp.o)
                0x000000000800231e                USBSerial::peek()
 .text._ZN9USBSerial4readEv
                0x000000000800233c       0x1e /home/vladimir/Documentos/SOFTWARE/arduino/BluePill/primeros_ejemplos/Blink/build/core/core.a(usb_serial.cpp.o)
                0x000000000800233c                USBSerial::read()
 *fill*         0x000000000800235a        0x2 
 .text._ZL14ifaceSetupHookjPv
                0x000000000800235c       0x38 /home/vladimir/Documentos/SOFTWARE/arduino/BluePill/primeros_ejemplos/Blink/build/core/core.a(usb_serial.cpp.o)
 .text._ZL6rxHookjPv
                0x0000000008002394       0xa0 /home/vladimir/Documentos/SOFTWARE/arduino/BluePill/primeros_ejemplos/Blink/build/core/core.a(usb_serial.cpp.o)
 .text._ZL10wait_resetv
                0x0000000008002434       0x10 /home/vladimir/Documentos/SOFTWARE/arduino/BluePill/primeros_ejemplos/Blink/build/core/core.a(usb_serial.cpp.o)
 .text._ZN9USBSerialC2Ev
                0x0000000008002444       0x14 /home/vladimir/Documentos/SOFTWARE/arduino/BluePill/primeros_ejemplos/Blink/build/core/core.a(usb_serial.cpp.o)
                0x0000000008002444                USBSerial::USBSerial()
                0x0000000008002444                USBSerial::USBSerial()
 .text._ZN9USBSerial5beginEv
                0x0000000008002458       0x34 /home/vladimir/Documentos/SOFTWARE/arduino/BluePill/primeros_ejemplos/Blink/build/core/core.a(usb_serial.cpp.o)
                0x0000000008002458                USBSerial::begin()
 .text._ZN9USBSerial5writeEPKhm
                0x000000000800248c       0x4c /home/vladimir/Documentos/SOFTWARE/arduino/BluePill/primeros_ejemplos/Blink/build/core/core.a(usb_serial.cpp.o)
                0x000000000800248c                USBSerial::write(unsigned char const*, unsigned long)
 .text._ZN9USBSerial5writeEh
                0x00000000080024d8       0x16 /home/vladimir/Documentos/SOFTWARE/arduino/BluePill/primeros_ejemplos/Blink/build/core/core.a(usb_serial.cpp.o)
                0x00000000080024d8                USBSerial::write(unsigned char)
 .text._ZN9USBSerial5writeEPKc
                0x00000000080024ee       0x1a /home/vladimir/Documentos/SOFTWARE/arduino/BluePill/primeros_ejemplos/Blink/build/core/core.a(usb_serial.cpp.o)
                0x00000000080024ee                USBSerial::write(char const*)
 .text._ZN9USBSerial4readEPhm
                0x0000000008002508       0x1c /home/vladimir/Documentos/SOFTWARE/arduino/BluePill/primeros_ejemplos/Blink/build/core/core.a(usb_serial.cpp.o)
                0x0000000008002508                USBSerial::read(unsigned char*, unsigned long)
 .text._ZN9USBSerial5flushEv
                0x0000000008002524       0x1c /home/vladimir/Documentos/SOFTWARE/arduino/BluePill/primeros_ejemplos/Blink/build/core/core.a(usb_serial.cpp.o)
                0x0000000008002524                USBSerial::flush()
 .text.startup._GLOBAL__sub_I__ZN9USBSerial9_hasBegunE
                0x0000000008002540        0xc /home/vladimir/Documentos/SOFTWARE/arduino/BluePill/primeros_ejemplos/Blink/build/core/core.a(usb_serial.cpp.o)
 .text._Z12digitalWritehh
                0x000000000800254c       0x2c /home/vladimir/Documentos/SOFTWARE/arduino/BluePill/primeros_ejemplos/Blink/build/core/core.a(wirish_digital.cpp.o)
                0x000000000800254c                digitalWrite(unsigned char, unsigned char)
 .text._ZL6microsv
                0x0000000008002578       0x34 /home/vladimir/Documentos/SOFTWARE/arduino/BluePill/primeros_ejemplos/Blink/build/core/core.a(wirish_time.cpp.o)
 .text._Z5delaym
                0x00000000080025ac       0x2a /home/vladimir/Documentos/SOFTWARE/arduino/BluePill/primeros_ejemplos/Blink/build/core/core.a(wirish_time.cpp.o)
                0x00000000080025ac                delay(unsigned long)
 *fill*         0x00000000080025d6        0x2 
 .text._Z7pinModeh13WiringPinMode
                0x00000000080025d8       0x84 /home/vladimir/Documentos/SOFTWARE/arduino/BluePill/primeros_ejemplos/Blink/build/core/core.a(wirish_digital_f1.cpp.o)
                0x00000000080025d8                pinMode(unsigned char, WiringPinMode)
 .text.__empty  0x000000000800265c        0x2 /home/vladimir/Documentos/SOFTWARE/arduino/BluePill/primeros_ejemplos/Blink/build/core/core.a(hooks.c.o)
                0x000000000800265c                yield
 .text.bkp_init
                0x000000000800265e       0x18 /home/vladimir/Documentos/SOFTWARE/arduino/BluePill/primeros_ejemplos/Blink/build/core/core.a(bkp_f1.c.o)
                0x000000000800265e                bkp_init
 *fill*         0x0000000008002676        0x2 
 .text.bkp_enable_writes
                0x0000000008002678        0xc /home/vladimir/Documentos/SOFTWARE/arduino/BluePill/primeros_ejemplos/Blink/build/core/core.a(bkp_f1.c.o)
                0x0000000008002678                bkp_enable_writes
 .text.bkp_disable_writes
                0x0000000008002684        0xc /home/vladimir/Documentos/SOFTWARE/arduino/BluePill/primeros_ejemplos/Blink/build/core/core.a(bkp_f1.c.o)
                0x0000000008002684                bkp_disable_writes
 .text.bkp_write
                0x0000000008002690       0x16 /home/vladimir/Documentos/SOFTWARE/arduino/BluePill/primeros_ejemplos/Blink/build/core/core.a(bkp_f1.c.o)
                0x0000000008002690                bkp_write
 .text.gpio_init
                0x00000000080026a6       0x14 /home/vladimir/Documentos/SOFTWARE/arduino/BluePill/primeros_ejemplos/Blink/build/core/core.a(gpio.c.o)
                0x00000000080026a6                gpio_init
 .text.i2c_start_condition
                0x00000000080026ba       0x14 /home/vladimir/Documentos/SOFTWARE/arduino/BluePill/primeros_ejemplos/Blink/build/core/core.a(i2c.c.o)
 .text.i2c_stop_condition
                0x00000000080026ce       0x1c /home/vladimir/Documentos/SOFTWARE/arduino/BluePill/primeros_ejemplos/Blink/build/core/core.a(i2c.c.o)
 *fill*         0x00000000080026ea        0x2 
 .text._i2c_irq_handler
                0x00000000080026ec      0x16c /home/vladimir/Documentos/SOFTWARE/arduino/BluePill/primeros_ejemplos/Blink/build/core/core.a(i2c.c.o)
                0x00000000080026ec                _i2c_irq_handler
 .text._i2c_irq_error_handler
                0x0000000008002858       0x2a /home/vladimir/Documentos/SOFTWARE/arduino/BluePill/primeros_ejemplos/Blink/build/core/core.a(i2c.c.o)
                0x0000000008002858                _i2c_irq_error_handler
 .text.usart_tx
                0x0000000008002882       0x9c /home/vladimir/Documentos/SOFTWARE/arduino/BluePill/primeros_ejemplos/Blink/build/core/core.a(usart.c.o)
                0x0000000008002882                usart_tx
 *fill*         0x000000000800291e        0x2 
 .text.exit     0x0000000008002920       0x20 /home/vladimir/.arduino15/packages/arduino/tools/arm-none-eabi-gcc/4.8.3-2014q1/bin/../lib/gcc/arm-none-eabi/4.8.3/../../../../arm-none-eabi/lib/armv7-m/libc.a(lib_a-exit.o)
                0x0000000008002920                exit
 .text.__libc_init_array
                0x0000000008002940       0x50 /home/vladimir/.arduino15/packages/arduino/tools/arm-none-eabi-gcc/4.8.3-2014q1/bin/../lib/gcc/arm-none-eabi/4.8.3/../../../../arm-none-eabi/lib/armv7-m/libc.a(lib_a-init.o)
                0x0000000008002940                __libc_init_array
 .text.strlen   0x0000000008002990       0x60 /home/vladimir/.arduino15/packages/arduino/tools/arm-none-eabi-gcc/4.8.3-2014q1/bin/../lib/gcc/arm-none-eabi/4.8.3/../../../../arm-none-eabi/lib/armv7-m/libc.a(lib_a-strlen.o)
                0x0000000008002990                strlen
 .text.startup.register_fini
                0x00000000080029f0       0x14 /home/vladimir/.arduino15/packages/arduino/tools/arm-none-eabi-gcc/4.8.3-2014q1/bin/../lib/gcc/arm-none-eabi/4.8.3/../../../../arm-none-eabi/lib/armv7-m/libc.a(lib_a-__call_atexit.o)
 .text.__call_exitprocs
                0x0000000008002a04       0xf0 /home/vladimir/.arduino15/packages/arduino/tools/arm-none-eabi-gcc/4.8.3-2014q1/bin/../lib/gcc/arm-none-eabi/4.8.3/../../../../arm-none-eabi/lib/armv7-m/libc.a(lib_a-__call_atexit.o)
                0x0000000008002a04                __call_exitprocs
 .text.atexit   0x0000000008002af4        0xc /home/vladimir/.arduino15/packages/arduino/tools/arm-none-eabi-gcc/4.8.3-2014q1/bin/../lib/gcc/arm-none-eabi/4.8.3/../../../../arm-none-eabi/lib/armv7-m/libc.a(lib_a-atexit.o)
                0x0000000008002af4                atexit
 .text.__libc_fini_array
                0x0000000008002b00       0x30 /home/vladimir/.arduino15/packages/arduino/tools/arm-none-eabi-gcc/4.8.3-2014q1/bin/../lib/gcc/arm-none-eabi/4.8.3/../../../../arm-none-eabi/lib/armv7-m/libc.a(lib_a-fini.o)
                0x0000000008002b00                __libc_fini_array
 .text.__register_exitproc
                0x0000000008002b30       0xa8 /home/vladimir/.arduino15/packages/arduino/tools/arm-none-eabi-gcc/4.8.3-2014q1/bin/../lib/gcc/arm-none-eabi/4.8.3/../../../../arm-none-eabi/lib/armv7-m/libc.a(lib_a-__atexit.o)
                0x0000000008002b30                __register_exitproc
 *(.plt)
 *(.gnu.warning)
 *(.glue_7t)
 .glue_7t       0x0000000000000000        0x0 linker stubs
 *(.glue_7)
 .glue_7        0x0000000000000000        0x0 linker stubs
 *(.vfp11_veneer)
 .vfp11_veneer  0x0000000000000000        0x0 linker stubs
 *(.ARM.extab* .gnu.linkonce.armextab.*)
 *(.gcc_except_table)
 *(.eh_frame_hdr)
 *(.eh_frame)
 .eh_frame      0x0000000008002bd8        0x0 /home/vladimir/.arduino15/packages/arduino/tools/arm-none-eabi-gcc/4.8.3-2014q1/bin/../lib/gcc/arm-none-eabi/4.8.3/armv7-m/crtbegin.o
                0x0000000008002bd8                . = ALIGN (0x4)
 *(.init)
 .init          0x0000000008002bd8        0x4 /home/vladimir/.arduino15/packages/arduino/tools/arm-none-eabi-gcc/4.8.3-2014q1/bin/../lib/gcc/arm-none-eabi/4.8.3/armv7-m/crti.o
                0x0000000008002bd8                _init
 .init          0x0000000008002bdc        0x8 /home/vladimir/.arduino15/packages/arduino/tools/arm-none-eabi-gcc/4.8.3-2014q1/bin/../lib/gcc/arm-none-eabi/4.8.3/armv7-m/crtn.o
                0x0000000008002be4                . = ALIGN (0x4)
                0x0000000008002be4                __preinit_array_start = .
 *(.preinit_array)
                0x0000000008002be4                __preinit_array_end = .
                0x0000000008002be4                . = ALIGN (0x4)
                0x0000000008002be4                __init_array_start = .
 *(SORT(.init_array.*))
 .init_array.00000
                0x0000000008002be4        0x4 /home/vladimir/.arduino15/packages/arduino/tools/arm-none-eabi-gcc/4.8.3-2014q1/bin/../lib/gcc/arm-none-eabi/4.8.3/../../../../arm-none-eabi/lib/armv7-m/libc.a(lib_a-__call_atexit.o)
 .init_array.00101
                0x0000000008002be8        0x4 /home/vladimir/Documentos/SOFTWARE/arduino/BluePill/primeros_ejemplos/Blink/build/core/core.a(main.cpp.o)
 *(.init_array)
 .init_array    0x0000000008002bec        0x4 /home/vladimir/.arduino15/packages/arduino/tools/arm-none-eabi-gcc/4.8.3-2014q1/bin/../lib/gcc/arm-none-eabi/4.8.3/armv7-m/crtbegin.o
 .init_array    0x0000000008002bf0        0x4 /home/vladimir/Documentos/SOFTWARE/arduino/BluePill/primeros_ejemplos/Blink/build/core/board.cpp.o
 .init_array    0x0000000008002bf4        0x4 /home/vladimir/Documentos/SOFTWARE/arduino/BluePill/primeros_ejemplos/Blink/build/core/core.a(usb_serial.cpp.o)
                0x0000000008002bf8                __init_array_end = .
                0x0000000008002bf8                . = ALIGN (0x4)
 *crtbegin.o(.ctors)
 *(EXCLUDE_FILE(*crtend.o) .ctors)
 *(SORT(.ctors.*))
 *crtend.o(.ctors)
                0x0000000008002bf8                . = ALIGN (0x4)
 *(.fini)
 .fini          0x0000000008002bf8        0x4 /home/vladimir/.arduino15/packages/arduino/tools/arm-none-eabi-gcc/4.8.3-2014q1/bin/../lib/gcc/arm-none-eabi/4.8.3/armv7-m/crti.o
                0x0000000008002bf8                _fini
 .fini          0x0000000008002bfc        0x8 /home/vladimir/.arduino15/packages/arduino/tools/arm-none-eabi-gcc/4.8.3-2014q1/bin/../lib/gcc/arm-none-eabi/4.8.3/armv7-m/crtn.o
                0x0000000008002c04                . = ALIGN (0x4)
                0x0000000008002c04                __fini_array_start = .
 *(.fini_array)
 .fini_array    0x0000000008002c04        0x4 /home/vladimir/.arduino15/packages/arduino/tools/arm-none-eabi-gcc/4.8.3-2014q1/bin/../lib/gcc/arm-none-eabi/4.8.3/armv7-m/crtbegin.o
 *(SORT(.fini_array.*))
                0x0000000008002c08                __fini_array_end = .
 *crtbegin.o(.dtors)
 *(EXCLUDE_FILE(*crtend.o) .dtors)
 *(SORT(.dtors.*))
 *crtend.o(.dtors)

.v4_bx          0x0000000008002c08        0x0
 .v4_bx         0x0000000000000000        0x0 linker stubs

.iplt           0x0000000008002c08        0x0
 .iplt          0x0000000000000000        0x0 /home/vladimir/.arduino15/packages/arduino/tools/arm-none-eabi-gcc/4.8.3-2014q1/bin/../lib/gcc/arm-none-eabi/4.8.3/armv7-m/crtbegin.o

.text.align     0x0000000008002c08        0x0
                0x0000000008002c08                . = ALIGN (0x8)
                0x0000000008002c08                __text_end__ = .
                0x0000000008002c08                __exidx_start = .

.ARM.exidx      0x0000000008002c08        0x8
 *(.ARM.exidx* .gnu.linkonce.armexidx.*)
 .ARM.exidx     0x0000000008002c08        0x8 /home/vladimir/Documentos/SOFTWARE/arduino/BluePill/primeros_ejemplos/Blink/build/core/wirish/start.S.o
                0x0000000008002c10                __exidx_end = .

.data           0x0000000020000000      0x868 load address 0x0000000008002c10
                0x0000000020000000                __data_start__ = .
                0x0000000020000000        0x4 LONG 0x0
                0x0000000020000008                . = ALIGN (0x8)
 *fill*         0x0000000020000004        0x4 
 *(.got.plt)
 *(.got)
 *(.data .data.* .gnu.linkonce.d.*)
 .data._ZN6wirish4privL8pll_dataE
                0x0000000020000008        0x4 /home/vladimir/Documentos/SOFTWARE/arduino/BluePill/primeros_ejemplos/Blink/build/core/wirish/boards_setup.cpp.o
 .data._ZN6wirish4priv9w_adc_smpE
                0x000000002000000c        0x1 /home/vladimir/Documentos/SOFTWARE/arduino/BluePill/primeros_ejemplos/Blink/build/core/wirish/boards_setup.cpp.o
                0x000000002000000c                wirish::priv::w_adc_smp
 *fill*         0x000000002000000d        0x1 
 .data._ZN6wirish4priv9w_adc_preE
                0x000000002000000e        0x2 /home/vladimir/Documentos/SOFTWARE/arduino/BluePill/primeros_ejemplos/Blink/build/core/wirish/boards_setup.cpp.o
                0x000000002000000e                wirish::priv::w_adc_pre
 .data._ZN6wirish4priv15w_board_pll_cfgE
                0x0000000020000010        0x8 /home/vladimir/Documentos/SOFTWARE/arduino/BluePill/primeros_ejemplos/Blink/build/core/wirish/boards_setup.cpp.o
                0x0000000020000010                wirish::priv::w_board_pll_cfg
 .data.adc2     0x0000000020000018        0x8 /home/vladimir/Documentos/SOFTWARE/arduino/BluePill/primeros_ejemplos/Blink/build/core/core.a(adc_f1.c.o)
                0x0000000020000018                adc2
 .data.adc1     0x0000000020000020       0x18 /home/vladimir/Documentos/SOFTWARE/arduino/BluePill/primeros_ejemplos/Blink/build/core/core.a(adc_f1.c.o)
                0x0000000020000020                adc1
 .data.ADC2     0x0000000020000038        0x4 /home/vladimir/Documentos/SOFTWARE/arduino/BluePill/primeros_ejemplos/Blink/build/core/core.a(adc_f1.c.o)
                0x0000000020000038                ADC2
 .data.ADC1     0x000000002000003c        0x4 /home/vladimir/Documentos/SOFTWARE/arduino/BluePill/primeros_ejemplos/Blink/build/core/core.a(adc_f1.c.o)
                0x000000002000003c                ADC1
 .data.dma1     0x0000000020000040       0x40 /home/vladimir/Documentos/SOFTWARE/arduino/BluePill/primeros_ejemplos/Blink/build/core/core.a(dma_f1.c.o)
 .data.DMA1     0x0000000020000080        0x4 /home/vladimir/Documentos/SOFTWARE/arduino/BluePill/primeros_ejemplos/Blink/build/core/core.a(dma_f1.c.o)
                0x0000000020000080                DMA1
 .data.gpioa    0x0000000020000084        0x8 /home/vladimir/Documentos/SOFTWARE/arduino/BluePill/primeros_ejemplos/Blink/build/core/core.a(gpio_f1.c.o)
                0x0000000020000084                gpioa
 .data.gpiob    0x000000002000008c        0x8 /home/vladimir/Documentos/SOFTWARE/arduino/BluePill/primeros_ejemplos/Blink/build/core/core.a(gpio_f1.c.o)
                0x000000002000008c                gpiob
 .data.gpioc    0x0000000020000094        0x8 /home/vladimir/Documentos/SOFTWARE/arduino/BluePill/primeros_ejemplos/Blink/build/core/core.a(gpio_f1.c.o)
                0x0000000020000094                gpioc
 .data.gpiod    0x000000002000009c        0x8 /home/vladimir/Documentos/SOFTWARE/arduino/BluePill/primeros_ejemplos/Blink/build/core/core.a(gpio_f1.c.o)
                0x000000002000009c                gpiod
 .data.i2c1     0x00000000200000a4       0x24 /home/vladimir/Documentos/SOFTWARE/arduino/BluePill/primeros_ejemplos/Blink/build/core/core.a(i2c_f1.c.o)
 .data.i2c2     0x00000000200000c8       0x24 /home/vladimir/Documentos/SOFTWARE/arduino/BluePill/primeros_ejemplos/Blink/build/core/core.a(i2c_f1.c.o)
 .data.enable_regs.4411
                0x00000000200000ec        0xc /home/vladimir/Documentos/SOFTWARE/arduino/BluePill/primeros_ejemplos/Blink/build/core/core.a(rcc_f1.c.o)
 .data.reset_regs.4415
                0x00000000200000f8        0x8 /home/vladimir/Documentos/SOFTWARE/arduino/BluePill/primeros_ejemplos/Blink/build/core/core.a(rcc_f1.c.o)
 .data.enable_regs.4424
                0x0000000020000100        0xc /home/vladimir/Documentos/SOFTWARE/arduino/BluePill/primeros_ejemplos/Blink/build/core/core.a(rcc_f1.c.o)
 .data.timer3   0x000000002000010c       0x24 /home/vladimir/Documentos/SOFTWARE/arduino/BluePill/primeros_ejemplos/Blink/build/core/core.a(timer.c.o)
                0x000000002000010c                timer3
 .data.timer4   0x0000000020000130       0x24 /home/vladimir/Documentos/SOFTWARE/arduino/BluePill/primeros_ejemplos/Blink/build/core/core.a(timer.c.o)
                0x0000000020000130                timer4
 .data.timer1   0x0000000020000154       0x28 /home/vladimir/Documentos/SOFTWARE/arduino/BluePill/primeros_ejemplos/Blink/build/core/core.a(timer.c.o)
                0x0000000020000154                timer1
 .data.timer2   0x000000002000017c       0x24 /home/vladimir/Documentos/SOFTWARE/arduino/BluePill/primeros_ejemplos/Blink/build/core/core.a(timer.c.o)
                0x000000002000017c                timer2
 .data.USART1   0x00000000200001a0        0x4 /home/vladimir/Documentos/SOFTWARE/arduino/BluePill/primeros_ejemplos/Blink/build/core/core.a(usart_f1.c.o)
                0x00000000200001a0                USART1
 .data.USART2   0x00000000200001a4        0x4 /home/vladimir/Documentos/SOFTWARE/arduino/BluePill/primeros_ejemplos/Blink/build/core/core.a(usart_f1.c.o)
                0x00000000200001a4                USART2
 .data.USART3   0x00000000200001a8        0x4 /home/vladimir/Documentos/SOFTWARE/arduino/BluePill/primeros_ejemplos/Blink/build/core/core.a(usart_f1.c.o)
                0x00000000200001a8                USART3
 .data.usart1   0x00000000200001ac       0x94 /home/vladimir/Documentos/SOFTWARE/arduino/BluePill/primeros_ejemplos/Blink/build/core/core.a(usart_f1.c.o)
 .data.usart2   0x0000000020000240       0x94 /home/vladimir/Documentos/SOFTWARE/arduino/BluePill/primeros_ejemplos/Blink/build/core/core.a(usart_f1.c.o)
 .data.usart3   0x00000000200002d4       0x94 /home/vladimir/Documentos/SOFTWARE/arduino/BluePill/primeros_ejemplos/Blink/build/core/core.a(usart_f1.c.o)
 .data.USBLIB   0x0000000020000368        0x4 /home/vladimir/Documentos/SOFTWARE/arduino/BluePill/primeros_ejemplos/Blink/build/core/core.a(usb.c.o)
                0x0000000020000368                USBLIB
 .data.usblib   0x000000002000036c       0x10 /home/vladimir/Documentos/SOFTWARE/arduino/BluePill/primeros_ejemplos/Blink/build/core/core.a(usb.c.o)
 .data.Config_Descriptor
                0x000000002000037c        0x8 /home/vladimir/Documentos/SOFTWARE/arduino/BluePill/primeros_ejemplos/Blink/build/core/core.a(usb_cdcacm.c.o)
 .data.Device_Property
                0x0000000020000384       0x30 /home/vladimir/Documentos/SOFTWARE/arduino/BluePill/primeros_ejemplos/Blink/build/core/core.a(usb_cdcacm.c.o)
                0x0000000020000384                Device_Property
 .data.ep_int_in
                0x00000000200003b4       0x1c /home/vladimir/Documentos/SOFTWARE/arduino/BluePill/primeros_ejemplos/Blink/build/core/core.a(usb_cdcacm.c.o)
 .data.String_Descriptor
                0x00000000200003d0       0x18 /home/vladimir/Documentos/SOFTWARE/arduino/BluePill/primeros_ejemplos/Blink/build/core/core.a(usb_cdcacm.c.o)
 .data.ep_int_out
                0x00000000200003e8       0x1c /home/vladimir/Documentos/SOFTWARE/arduino/BluePill/primeros_ejemplos/Blink/build/core/core.a(usb_cdcacm.c.o)
 .data.line_coding
                0x0000000020000404        0x7 /home/vladimir/Documentos/SOFTWARE/arduino/BluePill/primeros_ejemplos/Blink/build/core/core.a(usb_cdcacm.c.o)
 *fill*         0x000000002000040b        0x1 
 .data.User_Standard_Requests
                0x000000002000040c       0x24 /home/vladimir/Documentos/SOFTWARE/arduino/BluePill/primeros_ejemplos/Blink/build/core/core.a(usb_cdcacm.c.o)
                0x000000002000040c                User_Standard_Requests
 .data.Device_Descriptor
                0x0000000020000430        0x8 /home/vladimir/Documentos/SOFTWARE/arduino/BluePill/primeros_ejemplos/Blink/build/core/core.a(usb_cdcacm.c.o)
 .data.Device_Table
                0x0000000020000438        0x2 /home/vladimir/Documentos/SOFTWARE/arduino/BluePill/primeros_ejemplos/Blink/build/core/core.a(usb_cdcacm.c.o)
                0x0000000020000438                Device_Table
 *fill*         0x000000002000043a        0x6 
 .data.impure_data
                0x0000000020000440      0x428 /home/vladimir/.arduino15/packages/arduino/tools/arm-none-eabi-gcc/4.8.3-2014q1/bin/../lib/gcc/arm-none-eabi/4.8.3/../../../../arm-none-eabi/lib/armv7-m/libc.a(lib_a-impure.o)
                0x0000000020000868                . = ALIGN (0x8)
                0x0000000020000868                __data_end__ = .

.jcr            0x0000000020000868        0x0 load address 0x0000000008003478
 .jcr           0x0000000020000868        0x0 /home/vladimir/.arduino15/packages/arduino/tools/arm-none-eabi-gcc/4.8.3-2014q1/bin/../lib/gcc/arm-none-eabi/4.8.3/armv7-m/crtbegin.o

.igot.plt       0x0000000020000868        0x0 load address 0x0000000008003478
 .igot.plt      0x0000000000000000        0x0 /home/vladimir/.arduino15/packages/arduino/tools/arm-none-eabi-gcc/4.8.3-2014q1/bin/../lib/gcc/arm-none-eabi/4.8.3/armv7-m/crtbegin.o

.rodata         0x0000000008003478      0x37c
 *(.rodata .rodata.* .gnu.linkonce.r.*)
 .rodata.PIN_MAP
                0x0000000008003478      0x230 /home/vladimir/Documentos/SOFTWARE/arduino/BluePill/primeros_ejemplos/Blink/build/core/board.cpp.o
                0x0000000008003478                PIN_MAP
 .rodata.GPIOC  0x00000000080036a8        0x4 /home/vladimir/Documentos/SOFTWARE/arduino/BluePill/primeros_ejemplos/Blink/build/core/core.a(gpio_f1.c.o)
                0x00000000080036a8                GPIOC
 .rodata.rcc_dev_table
                0x00000000080036ac       0x5c /home/vladimir/Documentos/SOFTWARE/arduino/BluePill/primeros_ejemplos/Blink/build/core/core.a(rcc_f1.c.o)
                0x00000000080036ac                rcc_dev_table
 .rodata.masks.4420
                0x0000000008003708       0x14 /home/vladimir/Documentos/SOFTWARE/arduino/BluePill/primeros_ejemplos/Blink/build/core/core.a(rcc_f1.c.o)
 .rodata.usbVcomDescriptor_iProduct
                0x000000000800371c        0xc /home/vladimir/Documentos/SOFTWARE/arduino/BluePill/primeros_ejemplos/Blink/build/core/core.a(usb_cdcacm.c.o)
 .rodata.usbVcomDescriptor_iManufacturer
                0x0000000008003728       0x12 /home/vladimir/Documentos/SOFTWARE/arduino/BluePill/primeros_ejemplos/Blink/build/core/core.a(usb_cdcacm.c.o)
 .rodata.usbVcomDescriptor_Device
                0x000000000800373a       0x12 /home/vladimir/Documentos/SOFTWARE/arduino/BluePill/primeros_ejemplos/Blink/build/core/core.a(usb_cdcacm.c.o)
 .rodata.usbVcomDescriptor_Config
                0x000000000800374c       0x43 /home/vladimir/Documentos/SOFTWARE/arduino/BluePill/primeros_ejemplos/Blink/build/core/core.a(usb_cdcacm.c.o)
 .rodata.usbVcomDescriptor_LangID
                0x000000000800378f        0x4 /home/vladimir/Documentos/SOFTWARE/arduino/BluePill/primeros_ejemplos/Blink/build/core/core.a(usb_cdcacm.c.o)
 *fill*         0x0000000008003793        0x5 
 .rodata._ZTV14HardwareSerial
                0x0000000008003798       0x28 /home/vladimir/Documentos/SOFTWARE/arduino/BluePill/primeros_ejemplos/Blink/build/core/core.a(HardwareSerial.cpp.o)
                0x0000000008003798                vtable for HardwareSerial
 .rodata._ZTV9USBSerial
                0x00000000080037c0       0x28 /home/vladimir/Documentos/SOFTWARE/arduino/BluePill/primeros_ejemplos/Blink/build/core/core.a(usb_serial.cpp.o)
                0x00000000080037c0                vtable for USBSerial
 .rodata.str1.4
                0x00000000080037e8        0x4 /home/vladimir/.arduino15/packages/arduino/tools/arm-none-eabi-gcc/4.8.3-2014q1/bin/../lib/gcc/arm-none-eabi/4.8.3/../../../../arm-none-eabi/lib/armv7-m/libc.a(lib_a-impure.o)
 .rodata._global_impure_ptr
                0x00000000080037ec        0x4 /home/vladimir/.arduino15/packages/arduino/tools/arm-none-eabi-gcc/4.8.3-2014q1/bin/../lib/gcc/arm-none-eabi/4.8.3/../../../../arm-none-eabi/lib/armv7-m/libc.a(lib_a-impure.o)
                0x00000000080037ec                _global_impure_ptr
 *(.USER_FLASH)
                0x00000000080037f0                . = ALIGN (0x4)
                0x00000000080037f0                _lm_rom_img_cfgp = .
                0x00000000080037f0        0x4 LONG 0x8002c10 LOADADDR (.data)
                0x0000000020000c10                _lm_heap_start = DEFINED (_lm_heap_start)?_lm_heap_start:_end
                0x0000000020005000                _lm_heap_end = DEFINED (_lm_heap_end)?_lm_heap_end:__msp_init

.rel.dyn        0x00000000080037f4        0x0
 .rel.iplt      0x0000000000000000        0x0 /home/vladimir/.arduino15/packages/arduino/tools/arm-none-eabi-gcc/4.8.3-2014q1/bin/../lib/gcc/arm-none-eabi/4.8.3/armv7-m/crtbegin.o

.bss            0x0000000020000868      0x3a8
                0x0000000020000868                . = ALIGN (0x8)
                0x0000000020000868                __bss_start__ = .
 *(.bss .bss.* .gnu.linkonce.b.*)
 .bss           0x0000000020000868       0x1c /home/vladimir/.arduino15/packages/arduino/tools/arm-none-eabi-gcc/4.8.3-2014q1/bin/../lib/gcc/arm-none-eabi/4.8.3/armv7-m/crtbegin.o
 .bss.Serial1   0x0000000020000884       0x18 /home/vladimir/Documentos/SOFTWARE/arduino/BluePill/primeros_ejemplos/Blink/build/core/board.cpp.o
                0x0000000020000884                Serial1
 .bss.Serial2   0x000000002000089c       0x18 /home/vladimir/Documentos/SOFTWARE/arduino/BluePill/primeros_ejemplos/Blink/build/core/board.cpp.o
                0x000000002000089c                Serial2
 .bss.Serial3   0x00000000200008b4       0x18 /home/vladimir/Documentos/SOFTWARE/arduino/BluePill/primeros_ejemplos/Blink/build/core/board.cpp.o
                0x00000000200008b4                Serial3
 .bss.exti_channels
                0x00000000200008cc       0x80 /home/vladimir/Documentos/SOFTWARE/arduino/BluePill/primeros_ejemplos/Blink/build/core/core.a(exti.c.o)
 .bss.systick_user_callback
                0x000000002000094c        0x4 /home/vladimir/Documentos/SOFTWARE/arduino/BluePill/primeros_ejemplos/Blink/build/core/core.a(systick.c.o)
 .bss.usart1_wb
                0x0000000020000950        0xc /home/vladimir/Documentos/SOFTWARE/arduino/BluePill/primeros_ejemplos/Blink/build/core/core.a(usart_f1.c.o)
 .bss.usart1_rb
                0x000000002000095c        0xc /home/vladimir/Documentos/SOFTWARE/arduino/BluePill/primeros_ejemplos/Blink/build/core/core.a(usart_f1.c.o)
 .bss.usart2_rb
                0x0000000020000968        0xc /home/vladimir/Documentos/SOFTWARE/arduino/BluePill/primeros_ejemplos/Blink/build/core/core.a(usart_f1.c.o)
 .bss.usart3_rb
                0x0000000020000974        0xc /home/vladimir/Documentos/SOFTWARE/arduino/BluePill/primeros_ejemplos/Blink/build/core/core.a(usart_f1.c.o)
 .bss.usart2_wb
                0x0000000020000980        0xc /home/vladimir/Documentos/SOFTWARE/arduino/BluePill/primeros_ejemplos/Blink/build/core/core.a(usart_f1.c.o)
 .bss.usart3_wb
                0x000000002000098c        0xc /home/vladimir/Documentos/SOFTWARE/arduino/BluePill/primeros_ejemplos/Blink/build/core/core.a(usart_f1.c.o)
 .bss.line_dtr_rts
                0x0000000020000998        0x1 /home/vladimir/Documentos/SOFTWARE/arduino/BluePill/primeros_ejemplos/Blink/build/core/core.a(usb_cdcacm.c.o)
 .bss.vcomBufferTx
                0x0000000020000999      0x100 /home/vladimir/Documentos/SOFTWARE/arduino/BluePill/primeros_ejemplos/Blink/build/core/core.a(usb_cdcacm.c.o)
 *fill*         0x0000000020000a99        0x3 
 .bss.tx_head   0x0000000020000a9c        0x4 /home/vladimir/Documentos/SOFTWARE/arduino/BluePill/primeros_ejemplos/Blink/build/core/core.a(usb_cdcacm.c.o)
 .bss.rx_hook   0x0000000020000aa0        0x4 /home/vladimir/Documentos/SOFTWARE/arduino/BluePill/primeros_ejemplos/Blink/build/core/core.a(usb_cdcacm.c.o)
 .bss.vcomBufferRx
                0x0000000020000aa4      0x100 /home/vladimir/Documentos/SOFTWARE/arduino/BluePill/primeros_ejemplos/Blink/build/core/core.a(usb_cdcacm.c.o)
 .bss.transmitting
                0x0000000020000ba4        0x1 /home/vladimir/Documentos/SOFTWARE/arduino/BluePill/primeros_ejemplos/Blink/build/core/core.a(usb_cdcacm.c.o)
 *fill*         0x0000000020000ba5        0x3 
 .bss.rx_tail   0x0000000020000ba8        0x4 /home/vladimir/Documentos/SOFTWARE/arduino/BluePill/primeros_ejemplos/Blink/build/core/core.a(usb_cdcacm.c.o)
 .bss.iface_setup_hook
                0x0000000020000bac        0x4 /home/vladimir/Documentos/SOFTWARE/arduino/BluePill/primeros_ejemplos/Blink/build/core/core.a(usb_cdcacm.c.o)
 .bss.rx_head   0x0000000020000bb0        0x4 /home/vladimir/Documentos/SOFTWARE/arduino/BluePill/primeros_ejemplos/Blink/build/core/core.a(usb_cdcacm.c.o)
 .bss.tx_tail   0x0000000020000bb4        0x4 /home/vladimir/Documentos/SOFTWARE/arduino/BluePill/primeros_ejemplos/Blink/build/core/core.a(usb_cdcacm.c.o)
 .bss.Data_Mul_MaxPacketSize
                0x0000000020000bb8        0x1 /home/vladimir/Documentos/SOFTWARE/arduino/BluePill/primeros_ejemplos/Blink/build/core/core.a(usb_core.c.o)
                0x0000000020000bb8                Data_Mul_MaxPacketSize
 .bss._ZN9USBSerial9_hasBegunE
                0x0000000020000bb9        0x1 /home/vladimir/Documentos/SOFTWARE/arduino/BluePill/primeros_ejemplos/Blink/build/core/core.a(usb_serial.cpp.o)
                0x0000000020000bb9                USBSerial::_hasBegun
 *fill*         0x0000000020000bba        0x2 
 .bss.Serial    0x0000000020000bbc       0x10 /home/vladimir/Documentos/SOFTWARE/arduino/BluePill/primeros_ejemplos/Blink/build/core/core.a(usb_serial.cpp.o)
                0x0000000020000bbc                Serial
 .bss._ZL11reset_state
                0x0000000020000bcc        0x1 /home/vladimir/Documentos/SOFTWARE/arduino/BluePill/primeros_ejemplos/Blink/build/core/core.a(usb_serial.cpp.o)
 .bss._ZN9USBSerial11_isBlockingE
                0x0000000020000bcd        0x1 /home/vladimir/Documentos/SOFTWARE/arduino/BluePill/primeros_ejemplos/Blink/build/core/core.a(usb_serial.cpp.o)
                0x0000000020000bcd                USBSerial::_isBlocking
 *(COMMON)
 *fill*         0x0000000020000bce        0x2 
 COMMON         0x0000000020000bd0        0x4 /home/vladimir/Documentos/SOFTWARE/arduino/BluePill/primeros_ejemplos/Blink/build/core/core.a(systick.c.o)
                0x0000000020000bd0                systick_uptime_millis
 COMMON         0x0000000020000bd4        0x6 /home/vladimir/Documentos/SOFTWARE/arduino/BluePill/primeros_ejemplos/Blink/build/core/core.a(usb.c.o)
                0x0000000020000bd4                SaveRState
                0x0000000020000bd6                SaveTState
                0x0000000020000bd8                ResumeS
 COMMON         0x0000000020000bda        0x2 /home/vladimir/Documentos/SOFTWARE/arduino/BluePill/primeros_ejemplos/Blink/build/core/core.a(usb_core.c.o)
                0x0000000020000bda                StatusInfo
 COMMON         0x0000000020000bdc       0x32 /home/vladimir/Documentos/SOFTWARE/arduino/BluePill/primeros_ejemplos/Blink/build/core/core.a(usb_init.c.o)
                0x0000000020000bdc                SaveState
                0x0000000020000be0                pProperty
                0x0000000020000be4                EPindex
                0x0000000020000be8                Device_Info
                0x0000000020000c04                pUser_Standard_Requests
                0x0000000020000c08                pInformation
                0x0000000020000c0c                wInterrupt_Mask
                0x0000000020000c10                . = ALIGN (0x8)
 *fill*         0x0000000020000c0e        0x2 
                0x0000000020000c10                __bss_end__ = .
                0x0000000020000c10                _end = __bss_end__

.stab
 *(.stab)

.stabstr
 *(.stabstr)

.debug
 *(.debug)

.line
 *(.line)

.debug_srcinfo
 *(.debug_srcinfo)

.debug_sfnames
 *(.debug_sfnames)

.debug_aranges  0x0000000000000000      0xf88
 *(.debug_aranges)
 .debug_aranges
                0x0000000000000000       0x28 /home/vladimir/Documentos/SOFTWARE/arduino/BluePill/primeros_ejemplos/Blink/build/sketch/Blink.ino.cpp.o
 .debug_aranges
                0x0000000000000028       0x20 /home/vladimir/Documentos/SOFTWARE/arduino/BluePill/primeros_ejemplos/Blink/build/core/wirish/start.S.o
 .debug_aranges
                0x0000000000000048       0x20 /home/vladimir/Documentos/SOFTWARE/arduino/BluePill/primeros_ejemplos/Blink/build/core/wirish/start_c.c.o
 .debug_aranges
                0x0000000000000068       0x88 /home/vladimir/Documentos/SOFTWARE/arduino/BluePill/primeros_ejemplos/Blink/build/core/wirish/syscalls.c.o
 .debug_aranges
                0x00000000000000f0       0x28 /home/vladimir/Documentos/SOFTWARE/arduino/BluePill/primeros_ejemplos/Blink/build/core/board.cpp.o
 .debug_aranges
                0x0000000000000118       0x40 /home/vladimir/Documentos/SOFTWARE/arduino/BluePill/primeros_ejemplos/Blink/build/core/wirish/boards.cpp.o
 .debug_aranges
                0x0000000000000158       0x40 /home/vladimir/Documentos/SOFTWARE/arduino/BluePill/primeros_ejemplos/Blink/build/core/wirish/boards_setup.cpp.o
 .debug_aranges
                0x0000000000000198       0x20 /home/vladimir/Documentos/SOFTWARE/arduino/BluePill/primeros_ejemplos/Blink/build/core/core.a(exc.S.o)
 .debug_aranges
                0x00000000000001b8       0x20 /home/vladimir/Documentos/SOFTWARE/arduino/BluePill/primeros_ejemplos/Blink/build/core/core.a(isrs.S.o)
 .debug_aranges
                0x00000000000001d8       0x38 /home/vladimir/Documentos/SOFTWARE/arduino/BluePill/primeros_ejemplos/Blink/build/core/core.a(adc.c.o)
 .debug_aranges
                0x0000000000000210       0x58 /home/vladimir/Documentos/SOFTWARE/arduino/BluePill/primeros_ejemplos/Blink/build/core/core.a(adc_f1.c.o)
 .debug_aranges
                0x0000000000000268       0xa8 /home/vladimir/Documentos/SOFTWARE/arduino/BluePill/primeros_ejemplos/Blink/build/core/core.a(dma_f1.c.o)
 .debug_aranges
                0x0000000000000310       0x70 /home/vladimir/Documentos/SOFTWARE/arduino/BluePill/primeros_ejemplos/Blink/build/core/core.a(exti.c.o)
 .debug_aranges
                0x0000000000000380       0x20 /home/vladimir/Documentos/SOFTWARE/arduino/BluePill/primeros_ejemplos/Blink/build/core/core.a(exti_f1.c.o)
 .debug_aranges
                0x00000000000003a0       0x20 /home/vladimir/Documentos/SOFTWARE/arduino/BluePill/primeros_ejemplos/Blink/build/core/core.a(flash.c.o)
 .debug_aranges
                0x00000000000003c0       0x40 /home/vladimir/Documentos/SOFTWARE/arduino/BluePill/primeros_ejemplos/Blink/build/core/core.a(gpio_f1.c.o)
 .debug_aranges
                0x0000000000000400       0x50 /home/vladimir/Documentos/SOFTWARE/arduino/BluePill/primeros_ejemplos/Blink/build/core/core.a(i2c_f1.c.o)
 .debug_aranges
                0x0000000000000450       0x38 /home/vladimir/Documentos/SOFTWARE/arduino/BluePill/primeros_ejemplos/Blink/build/core/core.a(nvic.c.o)
 .debug_aranges
                0x0000000000000488       0x48 /home/vladimir/Documentos/SOFTWARE/arduino/BluePill/primeros_ejemplos/Blink/build/core/core.a(rcc.c.o)
 .debug_aranges
                0x00000000000004d0       0x48 /home/vladimir/Documentos/SOFTWARE/arduino/BluePill/primeros_ejemplos/Blink/build/core/core.a(rcc_f1.c.o)
 .debug_aranges
                0x0000000000000518       0x40 /home/vladimir/Documentos/SOFTWARE/arduino/BluePill/primeros_ejemplos/Blink/build/core/core.a(systick.c.o)
 .debug_aranges
                0x0000000000000558       0xa8 /home/vladimir/Documentos/SOFTWARE/arduino/BluePill/primeros_ejemplos/Blink/build/core/core.a(timer.c.o)
 .debug_aranges
                0x0000000000000600       0x58 /home/vladimir/Documentos/SOFTWARE/arduino/BluePill/primeros_ejemplos/Blink/build/core/core.a(usart_f1.c.o)
 .debug_aranges
                0x0000000000000658       0x20 /home/vladimir/Documentos/SOFTWARE/arduino/BluePill/primeros_ejemplos/Blink/build/core/core.a(usart_private.c.o)
 .debug_aranges
                0x0000000000000678       0x50 /home/vladimir/Documentos/SOFTWARE/arduino/BluePill/primeros_ejemplos/Blink/build/core/core.a(util.c.o)
 .debug_aranges
                0x00000000000006c8       0x38 /home/vladimir/Documentos/SOFTWARE/arduino/BluePill/primeros_ejemplos/Blink/build/core/core.a(usb.c.o)
 .debug_aranges
                0x0000000000000700      0x128 /home/vladimir/Documentos/SOFTWARE/arduino/BluePill/primeros_ejemplos/Blink/build/core/core.a(usb_cdcacm.c.o)
 .debug_aranges
                0x0000000000000828       0x20 /home/vladimir/Documentos/SOFTWARE/arduino/BluePill/primeros_ejemplos/Blink/build/core/core.a(usb_reg_map.c.o)
 .debug_aranges
                0x0000000000000848       0x98 /home/vladimir/Documentos/SOFTWARE/arduino/BluePill/primeros_ejemplos/Blink/build/core/core.a(usb_core.c.o)
 .debug_aranges
                0x00000000000008e0       0x20 /home/vladimir/Documentos/SOFTWARE/arduino/BluePill/primeros_ejemplos/Blink/build/core/core.a(usb_init.c.o)
 .debug_aranges
                0x0000000000000900       0x28 /home/vladimir/Documentos/SOFTWARE/arduino/BluePill/primeros_ejemplos/Blink/build/core/core.a(usb_mem.c.o)
 .debug_aranges
                0x0000000000000928      0x1f0 /home/vladimir/Documentos/SOFTWARE/arduino/BluePill/primeros_ejemplos/Blink/build/core/core.a(usb_regs.c.o)
 .debug_aranges
                0x0000000000000b18       0x70 /home/vladimir/Documentos/SOFTWARE/arduino/BluePill/primeros_ejemplos/Blink/build/core/core.a(HardwareSerial.cpp.o)
 .debug_aranges
                0x0000000000000b88      0x110 /home/vladimir/Documentos/SOFTWARE/arduino/BluePill/primeros_ejemplos/Blink/build/core/core.a(Print.cpp.o)
 .debug_aranges
                0x0000000000000c98       0x20 /home/vladimir/Documentos/SOFTWARE/arduino/BluePill/primeros_ejemplos/Blink/build/core/core.a(cxxabi-compat.cpp.o)
 .debug_aranges
                0x0000000000000cb8       0x28 /home/vladimir/Documentos/SOFTWARE/arduino/BluePill/primeros_ejemplos/Blink/build/core/core.a(main.cpp.o)
 .debug_aranges
                0x0000000000000ce0       0xe0 /home/vladimir/Documentos/SOFTWARE/arduino/BluePill/primeros_ejemplos/Blink/build/core/core.a(usb_serial.cpp.o)
 .debug_aranges
                0x0000000000000dc0       0x28 /home/vladimir/Documentos/SOFTWARE/arduino/BluePill/primeros_ejemplos/Blink/build/core/core.a(wirish_digital.cpp.o)
 .debug_aranges
                0x0000000000000de8       0x30 /home/vladimir/Documentos/SOFTWARE/arduino/BluePill/primeros_ejemplos/Blink/build/core/core.a(wirish_time.cpp.o)
 .debug_aranges
                0x0000000000000e18       0x20 /home/vladimir/Documentos/SOFTWARE/arduino/BluePill/primeros_ejemplos/Blink/build/core/core.a(wirish_digital_f1.cpp.o)
 .debug_aranges
                0x0000000000000e38       0x20 /home/vladimir/Documentos/SOFTWARE/arduino/BluePill/primeros_ejemplos/Blink/build/core/core.a(hooks.c.o)
 .debug_aranges
                0x0000000000000e58       0x40 /home/vladimir/Documentos/SOFTWARE/arduino/BluePill/primeros_ejemplos/Blink/build/core/core.a(bkp_f1.c.o)
 .debug_aranges
                0x0000000000000e98       0x28 /home/vladimir/Documentos/SOFTWARE/arduino/BluePill/primeros_ejemplos/Blink/build/core/core.a(dma.c.o)
 .debug_aranges
                0x0000000000000ec0       0x20 /home/vladimir/Documentos/SOFTWARE/arduino/BluePill/primeros_ejemplos/Blink/build/core/core.a(gpio.c.o)
 .debug_aranges
                0x0000000000000ee0       0x60 /home/vladimir/Documentos/SOFTWARE/arduino/BluePill/primeros_ejemplos/Blink/build/core/core.a(i2c.c.o)
 .debug_aranges
                0x0000000000000f40       0x48 /home/vladimir/Documentos/SOFTWARE/arduino/BluePill/primeros_ejemplos/Blink/build/core/core.a(usart.c.o)

.debug_pubnames
 *(.debug_pubnames)

.debug_info     0x0000000000000000    0x1fed8
 *(.debug_info .gnu.linkonce.wi.*)
 .debug_info    0x0000000000000000      0x338 /home/vladimir/Documentos/SOFTWARE/arduino/BluePill/primeros_ejemplos/Blink/build/sketch/Blink.ino.cpp.o
 .debug_info    0x0000000000000338       0xea /home/vladimir/Documentos/SOFTWARE/arduino/BluePill/primeros_ejemplos/Blink/build/core/wirish/start.S.o
 .debug_info    0x0000000000000422      0x176 /home/vladimir/Documentos/SOFTWARE/arduino/BluePill/primeros_ejemplos/Blink/build/core/wirish/start_c.c.o
 .debug_info    0x0000000000000598      0x5cd /home/vladimir/Documentos/SOFTWARE/arduino/BluePill/primeros_ejemplos/Blink/build/core/wirish/syscalls.c.o
 .debug_info    0x0000000000000b65      0xf2e /home/vladimir/Documentos/SOFTWARE/arduino/BluePill/primeros_ejemplos/Blink/build/core/board.cpp.o
 .debug_info    0x0000000000001a93     0x142d /home/vladimir/Documentos/SOFTWARE/arduino/BluePill/primeros_ejemplos/Blink/build/core/wirish/boards.cpp.o
 .debug_info    0x0000000000002ec0     0x10c5 /home/vladimir/Documentos/SOFTWARE/arduino/BluePill/primeros_ejemplos/Blink/build/core/wirish/boards_setup.cpp.o
 .debug_info    0x0000000000003f85       0xda /home/vladimir/Documentos/SOFTWARE/arduino/BluePill/primeros_ejemplos/Blink/build/core/core.a(exc.S.o)
 .debug_info    0x000000000000405f       0xef /home/vladimir/Documentos/SOFTWARE/arduino/BluePill/primeros_ejemplos/Blink/build/core/core.a(isrs.S.o)
 .debug_info    0x000000000000414e      0x79a /home/vladimir/Documentos/SOFTWARE/arduino/BluePill/primeros_ejemplos/Blink/build/core/core.a(adc.c.o)
 .debug_info    0x00000000000048e8      0xe4a /home/vladimir/Documentos/SOFTWARE/arduino/BluePill/primeros_ejemplos/Blink/build/core/core.a(adc_f1.c.o)
 .debug_info    0x0000000000005732     0x19f2 /home/vladimir/Documentos/SOFTWARE/arduino/BluePill/primeros_ejemplos/Blink/build/core/core.a(dma_f1.c.o)
 .debug_info    0x0000000000007124      0xedd /home/vladimir/Documentos/SOFTWARE/arduino/BluePill/primeros_ejemplos/Blink/build/core/core.a(exti.c.o)
 .debug_info    0x0000000000008001      0x213 /home/vladimir/Documentos/SOFTWARE/arduino/BluePill/primeros_ejemplos/Blink/build/core/core.a(exti_f1.c.o)
 .debug_info    0x0000000000008214      0x128 /home/vladimir/Documentos/SOFTWARE/arduino/BluePill/primeros_ejemplos/Blink/build/core/core.a(flash.c.o)
 .debug_info    0x000000000000833c      0x6d6 /home/vladimir/Documentos/SOFTWARE/arduino/BluePill/primeros_ejemplos/Blink/build/core/core.a(gpio_f1.c.o)
 .debug_info    0x0000000000008a12      0xbd5 /home/vladimir/Documentos/SOFTWARE/arduino/BluePill/primeros_ejemplos/Blink/build/core/core.a(i2c_f1.c.o)
 .debug_info    0x00000000000095e7      0x5a2 /home/vladimir/Documentos/SOFTWARE/arduino/BluePill/primeros_ejemplos/Blink/build/core/core.a(nvic.c.o)
 .debug_info    0x0000000000009b89      0x556 /home/vladimir/Documentos/SOFTWARE/arduino/BluePill/primeros_ejemplos/Blink/build/core/core.a(rcc.c.o)
 .debug_info    0x000000000000a0df      0xb64 /home/vladimir/Documentos/SOFTWARE/arduino/BluePill/primeros_ejemplos/Blink/build/core/core.a(rcc_f1.c.o)
 .debug_info    0x000000000000ac43      0x182 /home/vladimir/Documentos/SOFTWARE/arduino/BluePill/primeros_ejemplos/Blink/build/core/core.a(systick.c.o)
 .debug_info    0x000000000000adc5     0x1b6f /home/vladimir/Documentos/SOFTWARE/arduino/BluePill/primeros_ejemplos/Blink/build/core/core.a(timer.c.o)
 .debug_info    0x000000000000c934      0xbc4 /home/vladimir/Documentos/SOFTWARE/arduino/BluePill/primeros_ejemplos/Blink/build/core/core.a(usart_f1.c.o)
 .debug_info    0x000000000000d4f8      0x595 /home/vladimir/Documentos/SOFTWARE/arduino/BluePill/primeros_ejemplos/Blink/build/core/core.a(usart_private.c.o)
 .debug_info    0x000000000000da8d      0xad2 /home/vladimir/Documentos/SOFTWARE/arduino/BluePill/primeros_ejemplos/Blink/build/core/core.a(util.c.o)
 .debug_info    0x000000000000e55f      0xd16 /home/vladimir/Documentos/SOFTWARE/arduino/BluePill/primeros_ejemplos/Blink/build/core/core.a(usb.c.o)
 .debug_info    0x000000000000f275     0x22d2 /home/vladimir/Documentos/SOFTWARE/arduino/BluePill/primeros_ejemplos/Blink/build/core/core.a(usb_cdcacm.c.o)
 .debug_info    0x0000000000011547      0x26c /home/vladimir/Documentos/SOFTWARE/arduino/BluePill/primeros_ejemplos/Blink/build/core/core.a(usb_reg_map.c.o)
 .debug_info    0x00000000000117b3      0xddf /home/vladimir/Documentos/SOFTWARE/arduino/BluePill/primeros_ejemplos/Blink/build/core/core.a(usb_core.c.o)
 .debug_info    0x0000000000012592      0x3ed /home/vladimir/Documentos/SOFTWARE/arduino/BluePill/primeros_ejemplos/Blink/build/core/core.a(usb_init.c.o)
 .debug_info    0x000000000001297f      0x17b /home/vladimir/Documentos/SOFTWARE/arduino/BluePill/primeros_ejemplos/Blink/build/core/core.a(usb_mem.c.o)
 .debug_info    0x0000000000012afa      0xc88 /home/vladimir/Documentos/SOFTWARE/arduino/BluePill/primeros_ejemplos/Blink/build/core/core.a(usb_regs.c.o)
 .debug_info    0x0000000000013782     0x29ea /home/vladimir/Documentos/SOFTWARE/arduino/BluePill/primeros_ejemplos/Blink/build/core/core.a(HardwareSerial.cpp.o)
 .debug_info    0x000000000001616c     0x258c /home/vladimir/Documentos/SOFTWARE/arduino/BluePill/primeros_ejemplos/Blink/build/core/core.a(Print.cpp.o)
 .debug_info    0x00000000000186f8       0x33 /home/vladimir/Documentos/SOFTWARE/arduino/BluePill/primeros_ejemplos/Blink/build/core/core.a(cxxabi-compat.cpp.o)
 .debug_info    0x000000000001872b       0x99 /home/vladimir/Documentos/SOFTWARE/arduino/BluePill/primeros_ejemplos/Blink/build/core/core.a(main.cpp.o)
 .debug_info    0x00000000000187c4     0x2b76 /home/vladimir/Documentos/SOFTWARE/arduino/BluePill/primeros_ejemplos/Blink/build/core/core.a(usb_serial.cpp.o)
 .debug_info    0x000000000001b33a      0xb0b /home/vladimir/Documentos/SOFTWARE/arduino/BluePill/primeros_ejemplos/Blink/build/core/core.a(wirish_digital.cpp.o)
 .debug_info    0x000000000001be45      0x2c6 /home/vladimir/Documentos/SOFTWARE/arduino/BluePill/primeros_ejemplos/Blink/build/core/core.a(wirish_time.cpp.o)
 .debug_info    0x000000000001c10b      0xc8a /home/vladimir/Documentos/SOFTWARE/arduino/BluePill/primeros_ejemplos/Blink/build/core/core.a(wirish_digital_f1.cpp.o)
 .debug_info    0x000000000001cd95       0x33 /home/vladimir/Documentos/SOFTWARE/arduino/BluePill/primeros_ejemplos/Blink/build/core/core.a(hooks.c.o)
 .debug_info    0x000000000001cdc8      0x4ca /home/vladimir/Documentos/SOFTWARE/arduino/BluePill/primeros_ejemplos/Blink/build/core/core.a(bkp_f1.c.o)
 .debug_info    0x000000000001d292      0x6f7 /home/vladimir/Documentos/SOFTWARE/arduino/BluePill/primeros_ejemplos/Blink/build/core/core.a(dma.c.o)
 .debug_info    0x000000000001d989      0x313 /home/vladimir/Documentos/SOFTWARE/arduino/BluePill/primeros_ejemplos/Blink/build/core/core.a(gpio.c.o)
 .debug_info    0x000000000001dc9c     0x160a /home/vladimir/Documentos/SOFTWARE/arduino/BluePill/primeros_ejemplos/Blink/build/core/core.a(i2c.c.o)
 .debug_info    0x000000000001f2a6      0xc32 /home/vladimir/Documentos/SOFTWARE/arduino/BluePill/primeros_ejemplos/Blink/build/core/core.a(usart.c.o)

.debug_abbrev   0x0000000000000000     0x604e
 *(.debug_abbrev)
 .debug_abbrev  0x0000000000000000      0x115 /home/vladimir/Documentos/SOFTWARE/arduino/BluePill/primeros_ejemplos/Blink/build/sketch/Blink.ino.cpp.o
 .debug_abbrev  0x0000000000000115       0x14 /home/vladimir/Documentos/SOFTWARE/arduino/BluePill/primeros_ejemplos/Blink/build/core/wirish/start.S.o
 .debug_abbrev  0x0000000000000129      0x11f /home/vladimir/Documentos/SOFTWARE/arduino/BluePill/primeros_ejemplos/Blink/build/core/wirish/start_c.c.o
 .debug_abbrev  0x0000000000000248      0x17e /home/vladimir/Documentos/SOFTWARE/arduino/BluePill/primeros_ejemplos/Blink/build/core/wirish/syscalls.c.o
 .debug_abbrev  0x00000000000003c6      0x1ea /home/vladimir/Documentos/SOFTWARE/arduino/BluePill/primeros_ejemplos/Blink/build/core/board.cpp.o
 .debug_abbrev  0x00000000000005b0      0x3dd /home/vladimir/Documentos/SOFTWARE/arduino/BluePill/primeros_ejemplos/Blink/build/core/wirish/boards.cpp.o
 .debug_abbrev  0x000000000000098d      0x2af /home/vladimir/Documentos/SOFTWARE/arduino/BluePill/primeros_ejemplos/Blink/build/core/wirish/boards_setup.cpp.o
 .debug_abbrev  0x0000000000000c3c       0x14 /home/vladimir/Documentos/SOFTWARE/arduino/BluePill/primeros_ejemplos/Blink/build/core/core.a(exc.S.o)
 .debug_abbrev  0x0000000000000c50       0x14 /home/vladimir/Documentos/SOFTWARE/arduino/BluePill/primeros_ejemplos/Blink/build/core/core.a(isrs.S.o)
 .debug_abbrev  0x0000000000000c64      0x20b /home/vladimir/Documentos/SOFTWARE/arduino/BluePill/primeros_ejemplos/Blink/build/core/core.a(adc.c.o)
 .debug_abbrev  0x0000000000000e6f      0x2e6 /home/vladimir/Documentos/SOFTWARE/arduino/BluePill/primeros_ejemplos/Blink/build/core/core.a(adc_f1.c.o)
 .debug_abbrev  0x0000000000001155      0x3dd /home/vladimir/Documentos/SOFTWARE/arduino/BluePill/primeros_ejemplos/Blink/build/core/core.a(dma_f1.c.o)
 .debug_abbrev  0x0000000000001532      0x2a5 /home/vladimir/Documentos/SOFTWARE/arduino/BluePill/primeros_ejemplos/Blink/build/core/core.a(exti.c.o)
 .debug_abbrev  0x00000000000017d7       0xdb /home/vladimir/Documentos/SOFTWARE/arduino/BluePill/primeros_ejemplos/Blink/build/core/core.a(exti_f1.c.o)
 .debug_abbrev  0x00000000000018b2       0x9f /home/vladimir/Documentos/SOFTWARE/arduino/BluePill/primeros_ejemplos/Blink/build/core/core.a(flash.c.o)
 .debug_abbrev  0x0000000000001951      0x191 /home/vladimir/Documentos/SOFTWARE/arduino/BluePill/primeros_ejemplos/Blink/build/core/core.a(gpio_f1.c.o)
 .debug_abbrev  0x0000000000001ae2      0x202 /home/vladimir/Documentos/SOFTWARE/arduino/BluePill/primeros_ejemplos/Blink/build/core/core.a(i2c_f1.c.o)
 .debug_abbrev  0x0000000000001ce4      0x1ac /home/vladimir/Documentos/SOFTWARE/arduino/BluePill/primeros_ejemplos/Blink/build/core/core.a(nvic.c.o)
 .debug_abbrev  0x0000000000001e90      0x17f /home/vladimir/Documentos/SOFTWARE/arduino/BluePill/primeros_ejemplos/Blink/build/core/core.a(rcc.c.o)
 .debug_abbrev  0x000000000000200f      0x28c /home/vladimir/Documentos/SOFTWARE/arduino/BluePill/primeros_ejemplos/Blink/build/core/core.a(rcc_f1.c.o)
 .debug_abbrev  0x000000000000229b      0x10f /home/vladimir/Documentos/SOFTWARE/arduino/BluePill/primeros_ejemplos/Blink/build/core/core.a(systick.c.o)
 .debug_abbrev  0x00000000000023aa      0x474 /home/vladimir/Documentos/SOFTWARE/arduino/BluePill/primeros_ejemplos/Blink/build/core/core.a(timer.c.o)
 .debug_abbrev  0x000000000000281e      0x292 /home/vladimir/Documentos/SOFTWARE/arduino/BluePill/primeros_ejemplos/Blink/build/core/core.a(usart_f1.c.o)
 .debug_abbrev  0x0000000000002ab0      0x144 /home/vladimir/Documentos/SOFTWARE/arduino/BluePill/primeros_ejemplos/Blink/build/core/core.a(usart_private.c.o)
 .debug_abbrev  0x0000000000002bf4      0x2c9 /home/vladimir/Documentos/SOFTWARE/arduino/BluePill/primeros_ejemplos/Blink/build/core/core.a(util.c.o)
 .debug_abbrev  0x0000000000002ebd      0x352 /home/vladimir/Documentos/SOFTWARE/arduino/BluePill/primeros_ejemplos/Blink/build/core/core.a(usb.c.o)
 .debug_abbrev  0x000000000000320f      0x47d /home/vladimir/Documentos/SOFTWARE/arduino/BluePill/primeros_ejemplos/Blink/build/core/core.a(usb_cdcacm.c.o)
 .debug_abbrev  0x000000000000368c      0x193 /home/vladimir/Documentos/SOFTWARE/arduino/BluePill/primeros_ejemplos/Blink/build/core/core.a(usb_reg_map.c.o)
 .debug_abbrev  0x000000000000381f      0x3a6 /home/vladimir/Documentos/SOFTWARE/arduino/BluePill/primeros_ejemplos/Blink/build/core/core.a(usb_core.c.o)
 .debug_abbrev  0x0000000000003bc5      0x101 /home/vladimir/Documentos/SOFTWARE/arduino/BluePill/primeros_ejemplos/Blink/build/core/core.a(usb_init.c.o)
 .debug_abbrev  0x0000000000003cc6       0x90 /home/vladimir/Documentos/SOFTWARE/arduino/BluePill/primeros_ejemplos/Blink/build/core/core.a(usb_mem.c.o)
 .debug_abbrev  0x0000000000003d56      0x1f3 /home/vladimir/Documentos/SOFTWARE/arduino/BluePill/primeros_ejemplos/Blink/build/core/core.a(usb_regs.c.o)
 .debug_abbrev  0x0000000000003f49      0x535 /home/vladimir/Documentos/SOFTWARE/arduino/BluePill/primeros_ejemplos/Blink/build/core/core.a(HardwareSerial.cpp.o)
 .debug_abbrev  0x000000000000447e      0x414 /home/vladimir/Documentos/SOFTWARE/arduino/BluePill/primeros_ejemplos/Blink/build/core/core.a(Print.cpp.o)
 .debug_abbrev  0x0000000000004892       0x28 /home/vladimir/Documentos/SOFTWARE/arduino/BluePill/primeros_ejemplos/Blink/build/core/core.a(cxxabi-compat.cpp.o)
 .debug_abbrev  0x00000000000048ba       0x7b /home/vladimir/Documentos/SOFTWARE/arduino/BluePill/primeros_ejemplos/Blink/build/core/core.a(main.cpp.o)
 .debug_abbrev  0x0000000000004935      0x654 /home/vladimir/Documentos/SOFTWARE/arduino/BluePill/primeros_ejemplos/Blink/build/core/core.a(usb_serial.cpp.o)
 .debug_abbrev  0x0000000000004f89      0x17e /home/vladimir/Documentos/SOFTWARE/arduino/BluePill/primeros_ejemplos/Blink/build/core/core.a(wirish_digital.cpp.o)
 .debug_abbrev  0x0000000000005107      0x189 /home/vladimir/Documentos/SOFTWARE/arduino/BluePill/primeros_ejemplos/Blink/build/core/core.a(wirish_time.cpp.o)
 .debug_abbrev  0x0000000000005290      0x240 /home/vladimir/Documentos/SOFTWARE/arduino/BluePill/primeros_ejemplos/Blink/build/core/core.a(wirish_digital_f1.cpp.o)
 .debug_abbrev  0x00000000000054d0       0x26 /home/vladimir/Documentos/SOFTWARE/arduino/BluePill/primeros_ejemplos/Blink/build/core/core.a(hooks.c.o)
 .debug_abbrev  0x00000000000054f6      0x1c4 /home/vladimir/Documentos/SOFTWARE/arduino/BluePill/primeros_ejemplos/Blink/build/core/core.a(bkp_f1.c.o)
 .debug_abbrev  0x00000000000056ba      0x182 /home/vladimir/Documentos/SOFTWARE/arduino/BluePill/primeros_ejemplos/Blink/build/core/core.a(dma.c.o)
 .debug_abbrev  0x000000000000583c      0x113 /home/vladimir/Documentos/SOFTWARE/arduino/BluePill/primeros_ejemplos/Blink/build/core/core.a(gpio.c.o)
 .debug_abbrev  0x000000000000594f      0x400 /home/vladimir/Documentos/SOFTWARE/arduino/BluePill/primeros_ejemplos/Blink/build/core/core.a(i2c.c.o)
 .debug_abbrev  0x0000000000005d4f      0x2ff /home/vladimir/Documentos/SOFTWARE/arduino/BluePill/primeros_ejemplos/Blink/build/core/core.a(usart.c.o)

.debug_line     0x0000000000000000     0x9d98
 *(.debug_line)
 .debug_line    0x0000000000000000      0x36f /home/vladimir/Documentos/SOFTWARE/arduino/BluePill/primeros_ejemplos/Blink/build/sketch/Blink.ino.cpp.o
 .debug_line    0x000000000000036f       0xa8 /home/vladimir/Documentos/SOFTWARE/arduino/BluePill/primeros_ejemplos/Blink/build/core/wirish/start.S.o
 .debug_line    0x0000000000000417       0xb9 /home/vladimir/Documentos/SOFTWARE/arduino/BluePill/primeros_ejemplos/Blink/build/core/wirish/start_c.c.o
 .debug_line    0x00000000000004d0      0x2e4 /home/vladimir/Documentos/SOFTWARE/arduino/BluePill/primeros_ejemplos/Blink/build/core/wirish/syscalls.c.o
 .debug_line    0x00000000000007b4      0x3fd /home/vladimir/Documentos/SOFTWARE/arduino/BluePill/primeros_ejemplos/Blink/build/core/board.cpp.o
 .debug_line    0x0000000000000bb1      0x481 /home/vladimir/Documentos/SOFTWARE/arduino/BluePill/primeros_ejemplos/Blink/build/core/wirish/boards.cpp.o
 .debug_line    0x0000000000001032      0x467 /home/vladimir/Documentos/SOFTWARE/arduino/BluePill/primeros_ejemplos/Blink/build/core/wirish/boards_setup.cpp.o
 .debug_line    0x0000000000001499       0xab /home/vladimir/Documentos/SOFTWARE/arduino/BluePill/primeros_ejemplos/Blink/build/core/core.a(exc.S.o)
 .debug_line    0x0000000000001544       0xa8 /home/vladimir/Documentos/SOFTWARE/arduino/BluePill/primeros_ejemplos/Blink/build/core/core.a(isrs.S.o)
 .debug_line    0x00000000000015ec      0x304 /home/vladimir/Documentos/SOFTWARE/arduino/BluePill/primeros_ejemplos/Blink/build/core/core.a(adc.c.o)
 .debug_line    0x00000000000018f0      0x3b0 /home/vladimir/Documentos/SOFTWARE/arduino/BluePill/primeros_ejemplos/Blink/build/core/core.a(adc_f1.c.o)
 .debug_line    0x0000000000001ca0      0x639 /home/vladimir/Documentos/SOFTWARE/arduino/BluePill/primeros_ejemplos/Blink/build/core/core.a(dma_f1.c.o)
 .debug_line    0x00000000000022d9      0x41a /home/vladimir/Documentos/SOFTWARE/arduino/BluePill/primeros_ejemplos/Blink/build/core/core.a(exti.c.o)
 .debug_line    0x00000000000026f3      0x2fa /home/vladimir/Documentos/SOFTWARE/arduino/BluePill/primeros_ejemplos/Blink/build/core/core.a(exti_f1.c.o)
 .debug_line    0x00000000000029ed      0x286 /home/vladimir/Documentos/SOFTWARE/arduino/BluePill/primeros_ejemplos/Blink/build/core/core.a(flash.c.o)
 .debug_line    0x0000000000002c73      0x31b /home/vladimir/Documentos/SOFTWARE/arduino/BluePill/primeros_ejemplos/Blink/build/core/core.a(gpio_f1.c.o)
 .debug_line    0x0000000000002f8e      0x40a /home/vladimir/Documentos/SOFTWARE/arduino/BluePill/primeros_ejemplos/Blink/build/core/core.a(i2c_f1.c.o)
 .debug_line    0x0000000000003398      0x2ee /home/vladimir/Documentos/SOFTWARE/arduino/BluePill/primeros_ejemplos/Blink/build/core/core.a(nvic.c.o)
 .debug_line    0x0000000000003686      0x37b /home/vladimir/Documentos/SOFTWARE/arduino/BluePill/primeros_ejemplos/Blink/build/core/core.a(rcc.c.o)
 .debug_line    0x0000000000003a01      0x3c8 /home/vladimir/Documentos/SOFTWARE/arduino/BluePill/primeros_ejemplos/Blink/build/core/core.a(rcc_f1.c.o)
 .debug_line    0x0000000000003dc9      0x264 /home/vladimir/Documentos/SOFTWARE/arduino/BluePill/primeros_ejemplos/Blink/build/core/core.a(systick.c.o)
 .debug_line    0x000000000000402d      0x5bc /home/vladimir/Documentos/SOFTWARE/arduino/BluePill/primeros_ejemplos/Blink/build/core/core.a(timer.c.o)
 .debug_line    0x00000000000045e9      0x434 /home/vladimir/Documentos/SOFTWARE/arduino/BluePill/primeros_ejemplos/Blink/build/core/core.a(usart_f1.c.o)
 .debug_line    0x0000000000004a1d      0x2c2 /home/vladimir/Documentos/SOFTWARE/arduino/BluePill/primeros_ejemplos/Blink/build/core/core.a(usart_private.c.o)
 .debug_line    0x0000000000004cdf      0x38a /home/vladimir/Documentos/SOFTWARE/arduino/BluePill/primeros_ejemplos/Blink/build/core/core.a(util.c.o)
 .debug_line    0x0000000000005069      0x4e2 /home/vladimir/Documentos/SOFTWARE/arduino/BluePill/primeros_ejemplos/Blink/build/core/core.a(usb.c.o)
 .debug_line    0x000000000000554b      0x8f0 /home/vladimir/Documentos/SOFTWARE/arduino/BluePill/primeros_ejemplos/Blink/build/core/core.a(usb_cdcacm.c.o)
 .debug_line    0x0000000000005e3b      0x2b7 /home/vladimir/Documentos/SOFTWARE/arduino/BluePill/primeros_ejemplos/Blink/build/core/core.a(usb_reg_map.c.o)
 .debug_line    0x00000000000060f2      0x419 /home/vladimir/Documentos/SOFTWARE/arduino/BluePill/primeros_ejemplos/Blink/build/core/core.a(usb_core.c.o)
 .debug_line    0x000000000000650b      0x12e /home/vladimir/Documentos/SOFTWARE/arduino/BluePill/primeros_ejemplos/Blink/build/core/core.a(usb_init.c.o)
 .debug_line    0x0000000000006639      0x15a /home/vladimir/Documentos/SOFTWARE/arduino/BluePill/primeros_ejemplos/Blink/build/core/core.a(usb_mem.c.o)
 .debug_line    0x0000000000006793      0x592 /home/vladimir/Documentos/SOFTWARE/arduino/BluePill/primeros_ejemplos/Blink/build/core/core.a(usb_regs.c.o)
 .debug_line    0x0000000000006d25      0x50f /home/vladimir/Documentos/SOFTWARE/arduino/BluePill/primeros_ejemplos/Blink/build/core/core.a(HardwareSerial.cpp.o)
 .debug_line    0x0000000000007234      0x589 /home/vladimir/Documentos/SOFTWARE/arduino/BluePill/primeros_ejemplos/Blink/build/core/core.a(Print.cpp.o)
 .debug_line    0x00000000000077bd       0x94 /home/vladimir/Documentos/SOFTWARE/arduino/BluePill/primeros_ejemplos/Blink/build/core/core.a(cxxabi-compat.cpp.o)
 .debug_line    0x0000000000007851       0xa3 /home/vladimir/Documentos/SOFTWARE/arduino/BluePill/primeros_ejemplos/Blink/build/core/core.a(main.cpp.o)
 .debug_line    0x00000000000078f4      0x6a8 /home/vladimir/Documentos/SOFTWARE/arduino/BluePill/primeros_ejemplos/Blink/build/core/core.a(usb_serial.cpp.o)
 .debug_line    0x0000000000007f9c      0x338 /home/vladimir/Documentos/SOFTWARE/arduino/BluePill/primeros_ejemplos/Blink/build/core/core.a(wirish_digital.cpp.o)
 .debug_line    0x00000000000082d4      0x31c /home/vladimir/Documentos/SOFTWARE/arduino/BluePill/primeros_ejemplos/Blink/build/core/core.a(wirish_time.cpp.o)
 .debug_line    0x00000000000085f0      0x3a8 /home/vladimir/Documentos/SOFTWARE/arduino/BluePill/primeros_ejemplos/Blink/build/core/core.a(wirish_digital_f1.cpp.o)
 .debug_line    0x0000000000008998       0x8c /home/vladimir/Documentos/SOFTWARE/arduino/BluePill/primeros_ejemplos/Blink/build/core/core.a(hooks.c.o)
 .debug_line    0x0000000000008a24      0x300 /home/vladimir/Documentos/SOFTWARE/arduino/BluePill/primeros_ejemplos/Blink/build/core/core.a(bkp_f1.c.o)
 .debug_line    0x0000000000008d24      0x344 /home/vladimir/Documentos/SOFTWARE/arduino/BluePill/primeros_ejemplos/Blink/build/core/core.a(dma.c.o)
 .debug_line    0x0000000000009068      0x2ab /home/vladimir/Documentos/SOFTWARE/arduino/BluePill/primeros_ejemplos/Blink/build/core/core.a(gpio.c.o)
 .debug_line    0x0000000000009313      0x669 /home/vladimir/Documentos/SOFTWARE/arduino/BluePill/primeros_ejemplos/Blink/build/core/core.a(i2c.c.o)
 .debug_line    0x000000000000997c      0x41c /home/vladimir/Documentos/SOFTWARE/arduino/BluePill/primeros_ejemplos/Blink/build/core/core.a(usart.c.o)

.debug_frame    0x0000000000000000     0x238c
 *(.debug_frame)
 .debug_frame   0x0000000000000000       0x38 /home/vladimir/Documentos/SOFTWARE/arduino/BluePill/primeros_ejemplos/Blink/build/sketch/Blink.ino.cpp.o
 .debug_frame   0x0000000000000038       0x28 /home/vladimir/Documentos/SOFTWARE/arduino/BluePill/primeros_ejemplos/Blink/build/core/wirish/start_c.c.o
 .debug_frame   0x0000000000000060      0x130 /home/vladimir/Documentos/SOFTWARE/arduino/BluePill/primeros_ejemplos/Blink/build/core/wirish/syscalls.c.o
 .debug_frame   0x0000000000000190       0x38 /home/vladimir/Documentos/SOFTWARE/arduino/BluePill/primeros_ejemplos/Blink/build/core/board.cpp.o
 .debug_frame   0x00000000000001c8       0x84 /home/vladimir/Documentos/SOFTWARE/arduino/BluePill/primeros_ejemplos/Blink/build/core/wirish/boards.cpp.o
 .debug_frame   0x000000000000024c       0x74 /home/vladimir/Documentos/SOFTWARE/arduino/BluePill/primeros_ejemplos/Blink/build/core/wirish/boards_setup.cpp.o
 .debug_frame   0x00000000000002c0       0x64 /home/vladimir/Documentos/SOFTWARE/arduino/BluePill/primeros_ejemplos/Blink/build/core/core.a(adc.c.o)
 .debug_frame   0x0000000000000324       0xb4 /home/vladimir/Documentos/SOFTWARE/arduino/BluePill/primeros_ejemplos/Blink/build/core/core.a(adc_f1.c.o)
 .debug_frame   0x00000000000003d8      0x19c /home/vladimir/Documentos/SOFTWARE/arduino/BluePill/primeros_ejemplos/Blink/build/core/core.a(dma_f1.c.o)
 .debug_frame   0x0000000000000574      0x128 /home/vladimir/Documentos/SOFTWARE/arduino/BluePill/primeros_ejemplos/Blink/build/core/core.a(exti.c.o)
 .debug_frame   0x000000000000069c       0x20 /home/vladimir/Documentos/SOFTWARE/arduino/BluePill/primeros_ejemplos/Blink/build/core/core.a(exti_f1.c.o)
 .debug_frame   0x00000000000006bc       0x20 /home/vladimir/Documentos/SOFTWARE/arduino/BluePill/primeros_ejemplos/Blink/build/core/core.a(flash.c.o)
 .debug_frame   0x00000000000006dc       0x7c /home/vladimir/Documentos/SOFTWARE/arduino/BluePill/primeros_ejemplos/Blink/build/core/core.a(gpio_f1.c.o)
 .debug_frame   0x0000000000000758       0x9c /home/vladimir/Documentos/SOFTWARE/arduino/BluePill/primeros_ejemplos/Blink/build/core/core.a(i2c_f1.c.o)
 .debug_frame   0x00000000000007f4       0x5c /home/vladimir/Documentos/SOFTWARE/arduino/BluePill/primeros_ejemplos/Blink/build/core/core.a(nvic.c.o)
 .debug_frame   0x0000000000000850       0x70 /home/vladimir/Documentos/SOFTWARE/arduino/BluePill/primeros_ejemplos/Blink/build/core/core.a(rcc.c.o)
 .debug_frame   0x00000000000008c0       0x98 /home/vladimir/Documentos/SOFTWARE/arduino/BluePill/primeros_ejemplos/Blink/build/core/core.a(rcc_f1.c.o)
 .debug_frame   0x0000000000000958       0x68 /home/vladimir/Documentos/SOFTWARE/arduino/BluePill/primeros_ejemplos/Blink/build/core/core.a(systick.c.o)
 .debug_frame   0x00000000000009c0      0x1d0 /home/vladimir/Documentos/SOFTWARE/arduino/BluePill/primeros_ejemplos/Blink/build/core/core.a(timer.c.o)
 .debug_frame   0x0000000000000b90       0xe0 /home/vladimir/Documentos/SOFTWARE/arduino/BluePill/primeros_ejemplos/Blink/build/core/core.a(usart_f1.c.o)
 .debug_frame   0x0000000000000c70       0x28 /home/vladimir/Documentos/SOFTWARE/arduino/BluePill/primeros_ejemplos/Blink/build/core/core.a(usart_private.c.o)
 .debug_frame   0x0000000000000c98       0xc8 /home/vladimir/Documentos/SOFTWARE/arduino/BluePill/primeros_ejemplos/Blink/build/core/core.a(util.c.o)
 .debug_frame   0x0000000000000d60       0x6c /home/vladimir/Documentos/SOFTWARE/arduino/BluePill/primeros_ejemplos/Blink/build/core/core.a(usb.c.o)
 .debug_frame   0x0000000000000dcc      0x2cc /home/vladimir/Documentos/SOFTWARE/arduino/BluePill/primeros_ejemplos/Blink/build/core/core.a(usb_cdcacm.c.o)
 .debug_frame   0x0000000000001098       0x20 /home/vladimir/Documentos/SOFTWARE/arduino/BluePill/primeros_ejemplos/Blink/build/core/core.a(usb_reg_map.c.o)
 .debug_frame   0x00000000000010b8      0x1ac /home/vladimir/Documentos/SOFTWARE/arduino/BluePill/primeros_ejemplos/Blink/build/core/core.a(usb_core.c.o)
 .debug_frame   0x0000000000001264       0x28 /home/vladimir/Documentos/SOFTWARE/arduino/BluePill/primeros_ejemplos/Blink/build/core/core.a(usb_init.c.o)
 .debug_frame   0x000000000000128c       0x44 /home/vladimir/Documentos/SOFTWARE/arduino/BluePill/primeros_ejemplos/Blink/build/core/core.a(usb_mem.c.o)
 .debug_frame   0x00000000000012d0      0x3d0 /home/vladimir/Documentos/SOFTWARE/arduino/BluePill/primeros_ejemplos/Blink/build/core/core.a(usb_regs.c.o)
 .debug_frame   0x00000000000016a0      0x10c /home/vladimir/Documentos/SOFTWARE/arduino/BluePill/primeros_ejemplos/Blink/build/core/core.a(HardwareSerial.cpp.o)
 .debug_frame   0x00000000000017ac      0x378 /home/vladimir/Documentos/SOFTWARE/arduino/BluePill/primeros_ejemplos/Blink/build/core/core.a(Print.cpp.o)
 .debug_frame   0x0000000000001b24       0x20 /home/vladimir/Documentos/SOFTWARE/arduino/BluePill/primeros_ejemplos/Blink/build/core/core.a(cxxabi-compat.cpp.o)
 .debug_frame   0x0000000000001b44       0x38 /home/vladimir/Documentos/SOFTWARE/arduino/BluePill/primeros_ejemplos/Blink/build/core/core.a(main.cpp.o)
 .debug_frame   0x0000000000001b7c      0x258 /home/vladimir/Documentos/SOFTWARE/arduino/BluePill/primeros_ejemplos/Blink/build/core/core.a(usb_serial.cpp.o)
 .debug_frame   0x0000000000001dd4       0x30 /home/vladimir/Documentos/SOFTWARE/arduino/BluePill/primeros_ejemplos/Blink/build/core/core.a(wirish_digital.cpp.o)
 .debug_frame   0x0000000000001e04       0x4c /home/vladimir/Documentos/SOFTWARE/arduino/BluePill/primeros_ejemplos/Blink/build/core/core.a(wirish_time.cpp.o)
 .debug_frame   0x0000000000001e50       0x2c /home/vladimir/Documentos/SOFTWARE/arduino/BluePill/primeros_ejemplos/Blink/build/core/core.a(wirish_digital_f1.cpp.o)
 .debug_frame   0x0000000000001e7c       0x20 /home/vladimir/Documentos/SOFTWARE/arduino/BluePill/primeros_ejemplos/Blink/build/core/core.a(hooks.c.o)
 .debug_frame   0x0000000000001e9c       0x68 /home/vladimir/Documentos/SOFTWARE/arduino/BluePill/primeros_ejemplos/Blink/build/core/core.a(bkp_f1.c.o)
 .debug_frame   0x0000000000001f04       0x30 /home/vladimir/Documentos/SOFTWARE/arduino/BluePill/primeros_ejemplos/Blink/build/core/core.a(dma.c.o)
 .debug_frame   0x0000000000001f34       0x28 /home/vladimir/Documentos/SOFTWARE/arduino/BluePill/primeros_ejemplos/Blink/build/core/core.a(gpio.c.o)
 .debug_frame   0x0000000000001f5c       0xe0 /home/vladimir/Documentos/SOFTWARE/arduino/BluePill/primeros_ejemplos/Blink/build/core/core.a(i2c.c.o)
 .debug_frame   0x000000000000203c       0xb4 /home/vladimir/Documentos/SOFTWARE/arduino/BluePill/primeros_ejemplos/Blink/build/core/core.a(usart.c.o)
 .debug_frame   0x00000000000020f0       0x2c /home/vladimir/.arduino15/packages/arduino/tools/arm-none-eabi-gcc/4.8.3-2014q1/bin/../lib/gcc/arm-none-eabi/4.8.3/armv7-m/libgcc.a(_fixdfdi.o)
 .debug_frame   0x000000000000211c       0x2c /home/vladimir/.arduino15/packages/arduino/tools/arm-none-eabi-gcc/4.8.3-2014q1/bin/../lib/gcc/arm-none-eabi/4.8.3/armv7-m/libgcc.a(_fixunsdfdi.o)
 .debug_frame   0x0000000000002148       0x58 /home/vladimir/.arduino15/packages/arduino/tools/arm-none-eabi-gcc/4.8.3-2014q1/bin/../lib/gcc/arm-none-eabi/4.8.3/armv7-m/libgcc.a(bpabi.o)
 .debug_frame   0x00000000000021a0       0x34 /home/vladimir/.arduino15/packages/arduino/tools/arm-none-eabi-gcc/4.8.3-2014q1/bin/../lib/gcc/arm-none-eabi/4.8.3/armv7-m/libgcc.a(_divdi3.o)
 .debug_frame   0x00000000000021d4       0x34 /home/vladimir/.arduino15/packages/arduino/tools/arm-none-eabi-gcc/4.8.3-2014q1/bin/../lib/gcc/arm-none-eabi/4.8.3/armv7-m/libgcc.a(_udivdi3.o)
 .debug_frame   0x0000000000002208       0x20 /home/vladimir/.arduino15/packages/arduino/tools/arm-none-eabi-gcc/4.8.3-2014q1/bin/../lib/gcc/arm-none-eabi/4.8.3/../../../../arm-none-eabi/lib/armv7-m/libc.a(lib_a-errno.o)
 .debug_frame   0x0000000000002228       0x28 /home/vladimir/.arduino15/packages/arduino/tools/arm-none-eabi-gcc/4.8.3-2014q1/bin/../lib/gcc/arm-none-eabi/4.8.3/../../../../arm-none-eabi/lib/armv7-m/libc.a(lib_a-exit.o)
 .debug_frame   0x0000000000002250       0x2c /home/vladimir/.arduino15/packages/arduino/tools/arm-none-eabi-gcc/4.8.3-2014q1/bin/../lib/gcc/arm-none-eabi/4.8.3/../../../../arm-none-eabi/lib/armv7-m/libc.a(lib_a-init.o)
 .debug_frame   0x000000000000227c       0x2c /home/vladimir/.arduino15/packages/arduino/tools/arm-none-eabi-gcc/4.8.3-2014q1/bin/../lib/gcc/arm-none-eabi/4.8.3/../../../../arm-none-eabi/lib/armv7-m/libc.a(lib_a-memset.o)
 .debug_frame   0x00000000000022a8       0x20 /home/vladimir/.arduino15/packages/arduino/tools/arm-none-eabi-gcc/4.8.3-2014q1/bin/../lib/gcc/arm-none-eabi/4.8.3/../../../../arm-none-eabi/lib/armv7-m/libc.a(lib_a-strlen.o)
 .debug_frame   0x00000000000022c8       0x48 /home/vladimir/.arduino15/packages/arduino/tools/arm-none-eabi-gcc/4.8.3-2014q1/bin/../lib/gcc/arm-none-eabi/4.8.3/../../../../arm-none-eabi/lib/armv7-m/libc.a(lib_a-__call_atexit.o)
 .debug_frame   0x0000000000002310       0x20 /home/vladimir/.arduino15/packages/arduino/tools/arm-none-eabi-gcc/4.8.3-2014q1/bin/../lib/gcc/arm-none-eabi/4.8.3/../../../../arm-none-eabi/lib/armv7-m/libc.a(lib_a-atexit.o)
 .debug_frame   0x0000000000002330       0x2c /home/vladimir/.arduino15/packages/arduino/tools/arm-none-eabi-gcc/4.8.3-2014q1/bin/../lib/gcc/arm-none-eabi/4.8.3/../../../../arm-none-eabi/lib/armv7-m/libc.a(lib_a-fini.o)
 .debug_frame   0x000000000000235c       0x30 /home/vladimir/.arduino15/packages/arduino/tools/arm-none-eabi-gcc/4.8.3-2014q1/bin/../lib/gcc/arm-none-eabi/4.8.3/../../../../arm-none-eabi/lib/armv7-m/libc.a(lib_a-__atexit.o)

.debug_str      0x0000000000000000     0x79be
 *(.debug_str)
 .debug_str     0x0000000000000000      0x379 /home/vladimir/Documentos/SOFTWARE/arduino/BluePill/primeros_ejemplos/Blink/build/sketch/Blink.ino.cpp.o
                                        0x3f9 (size before relaxing)
 .debug_str     0x0000000000000379      0x1c1 /home/vladimir/Documentos/SOFTWARE/arduino/BluePill/primeros_ejemplos/Blink/build/core/wirish/start_c.c.o
                                        0x1ff (size before relaxing)
 .debug_str     0x000000000000053a      0x1da /home/vladimir/Documentos/SOFTWARE/arduino/BluePill/primeros_ejemplos/Blink/build/core/wirish/syscalls.c.o
                                        0x381 (size before relaxing)
 .debug_str     0x0000000000000714      0xa69 /home/vladimir/Documentos/SOFTWARE/arduino/BluePill/primeros_ejemplos/Blink/build/core/board.cpp.o
                                        0xd2f (size before relaxing)
 .debug_str     0x000000000000117d      0x772 /home/vladimir/Documentos/SOFTWARE/arduino/BluePill/primeros_ejemplos/Blink/build/core/wirish/boards.cpp.o
                                       0x1136 (size before relaxing)
 .debug_str     0x00000000000018ef      0x52f /home/vladimir/Documentos/SOFTWARE/arduino/BluePill/primeros_ejemplos/Blink/build/core/wirish/boards_setup.cpp.o
                                       0x12ae (size before relaxing)
 .debug_str     0x0000000000001e1e      0x22c /home/vladimir/Documentos/SOFTWARE/arduino/BluePill/primeros_ejemplos/Blink/build/core/core.a(adc.c.o)
                                        0xac9 (size before relaxing)
 .debug_str     0x000000000000204a      0x16b /home/vladimir/Documentos/SOFTWARE/arduino/BluePill/primeros_ejemplos/Blink/build/core/core.a(adc_f1.c.o)
                                        0xde4 (size before relaxing)
 .debug_str     0x00000000000021b5      0xac7 /home/vladimir/Documentos/SOFTWARE/arduino/BluePill/primeros_ejemplos/Blink/build/core/core.a(dma_f1.c.o)
                                       0x138c (size before relaxing)
 .debug_str     0x0000000000002c7c      0x248 /home/vladimir/Documentos/SOFTWARE/arduino/BluePill/primeros_ejemplos/Blink/build/core/core.a(exti.c.o)
                                        0x943 (size before relaxing)
 .debug_str     0x0000000000002ec4       0xa5 /home/vladimir/Documentos/SOFTWARE/arduino/BluePill/primeros_ejemplos/Blink/build/core/core.a(exti_f1.c.o)
                                        0x2ee (size before relaxing)
 .debug_str     0x0000000000002f69       0x72 /home/vladimir/Documentos/SOFTWARE/arduino/BluePill/primeros_ejemplos/Blink/build/core/core.a(flash.c.o)
                                        0x20d (size before relaxing)
 .debug_str     0x0000000000002fdb      0x2ac /home/vladimir/Documentos/SOFTWARE/arduino/BluePill/primeros_ejemplos/Blink/build/core/core.a(gpio_f1.c.o)
                                        0x7c5 (size before relaxing)
 .debug_str     0x0000000000003287      0x231 /home/vladimir/Documentos/SOFTWARE/arduino/BluePill/primeros_ejemplos/Blink/build/core/core.a(i2c_f1.c.o)
                                        0xd22 (size before relaxing)
 .debug_str     0x00000000000034b8       0xe1 /home/vladimir/Documentos/SOFTWARE/arduino/BluePill/primeros_ejemplos/Blink/build/core/core.a(nvic.c.o)
                                        0x716 (size before relaxing)
 .debug_str     0x0000000000003599      0x105 /home/vladimir/Documentos/SOFTWARE/arduino/BluePill/primeros_ejemplos/Blink/build/core/core.a(rcc.c.o)
                                        0x562 (size before relaxing)
 .debug_str     0x000000000000369e       0xf9 /home/vladimir/Documentos/SOFTWARE/arduino/BluePill/primeros_ejemplos/Blink/build/core/core.a(rcc_f1.c.o)
                                        0x803 (size before relaxing)
 .debug_str     0x0000000000003797       0xde /home/vladimir/Documentos/SOFTWARE/arduino/BluePill/primeros_ejemplos/Blink/build/core/core.a(systick.c.o)
                                        0x273 (size before relaxing)
 .debug_str     0x0000000000003875      0x3ce /home/vladimir/Documentos/SOFTWARE/arduino/BluePill/primeros_ejemplos/Blink/build/core/core.a(timer.c.o)
                                        0xebc (size before relaxing)
 .debug_str     0x0000000000003c43      0x1a1 /home/vladimir/Documentos/SOFTWARE/arduino/BluePill/primeros_ejemplos/Blink/build/core/core.a(usart_f1.c.o)
                                        0xacd (size before relaxing)
 .debug_str     0x0000000000003de4       0x6e /home/vladimir/Documentos/SOFTWARE/arduino/BluePill/primeros_ejemplos/Blink/build/core/core.a(usart_private.c.o)
                                        0x898 (size before relaxing)
 .debug_str     0x0000000000003e52      0x129 /home/vladimir/Documentos/SOFTWARE/arduino/BluePill/primeros_ejemplos/Blink/build/core/core.a(util.c.o)
                                        0xa45 (size before relaxing)
 .debug_str     0x0000000000003f7b      0x617 /home/vladimir/Documentos/SOFTWARE/arduino/BluePill/primeros_ejemplos/Blink/build/core/core.a(usb.c.o)
                                        0xa70 (size before relaxing)
 .debug_str     0x0000000000004592      0x9a4 /home/vladimir/Documentos/SOFTWARE/arduino/BluePill/primeros_ejemplos/Blink/build/core/core.a(usb_cdcacm.c.o)
                                       0x1841 (size before relaxing)
 .debug_str     0x0000000000004f36       0x9b /home/vladimir/Documentos/SOFTWARE/arduino/BluePill/primeros_ejemplos/Blink/build/core/core.a(usb_reg_map.c.o)
                                        0x296 (size before relaxing)
 .debug_str     0x0000000000004fd1      0x49b /home/vladimir/Documentos/SOFTWARE/arduino/BluePill/primeros_ejemplos/Blink/build/core/core.a(usb_core.c.o)
                                        0xace (size before relaxing)
 .debug_str     0x000000000000546c       0xa0 /home/vladimir/Documentos/SOFTWARE/arduino/BluePill/primeros_ejemplos/Blink/build/core/core.a(usb_init.c.o)
                                        0x532 (size before relaxing)
 .debug_str     0x000000000000550c       0xa4 /home/vladimir/Documentos/SOFTWARE/arduino/BluePill/primeros_ejemplos/Blink/build/core/core.a(usb_mem.c.o)
                                        0x1e8 (size before relaxing)
 .debug_str     0x00000000000055b0      0x3e5 /home/vladimir/Documentos/SOFTWARE/arduino/BluePill/primeros_ejemplos/Blink/build/core/core.a(usb_regs.c.o)
                                        0x570 (size before relaxing)
 .debug_str     0x0000000000005995      0xfb4 /home/vladimir/Documentos/SOFTWARE/arduino/BluePill/primeros_ejemplos/Blink/build/core/core.a(HardwareSerial.cpp.o)
                                       0x1c0c (size before relaxing)
 .debug_str     0x0000000000006949      0x42c /home/vladimir/Documentos/SOFTWARE/arduino/BluePill/primeros_ejemplos/Blink/build/core/core.a(Print.cpp.o)
                                        0xfda (size before relaxing)
 .debug_str     0x0000000000006d75       0x7a /home/vladimir/Documentos/SOFTWARE/arduino/BluePill/primeros_ejemplos/Blink/build/core/core.a(cxxabi-compat.cpp.o)
                                        0x179 (size before relaxing)
 .debug_str     0x0000000000006def       0x72 /home/vladimir/Documentos/SOFTWARE/arduino/BluePill/primeros_ejemplos/Blink/build/core/core.a(main.cpp.o)
                                        0x1a2 (size before relaxing)
 .debug_str     0x0000000000006e61      0x473 /home/vladimir/Documentos/SOFTWARE/arduino/BluePill/primeros_ejemplos/Blink/build/core/core.a(usb_serial.cpp.o)
                                       0x1da0 (size before relaxing)
 .debug_str     0x00000000000072d4       0x93 /home/vladimir/Documentos/SOFTWARE/arduino/BluePill/primeros_ejemplos/Blink/build/core/core.a(wirish_digital.cpp.o)
                                        0xac2 (size before relaxing)
 .debug_str     0x0000000000007367       0xb7 /home/vladimir/Documentos/SOFTWARE/arduino/BluePill/primeros_ejemplos/Blink/build/core/core.a(wirish_time.cpp.o)
                                        0x358 (size before relaxing)
 .debug_str     0x000000000000741e       0x7e /home/vladimir/Documentos/SOFTWARE/arduino/BluePill/primeros_ejemplos/Blink/build/core/core.a(wirish_digital_f1.cpp.o)
                                        0xc51 (size before relaxing)
 .debug_str     0x000000000000749c       0x65 /home/vladimir/Documentos/SOFTWARE/arduino/BluePill/primeros_ejemplos/Blink/build/core/core.a(hooks.c.o)
                                        0x12f (size before relaxing)
 .debug_str     0x0000000000007501       0xa9 /home/vladimir/Documentos/SOFTWARE/arduino/BluePill/primeros_ejemplos/Blink/build/core/core.a(bkp_f1.c.o)
                                        0x482 (size before relaxing)
 .debug_str     0x00000000000075aa      0x13c /home/vladimir/Documentos/SOFTWARE/arduino/BluePill/primeros_ejemplos/Blink/build/core/core.a(dma.c.o)
                                        0xa41 (size before relaxing)
 .debug_str     0x00000000000076e6       0x65 /home/vladimir/Documentos/SOFTWARE/arduino/BluePill/primeros_ejemplos/Blink/build/core/core.a(gpio.c.o)
                                        0x451 (size before relaxing)
 .debug_str     0x000000000000774b      0x1c6 /home/vladimir/Documentos/SOFTWARE/arduino/BluePill/primeros_ejemplos/Blink/build/core/core.a(i2c.c.o)
                                        0xe79 (size before relaxing)
 .debug_str     0x0000000000007911       0xad /home/vladimir/Documentos/SOFTWARE/arduino/BluePill/primeros_ejemplos/Blink/build/core/core.a(usart.c.o)
                                        0x9d9 (size before relaxing)

.debug_loc      0x0000000000000000     0x8b9c
 *(.debug_loc)
 .debug_loc     0x0000000000000000       0xa5 /home/vladimir/Documentos/SOFTWARE/arduino/BluePill/primeros_ejemplos/Blink/build/core/wirish/start_c.c.o
 .debug_loc     0x00000000000000a5      0x38a /home/vladimir/Documentos/SOFTWARE/arduino/BluePill/primeros_ejemplos/Blink/build/core/wirish/syscalls.c.o
 .debug_loc     0x000000000000042f      0x246 /home/vladimir/Documentos/SOFTWARE/arduino/BluePill/primeros_ejemplos/Blink/build/core/wirish/boards.cpp.o
 .debug_loc     0x0000000000000675       0x13 /home/vladimir/Documentos/SOFTWARE/arduino/BluePill/primeros_ejemplos/Blink/build/core/wirish/boards_setup.cpp.o
 .debug_loc     0x0000000000000688      0x145 /home/vladimir/Documentos/SOFTWARE/arduino/BluePill/primeros_ejemplos/Blink/build/core/core.a(adc.c.o)
 .debug_loc     0x00000000000007cd      0x2c7 /home/vladimir/Documentos/SOFTWARE/arduino/BluePill/primeros_ejemplos/Blink/build/core/core.a(adc_f1.c.o)
 .debug_loc     0x0000000000000a94      0xbfb /home/vladimir/Documentos/SOFTWARE/arduino/BluePill/primeros_ejemplos/Blink/build/core/core.a(dma_f1.c.o)
 .debug_loc     0x000000000000168f      0x6f0 /home/vladimir/Documentos/SOFTWARE/arduino/BluePill/primeros_ejemplos/Blink/build/core/core.a(exti.c.o)
 .debug_loc     0x0000000000001d7f       0x42 /home/vladimir/Documentos/SOFTWARE/arduino/BluePill/primeros_ejemplos/Blink/build/core/core.a(exti_f1.c.o)
 .debug_loc     0x0000000000001dc1       0x3f /home/vladimir/Documentos/SOFTWARE/arduino/BluePill/primeros_ejemplos/Blink/build/core/core.a(flash.c.o)
 .debug_loc     0x0000000000001e00      0x267 /home/vladimir/Documentos/SOFTWARE/arduino/BluePill/primeros_ejemplos/Blink/build/core/core.a(gpio_f1.c.o)
 .debug_loc     0x0000000000002067      0x1c4 /home/vladimir/Documentos/SOFTWARE/arduino/BluePill/primeros_ejemplos/Blink/build/core/core.a(i2c_f1.c.o)
 .debug_loc     0x000000000000222b      0x121 /home/vladimir/Documentos/SOFTWARE/arduino/BluePill/primeros_ejemplos/Blink/build/core/core.a(nvic.c.o)
 .debug_loc     0x000000000000234c      0x131 /home/vladimir/Documentos/SOFTWARE/arduino/BluePill/primeros_ejemplos/Blink/build/core/core.a(rcc.c.o)
 .debug_loc     0x000000000000247d      0x352 /home/vladimir/Documentos/SOFTWARE/arduino/BluePill/primeros_ejemplos/Blink/build/core/core.a(rcc_f1.c.o)
 .debug_loc     0x00000000000027cf      0xcd0 /home/vladimir/Documentos/SOFTWARE/arduino/BluePill/primeros_ejemplos/Blink/build/core/core.a(timer.c.o)
 .debug_loc     0x000000000000349f      0x2c6 /home/vladimir/Documentos/SOFTWARE/arduino/BluePill/primeros_ejemplos/Blink/build/core/core.a(usart_f1.c.o)
 .debug_loc     0x0000000000003765       0x3f /home/vladimir/Documentos/SOFTWARE/arduino/BluePill/primeros_ejemplos/Blink/build/core/core.a(usart_private.c.o)
 .debug_loc     0x00000000000037a4      0x27f /home/vladimir/Documentos/SOFTWARE/arduino/BluePill/primeros_ejemplos/Blink/build/core/core.a(util.c.o)
 .debug_loc     0x0000000000003a23      0x4c8 /home/vladimir/Documentos/SOFTWARE/arduino/BluePill/primeros_ejemplos/Blink/build/core/core.a(usb.c.o)
 .debug_loc     0x0000000000003eeb      0xaab /home/vladimir/Documentos/SOFTWARE/arduino/BluePill/primeros_ejemplos/Blink/build/core/core.a(usb_cdcacm.c.o)
 .debug_loc     0x0000000000004996       0xf5 /home/vladimir/Documentos/SOFTWARE/arduino/BluePill/primeros_ejemplos/Blink/build/core/core.a(usb_reg_map.c.o)
 .debug_loc     0x0000000000004a8b      0x7a1 /home/vladimir/Documentos/SOFTWARE/arduino/BluePill/primeros_ejemplos/Blink/build/core/core.a(usb_core.c.o)
 .debug_loc     0x000000000000522c      0x293 /home/vladimir/Documentos/SOFTWARE/arduino/BluePill/primeros_ejemplos/Blink/build/core/core.a(usb_mem.c.o)
 .debug_loc     0x00000000000054bf      0xbab /home/vladimir/Documentos/SOFTWARE/arduino/BluePill/primeros_ejemplos/Blink/build/core/core.a(usb_regs.c.o)
 .debug_loc     0x000000000000606a      0x39a /home/vladimir/Documentos/SOFTWARE/arduino/BluePill/primeros_ejemplos/Blink/build/core/core.a(HardwareSerial.cpp.o)
 .debug_loc     0x0000000000006404     0x10a7 /home/vladimir/Documentos/SOFTWARE/arduino/BluePill/primeros_ejemplos/Blink/build/core/core.a(Print.cpp.o)
 .debug_loc     0x00000000000074ab      0x768 /home/vladimir/Documentos/SOFTWARE/arduino/BluePill/primeros_ejemplos/Blink/build/core/core.a(usb_serial.cpp.o)
 .debug_loc     0x0000000000007c13       0x7c /home/vladimir/Documentos/SOFTWARE/arduino/BluePill/primeros_ejemplos/Blink/build/core/core.a(wirish_digital.cpp.o)
 .debug_loc     0x0000000000007c8f       0x82 /home/vladimir/Documentos/SOFTWARE/arduino/BluePill/primeros_ejemplos/Blink/build/core/core.a(wirish_time.cpp.o)
 .debug_loc     0x0000000000007d11      0x137 /home/vladimir/Documentos/SOFTWARE/arduino/BluePill/primeros_ejemplos/Blink/build/core/core.a(wirish_digital_f1.cpp.o)
 .debug_loc     0x0000000000007e48       0xb3 /home/vladimir/Documentos/SOFTWARE/arduino/BluePill/primeros_ejemplos/Blink/build/core/core.a(bkp_f1.c.o)
 .debug_loc     0x0000000000007efb       0x42 /home/vladimir/Documentos/SOFTWARE/arduino/BluePill/primeros_ejemplos/Blink/build/core/core.a(dma.c.o)
 .debug_loc     0x0000000000007f3d       0x2c /home/vladimir/Documentos/SOFTWARE/arduino/BluePill/primeros_ejemplos/Blink/build/core/core.a(gpio.c.o)
 .debug_loc     0x0000000000007f69      0x884 /home/vladimir/Documentos/SOFTWARE/arduino/BluePill/primeros_ejemplos/Blink/build/core/core.a(i2c.c.o)
 .debug_loc     0x00000000000087ed      0x3af /home/vladimir/Documentos/SOFTWARE/arduino/BluePill/primeros_ejemplos/Blink/build/core/core.a(usart.c.o)

.debug_macinfo
 *(.debug_macinfo)

.debug_weaknames
 *(.debug_weaknames)

.debug_funcnames
 *(.debug_funcnames)

.debug_typenames
 *(.debug_typenames)

.debug_varnames
 *(.debug_varnames)

.note.gnu.arm.ident
 *(.note.gnu.arm.ident)

.ARM.attributes
                0x0000000000000000       0x29
 *(.ARM.attributes)
 .ARM.attributes
                0x0000000000000000       0x1d /home/vladimir/.arduino15/packages/arduino/tools/arm-none-eabi-gcc/4.8.3-2014q1/bin/../lib/gcc/arm-none-eabi/4.8.3/armv7-m/crti.o
 .ARM.attributes
                0x000000000000001d       0x2d /home/vladimir/.arduino15/packages/arduino/tools/arm-none-eabi-gcc/4.8.3-2014q1/bin/../lib/gcc/arm-none-eabi/4.8.3/armv7-m/crtbegin.o
 .ARM.attributes
                0x000000000000004a       0x1b /home/vladimir/.arduino15/packages/arduino/tools/arm-none-eabi-gcc/4.8.3-2014q1/bin/../lib/gcc/arm-none-eabi/4.8.3/../../../../arm-none-eabi/lib/armv7-m/crt0.o
 .ARM.attributes
                0x0000000000000065       0x33 /home/vladimir/Documentos/SOFTWARE/arduino/BluePill/primeros_ejemplos/Blink/build/sketch/Blink.ino.cpp.o
 .ARM.attributes
                0x0000000000000098       0x1b /home/vladimir/Documentos/SOFTWARE/arduino/BluePill/primeros_ejemplos/Blink/build/core/wirish/start.S.o
 .ARM.attributes
                0x00000000000000b3       0x33 /home/vladimir/Documentos/SOFTWARE/arduino/BluePill/primeros_ejemplos/Blink/build/core/wirish/start_c.c.o
 .ARM.attributes
                0x00000000000000e6       0x33 /home/vladimir/Documentos/SOFTWARE/arduino/BluePill/primeros_ejemplos/Blink/build/core/wirish/syscalls.c.o
 .ARM.attributes
                0x0000000000000119       0x33 /home/vladimir/Documentos/SOFTWARE/arduino/BluePill/primeros_ejemplos/Blink/build/core/board.cpp.o
 .ARM.attributes
                0x000000000000014c       0x33 /home/vladimir/Documentos/SOFTWARE/arduino/BluePill/primeros_ejemplos/Blink/build/core/wirish/boards.cpp.o
 .ARM.attributes
                0x000000000000017f       0x33 /home/vladimir/Documentos/SOFTWARE/arduino/BluePill/primeros_ejemplos/Blink/build/core/wirish/boards_setup.cpp.o
 .ARM.attributes
                0x00000000000001b2       0x1b /home/vladimir/Documentos/SOFTWARE/arduino/BluePill/primeros_ejemplos/Blink/build/core/core.a(exc.S.o)
 .ARM.attributes
                0x00000000000001cd       0x1b /home/vladimir/Documentos/SOFTWARE/arduino/BluePill/primeros_ejemplos/Blink/build/core/core.a(isrs.S.o)
 .ARM.attributes
                0x00000000000001e8       0x1b /home/vladimir/Documentos/SOFTWARE/arduino/BluePill/primeros_ejemplos/Blink/build/core/core.a(vector_table.S.o)
 .ARM.attributes
                0x0000000000000203       0x33 /home/vladimir/Documentos/SOFTWARE/arduino/BluePill/primeros_ejemplos/Blink/build/core/core.a(adc.c.o)
 .ARM.attributes
                0x0000000000000236       0x33 /home/vladimir/Documentos/SOFTWARE/arduino/BluePill/primeros_ejemplos/Blink/build/core/core.a(adc_f1.c.o)
 .ARM.attributes
                0x0000000000000269       0x33 /home/vladimir/Documentos/SOFTWARE/arduino/BluePill/primeros_ejemplos/Blink/build/core/core.a(dma_f1.c.o)
 .ARM.attributes
                0x000000000000029c       0x33 /home/vladimir/Documentos/SOFTWARE/arduino/BluePill/primeros_ejemplos/Blink/build/core/core.a(exti.c.o)
 .ARM.attributes
                0x00000000000002cf       0x33 /home/vladimir/Documentos/SOFTWARE/arduino/BluePill/primeros_ejemplos/Blink/build/core/core.a(exti_f1.c.o)
 .ARM.attributes
                0x0000000000000302       0x33 /home/vladimir/Documentos/SOFTWARE/arduino/BluePill/primeros_ejemplos/Blink/build/core/core.a(flash.c.o)
 .ARM.attributes
                0x0000000000000335       0x33 /home/vladimir/Documentos/SOFTWARE/arduino/BluePill/primeros_ejemplos/Blink/build/core/core.a(gpio_f1.c.o)
 .ARM.attributes
                0x0000000000000368       0x33 /home/vladimir/Documentos/SOFTWARE/arduino/BluePill/primeros_ejemplos/Blink/build/core/core.a(i2c_f1.c.o)
 .ARM.attributes
                0x000000000000039b       0x33 /home/vladimir/Documentos/SOFTWARE/arduino/BluePill/primeros_ejemplos/Blink/build/core/core.a(nvic.c.o)
 .ARM.attributes
                0x00000000000003ce       0x33 /home/vladimir/Documentos/SOFTWARE/arduino/BluePill/primeros_ejemplos/Blink/build/core/core.a(rcc.c.o)
 .ARM.attributes
                0x0000000000000401       0x33 /home/vladimir/Documentos/SOFTWARE/arduino/BluePill/primeros_ejemplos/Blink/build/core/core.a(rcc_f1.c.o)
 .ARM.attributes
                0x0000000000000434       0x33 /home/vladimir/Documentos/SOFTWARE/arduino/BluePill/primeros_ejemplos/Blink/build/core/core.a(systick.c.o)
 .ARM.attributes
                0x0000000000000467       0x33 /home/vladimir/Documentos/SOFTWARE/arduino/BluePill/primeros_ejemplos/Blink/build/core/core.a(timer.c.o)
 .ARM.attributes
                0x000000000000049a       0x33 /home/vladimir/Documentos/SOFTWARE/arduino/BluePill/primeros_ejemplos/Blink/build/core/core.a(usart_f1.c.o)
 .ARM.attributes
                0x00000000000004cd       0x33 /home/vladimir/Documentos/SOFTWARE/arduino/BluePill/primeros_ejemplos/Blink/build/core/core.a(usart_private.c.o)
 .ARM.attributes
                0x0000000000000500       0x33 /home/vladimir/Documentos/SOFTWARE/arduino/BluePill/primeros_ejemplos/Blink/build/core/core.a(util.c.o)
 .ARM.attributes
                0x0000000000000533       0x33 /home/vladimir/Documentos/SOFTWARE/arduino/BluePill/primeros_ejemplos/Blink/build/core/core.a(usb.c.o)
 .ARM.attributes
                0x0000000000000566       0x33 /home/vladimir/Documentos/SOFTWARE/arduino/BluePill/primeros_ejemplos/Blink/build/core/core.a(usb_cdcacm.c.o)
 .ARM.attributes
                0x0000000000000599       0x33 /home/vladimir/Documentos/SOFTWARE/arduino/BluePill/primeros_ejemplos/Blink/build/core/core.a(usb_reg_map.c.o)
 .ARM.attributes
                0x00000000000005cc       0x33 /home/vladimir/Documentos/SOFTWARE/arduino/BluePill/primeros_ejemplos/Blink/build/core/core.a(usb_core.c.o)
 .ARM.attributes
                0x00000000000005ff       0x33 /home/vladimir/Documentos/SOFTWARE/arduino/BluePill/primeros_ejemplos/Blink/build/core/core.a(usb_init.c.o)
 .ARM.attributes
                0x0000000000000632       0x33 /home/vladimir/Documentos/SOFTWARE/arduino/BluePill/primeros_ejemplos/Blink/build/core/core.a(usb_mem.c.o)
 .ARM.attributes
                0x0000000000000665       0x33 /home/vladimir/Documentos/SOFTWARE/arduino/BluePill/primeros_ejemplos/Blink/build/core/core.a(usb_regs.c.o)
 .ARM.attributes
                0x0000000000000698       0x33 /home/vladimir/Documentos/SOFTWARE/arduino/BluePill/primeros_ejemplos/Blink/build/core/core.a(HardwareSerial.cpp.o)
 .ARM.attributes
                0x00000000000006cb       0x33 /home/vladimir/Documentos/SOFTWARE/arduino/BluePill/primeros_ejemplos/Blink/build/core/core.a(Print.cpp.o)
 .ARM.attributes
                0x00000000000006fe       0x33 /home/vladimir/Documentos/SOFTWARE/arduino/BluePill/primeros_ejemplos/Blink/build/core/core.a(cxxabi-compat.cpp.o)
 .ARM.attributes
                0x0000000000000731       0x33 /home/vladimir/Documentos/SOFTWARE/arduino/BluePill/primeros_ejemplos/Blink/build/core/core.a(main.cpp.o)
 .ARM.attributes
                0x0000000000000764       0x33 /home/vladimir/Documentos/SOFTWARE/arduino/BluePill/primeros_ejemplos/Blink/build/core/core.a(usb_serial.cpp.o)
 .ARM.attributes
                0x0000000000000797       0x33 /home/vladimir/Documentos/SOFTWARE/arduino/BluePill/primeros_ejemplos/Blink/build/core/core.a(wirish_digital.cpp.o)
 .ARM.attributes
                0x00000000000007ca       0x33 /home/vladimir/Documentos/SOFTWARE/arduino/BluePill/primeros_ejemplos/Blink/build/core/core.a(wirish_time.cpp.o)
 .ARM.attributes
                0x00000000000007fd       0x33 /home/vladimir/Documentos/SOFTWARE/arduino/BluePill/primeros_ejemplos/Blink/build/core/core.a(wirish_digital_f1.cpp.o)
 .ARM.attributes
                0x0000000000000830       0x33 /home/vladimir/Documentos/SOFTWARE/arduino/BluePill/primeros_ejemplos/Blink/build/core/core.a(hooks.c.o)
 .ARM.attributes
                0x0000000000000863       0x33 /home/vladimir/Documentos/SOFTWARE/arduino/BluePill/primeros_ejemplos/Blink/build/core/core.a(bkp_f1.c.o)
 .ARM.attributes
                0x0000000000000896       0x33 /home/vladimir/Documentos/SOFTWARE/arduino/BluePill/primeros_ejemplos/Blink/build/core/core.a(dma.c.o)
 .ARM.attributes
                0x00000000000008c9       0x33 /home/vladimir/Documentos/SOFTWARE/arduino/BluePill/primeros_ejemplos/Blink/build/core/core.a(gpio.c.o)
 .ARM.attributes
                0x00000000000008fc       0x33 /home/vladimir/Documentos/SOFTWARE/arduino/BluePill/primeros_ejemplos/Blink/build/core/core.a(i2c.c.o)
 .ARM.attributes
                0x000000000000092f       0x33 /home/vladimir/Documentos/SOFTWARE/arduino/BluePill/primeros_ejemplos/Blink/build/core/core.a(usart.c.o)
 .ARM.attributes
                0x0000000000000962       0x1d /home/vladimir/.arduino15/packages/arduino/tools/arm-none-eabi-gcc/4.8.3-2014q1/bin/../lib/gcc/arm-none-eabi/4.8.3/armv7-m/libgcc.a(_arm_addsubdf3.o)
 .ARM.attributes
                0x000000000000097f       0x1d /home/vladimir/.arduino15/packages/arduino/tools/arm-none-eabi-gcc/4.8.3-2014q1/bin/../lib/gcc/arm-none-eabi/4.8.3/armv7-m/libgcc.a(_arm_muldivdf3.o)
 .ARM.attributes
                0x000000000000099c       0x1d /home/vladimir/.arduino15/packages/arduino/tools/arm-none-eabi-gcc/4.8.3-2014q1/bin/../lib/gcc/arm-none-eabi/4.8.3/armv7-m/libgcc.a(_arm_cmpdf2.o)
 .ARM.attributes
                0x00000000000009b9       0x1d /home/vladimir/.arduino15/packages/arduino/tools/arm-none-eabi-gcc/4.8.3-2014q1/bin/../lib/gcc/arm-none-eabi/4.8.3/armv7-m/libgcc.a(_arm_fixdfsi.o)
 .ARM.attributes
                0x00000000000009d6       0x1d /home/vladimir/.arduino15/packages/arduino/tools/arm-none-eabi-gcc/4.8.3-2014q1/bin/../lib/gcc/arm-none-eabi/4.8.3/armv7-m/libgcc.a(_aeabi_uldivmod.o)
 .ARM.attributes
                0x00000000000009f3       0x2d /home/vladimir/.arduino15/packages/arduino/tools/arm-none-eabi-gcc/4.8.3-2014q1/bin/../lib/gcc/arm-none-eabi/4.8.3/armv7-m/libgcc.a(_fixdfdi.o)
 .ARM.attributes
                0x0000000000000a20       0x2d /home/vladimir/.arduino15/packages/arduino/tools/arm-none-eabi-gcc/4.8.3-2014q1/bin/../lib/gcc/arm-none-eabi/4.8.3/armv7-m/libgcc.a(_fixunsdfdi.o)
 .ARM.attributes
                0x0000000000000a4d       0x2d /home/vladimir/.arduino15/packages/arduino/tools/arm-none-eabi-gcc/4.8.3-2014q1/bin/../lib/gcc/arm-none-eabi/4.8.3/armv7-m/libgcc.a(bpabi.o)
 .ARM.attributes
                0x0000000000000a7a       0x1d /home/vladimir/.arduino15/packages/arduino/tools/arm-none-eabi-gcc/4.8.3-2014q1/bin/../lib/gcc/arm-none-eabi/4.8.3/armv7-m/libgcc.a(_dvmd_tls.o)
 .ARM.attributes
                0x0000000000000a97       0x1d /home/vladimir/.arduino15/packages/arduino/tools/arm-none-eabi-gcc/4.8.3-2014q1/bin/../lib/gcc/arm-none-eabi/4.8.3/armv7-m/libgcc.a(_arm_fixunsdfsi.o)
 .ARM.attributes
                0x0000000000000ab4       0x2d /home/vladimir/.arduino15/packages/arduino/tools/arm-none-eabi-gcc/4.8.3-2014q1/bin/../lib/gcc/arm-none-eabi/4.8.3/armv7-m/libgcc.a(_divdi3.o)
 .ARM.attributes
                0x0000000000000ae1       0x2d /home/vladimir/.arduino15/packages/arduino/tools/arm-none-eabi-gcc/4.8.3-2014q1/bin/../lib/gcc/arm-none-eabi/4.8.3/armv7-m/libgcc.a(_udivdi3.o)
 .ARM.attributes
                0x0000000000000b0e       0x2d /home/vladimir/.arduino15/packages/arduino/tools/arm-none-eabi-gcc/4.8.3-2014q1/bin/../lib/gcc/arm-none-eabi/4.8.3/../../../../arm-none-eabi/lib/armv7-m/libc.a(lib_a-errno.o)
 .ARM.attributes
                0x0000000000000b3b       0x2d /home/vladimir/.arduino15/packages/arduino/tools/arm-none-eabi-gcc/4.8.3-2014q1/bin/../lib/gcc/arm-none-eabi/4.8.3/../../../../arm-none-eabi/lib/armv7-m/libc.a(lib_a-exit.o)
 .ARM.attributes
                0x0000000000000b68       0x2d /home/vladimir/.arduino15/packages/arduino/tools/arm-none-eabi-gcc/4.8.3-2014q1/bin/../lib/gcc/arm-none-eabi/4.8.3/../../../../arm-none-eabi/lib/armv7-m/libc.a(lib_a-impure.o)
 .ARM.attributes
                0x0000000000000b95       0x2d /home/vladimir/.arduino15/packages/arduino/tools/arm-none-eabi-gcc/4.8.3-2014q1/bin/../lib/gcc/arm-none-eabi/4.8.3/../../../../arm-none-eabi/lib/armv7-m/libc.a(lib_a-init.o)
 .ARM.attributes
                0x0000000000000bc2       0x2d /home/vladimir/.arduino15/packages/arduino/tools/arm-none-eabi-gcc/4.8.3-2014q1/bin/../lib/gcc/arm-none-eabi/4.8.3/../../../../arm-none-eabi/lib/armv7-m/libc.a(lib_a-memset.o)
 .ARM.attributes
                0x0000000000000bef       0x2d /home/vladimir/.arduino15/packages/arduino/tools/arm-none-eabi-gcc/4.8.3-2014q1/bin/../lib/gcc/arm-none-eabi/4.8.3/../../../../arm-none-eabi/lib/armv7-m/libc.a(lib_a-strlen.o)
 .ARM.attributes
                0x0000000000000c1c       0x2d /home/vladimir/.arduino15/packages/arduino/tools/arm-none-eabi-gcc/4.8.3-2014q1/bin/../lib/gcc/arm-none-eabi/4.8.3/../../../../arm-none-eabi/lib/armv7-m/libc.a(lib_a-__call_atexit.o)
 .ARM.attributes
                0x0000000000000c49       0x2d /home/vladimir/.arduino15/packages/arduino/tools/arm-none-eabi-gcc/4.8.3-2014q1/bin/../lib/gcc/arm-none-eabi/4.8.3/../../../../arm-none-eabi/lib/armv7-m/libc.a(lib_a-atexit.o)
 .ARM.attributes
                0x0000000000000c76       0x2d /home/vladimir/.arduino15/packages/arduino/tools/arm-none-eabi-gcc/4.8.3-2014q1/bin/../lib/gcc/arm-none-eabi/4.8.3/../../../../arm-none-eabi/lib/armv7-m/libc.a(lib_a-fini.o)
 .ARM.attributes
                0x0000000000000ca3       0x2d /home/vladimir/.arduino15/packages/arduino/tools/arm-none-eabi-gcc/4.8.3-2014q1/bin/../lib/gcc/arm-none-eabi/4.8.3/../../../../arm-none-eabi/lib/armv7-m/libc.a(lib_a-__atexit.o)
 .ARM.attributes
                0x0000000000000cd0       0x2d /home/vladimir/.arduino15/packages/arduino/tools/arm-none-eabi-gcc/4.8.3-2014q1/bin/../lib/gcc/arm-none-eabi/4.8.3/armv7-m/crtend.o
 .ARM.attributes
                0x0000000000000cfd       0x1d /home/vladimir/.arduino15/packages/arduino/tools/arm-none-eabi-gcc/4.8.3-2014q1/bin/../lib/gcc/arm-none-eabi/4.8.3/armv7-m/crtn.o

/DISCARD/
 *(.note.GNU-stack)
OUTPUT(/home/vladimir/Documentos/SOFTWARE/arduino/BluePill/primeros_ejemplos/Blink/build/Blink.ino.elf elf32-littlearm)

.debug_ranges   0x0000000000000000     0x1950
 .debug_ranges  0x0000000000000000       0x18 /home/vladimir/Documentos/SOFTWARE/arduino/BluePill/primeros_ejemplos/Blink/build/sketch/Blink.ino.cpp.o
 .debug_ranges  0x0000000000000018       0x10 /home/vladimir/Documentos/SOFTWARE/arduino/BluePill/primeros_ejemplos/Blink/build/core/wirish/start_c.c.o
 .debug_ranges  0x0000000000000028       0x78 /home/vladimir/Documentos/SOFTWARE/arduino/BluePill/primeros_ejemplos/Blink/build/core/wirish/syscalls.c.o
 .debug_ranges  0x00000000000000a0       0x38 /home/vladimir/Documentos/SOFTWARE/arduino/BluePill/primeros_ejemplos/Blink/build/core/board.cpp.o
 .debug_ranges  0x00000000000000d8      0x160 /home/vladimir/Documentos/SOFTWARE/arduino/BluePill/primeros_ejemplos/Blink/build/core/wirish/boards.cpp.o
 .debug_ranges  0x0000000000000238       0x48 /home/vladimir/Documentos/SOFTWARE/arduino/BluePill/primeros_ejemplos/Blink/build/core/wirish/boards_setup.cpp.o
 .debug_ranges  0x0000000000000280       0x28 /home/vladimir/Documentos/SOFTWARE/arduino/BluePill/primeros_ejemplos/Blink/build/core/core.a(adc.c.o)
 .debug_ranges  0x00000000000002a8       0xb8 /home/vladimir/Documentos/SOFTWARE/arduino/BluePill/primeros_ejemplos/Blink/build/core/core.a(adc_f1.c.o)
 .debug_ranges  0x0000000000000360      0x1b8 /home/vladimir/Documentos/SOFTWARE/arduino/BluePill/primeros_ejemplos/Blink/build/core/core.a(dma_f1.c.o)
 .debug_ranges  0x0000000000000518      0x150 /home/vladimir/Documentos/SOFTWARE/arduino/BluePill/primeros_ejemplos/Blink/build/core/core.a(exti.c.o)
 .debug_ranges  0x0000000000000668       0x10 /home/vladimir/Documentos/SOFTWARE/arduino/BluePill/primeros_ejemplos/Blink/build/core/core.a(exti_f1.c.o)
 .debug_ranges  0x0000000000000678       0x10 /home/vladimir/Documentos/SOFTWARE/arduino/BluePill/primeros_ejemplos/Blink/build/core/core.a(flash.c.o)
 .debug_ranges  0x0000000000000688       0x30 /home/vladimir/Documentos/SOFTWARE/arduino/BluePill/primeros_ejemplos/Blink/build/core/core.a(gpio_f1.c.o)
 .debug_ranges  0x00000000000006b8       0x90 /home/vladimir/Documentos/SOFTWARE/arduino/BluePill/primeros_ejemplos/Blink/build/core/core.a(i2c_f1.c.o)
 .debug_ranges  0x0000000000000748       0x40 /home/vladimir/Documentos/SOFTWARE/arduino/BluePill/primeros_ejemplos/Blink/build/core/core.a(nvic.c.o)
 .debug_ranges  0x0000000000000788       0x98 /home/vladimir/Documentos/SOFTWARE/arduino/BluePill/primeros_ejemplos/Blink/build/core/core.a(rcc.c.o)
 .debug_ranges  0x0000000000000820       0xc8 /home/vladimir/Documentos/SOFTWARE/arduino/BluePill/primeros_ejemplos/Blink/build/core/core.a(rcc_f1.c.o)
 .debug_ranges  0x00000000000008e8       0x48 /home/vladimir/Documentos/SOFTWARE/arduino/BluePill/primeros_ejemplos/Blink/build/core/core.a(systick.c.o)
 .debug_ranges  0x0000000000000930       0xe0 /home/vladimir/Documentos/SOFTWARE/arduino/BluePill/primeros_ejemplos/Blink/build/core/core.a(timer.c.o)
 .debug_ranges  0x0000000000000a10       0x68 /home/vladimir/Documentos/SOFTWARE/arduino/BluePill/primeros_ejemplos/Blink/build/core/core.a(usart_f1.c.o)
 .debug_ranges  0x0000000000000a78       0x10 /home/vladimir/Documentos/SOFTWARE/arduino/BluePill/primeros_ejemplos/Blink/build/core/core.a(usart_private.c.o)
 .debug_ranges  0x0000000000000a88       0x58 /home/vladimir/Documentos/SOFTWARE/arduino/BluePill/primeros_ejemplos/Blink/build/core/core.a(util.c.o)
 .debug_ranges  0x0000000000000ae0       0xa8 /home/vladimir/Documentos/SOFTWARE/arduino/BluePill/primeros_ejemplos/Blink/build/core/core.a(usb.c.o)
 .debug_ranges  0x0000000000000b88      0x238 /home/vladimir/Documentos/SOFTWARE/arduino/BluePill/primeros_ejemplos/Blink/build/core/core.a(usb_cdcacm.c.o)
 .debug_ranges  0x0000000000000dc0       0x60 /home/vladimir/Documentos/SOFTWARE/arduino/BluePill/primeros_ejemplos/Blink/build/core/core.a(usb_reg_map.c.o)
 .debug_ranges  0x0000000000000e20       0xc0 /home/vladimir/Documentos/SOFTWARE/arduino/BluePill/primeros_ejemplos/Blink/build/core/core.a(usb_core.c.o)
 .debug_ranges  0x0000000000000ee0       0x10 /home/vladimir/Documentos/SOFTWARE/arduino/BluePill/primeros_ejemplos/Blink/build/core/core.a(usb_init.c.o)
 .debug_ranges  0x0000000000000ef0       0x18 /home/vladimir/Documentos/SOFTWARE/arduino/BluePill/primeros_ejemplos/Blink/build/core/core.a(usb_mem.c.o)
 .debug_ranges  0x0000000000000f08      0x290 /home/vladimir/Documentos/SOFTWARE/arduino/BluePill/primeros_ejemplos/Blink/build/core/core.a(usb_regs.c.o)
 .debug_ranges  0x0000000000001198       0x90 /home/vladimir/Documentos/SOFTWARE/arduino/BluePill/primeros_ejemplos/Blink/build/core/core.a(HardwareSerial.cpp.o)
 .debug_ranges  0x0000000000001228      0x230 /home/vladimir/Documentos/SOFTWARE/arduino/BluePill/primeros_ejemplos/Blink/build/core/core.a(Print.cpp.o)
 .debug_ranges  0x0000000000001458       0x10 /home/vladimir/Documentos/SOFTWARE/arduino/BluePill/primeros_ejemplos/Blink/build/core/core.a(cxxabi-compat.cpp.o)
 .debug_ranges  0x0000000000001468       0x18 /home/vladimir/Documentos/SOFTWARE/arduino/BluePill/primeros_ejemplos/Blink/build/core/core.a(main.cpp.o)
 .debug_ranges  0x0000000000001480      0x170 /home/vladimir/Documentos/SOFTWARE/arduino/BluePill/primeros_ejemplos/Blink/build/core/core.a(usb_serial.cpp.o)
 .debug_ranges  0x00000000000015f0       0x50 /home/vladimir/Documentos/SOFTWARE/arduino/BluePill/primeros_ejemplos/Blink/build/core/core.a(wirish_digital.cpp.o)
 .debug_ranges  0x0000000000001640       0x20 /home/vladimir/Documentos/SOFTWARE/arduino/BluePill/primeros_ejemplos/Blink/build/core/core.a(wirish_time.cpp.o)
 .debug_ranges  0x0000000000001660       0x30 /home/vladimir/Documentos/SOFTWARE/arduino/BluePill/primeros_ejemplos/Blink/build/core/core.a(wirish_digital_f1.cpp.o)
 .debug_ranges  0x0000000000001690       0x10 /home/vladimir/Documentos/SOFTWARE/arduino/BluePill/primeros_ejemplos/Blink/build/core/core.a(hooks.c.o)
 .debug_ranges  0x00000000000016a0       0x30 /home/vladimir/Documentos/SOFTWARE/arduino/BluePill/primeros_ejemplos/Blink/build/core/core.a(bkp_f1.c.o)
 .debug_ranges  0x00000000000016d0       0x18 /home/vladimir/Documentos/SOFTWARE/arduino/BluePill/primeros_ejemplos/Blink/build/core/core.a(dma.c.o)
 .debug_ranges  0x00000000000016e8       0x10 /home/vladimir/Documentos/SOFTWARE/arduino/BluePill/primeros_ejemplos/Blink/build/core/core.a(gpio.c.o)
 .debug_ranges  0x00000000000016f8      0x188 /home/vladimir/Documentos/SOFTWARE/arduino/BluePill/primeros_ejemplos/Blink/build/core/core.a(i2c.c.o)
 .debug_ranges  0x0000000000001880       0xd0 /home/vladimir/Documentos/SOFTWARE/arduino/BluePill/primeros_ejemplos/Blink/build/core/core.a(usart.c.o)

.comment        0x0000000000000000       0x80
 .comment       0x0000000000000000       0x80 /home/vladimir/Documentos/SOFTWARE/arduino/BluePill/primeros_ejemplos/Blink/build/sketch/Blink.ino.cpp.o
                                         0x81 (size before relaxing)
 .comment       0x0000000000000000       0x81 /home/vladimir/Documentos/SOFTWARE/arduino/BluePill/primeros_ejemplos/Blink/build/core/wirish/start_c.c.o
 .comment       0x0000000000000000       0x81 /home/vladimir/Documentos/SOFTWARE/arduino/BluePill/primeros_ejemplos/Blink/build/core/wirish/syscalls.c.o
 .comment       0x0000000000000000       0x81 /home/vladimir/Documentos/SOFTWARE/arduino/BluePill/primeros_ejemplos/Blink/build/core/board.cpp.o
 .comment       0x0000000000000000       0x81 /home/vladimir/Documentos/SOFTWARE/arduino/BluePill/primeros_ejemplos/Blink/build/core/wirish/boards.cpp.o
 .comment       0x0000000000000000       0x81 /home/vladimir/Documentos/SOFTWARE/arduino/BluePill/primeros_ejemplos/Blink/build/core/wirish/boards_setup.cpp.o
 .comment       0x0000000000000000       0x81 /home/vladimir/Documentos/SOFTWARE/arduino/BluePill/primeros_ejemplos/Blink/build/core/core.a(adc.c.o)
 .comment       0x0000000000000000       0x81 /home/vladimir/Documentos/SOFTWARE/arduino/BluePill/primeros_ejemplos/Blink/build/core/core.a(adc_f1.c.o)
 .comment       0x0000000000000000       0x81 /home/vladimir/Documentos/SOFTWARE/arduino/BluePill/primeros_ejemplos/Blink/build/core/core.a(dma_f1.c.o)
 .comment       0x0000000000000000       0x81 /home/vladimir/Documentos/SOFTWARE/arduino/BluePill/primeros_ejemplos/Blink/build/core/core.a(exti.c.o)
 .comment       0x0000000000000000       0x81 /home/vladimir/Documentos/SOFTWARE/arduino/BluePill/primeros_ejemplos/Blink/build/core/core.a(exti_f1.c.o)
 .comment       0x0000000000000000       0x81 /home/vladimir/Documentos/SOFTWARE/arduino/BluePill/primeros_ejemplos/Blink/build/core/core.a(flash.c.o)
 .comment       0x0000000000000000       0x81 /home/vladimir/Documentos/SOFTWARE/arduino/BluePill/primeros_ejemplos/Blink/build/core/core.a(gpio_f1.c.o)
 .comment       0x0000000000000000       0x81 /home/vladimir/Documentos/SOFTWARE/arduino/BluePill/primeros_ejemplos/Blink/build/core/core.a(i2c_f1.c.o)
 .comment       0x0000000000000000       0x81 /home/vladimir/Documentos/SOFTWARE/arduino/BluePill/primeros_ejemplos/Blink/build/core/core.a(nvic.c.o)
 .comment       0x0000000000000000       0x81 /home/vladimir/Documentos/SOFTWARE/arduino/BluePill/primeros_ejemplos/Blink/build/core/core.a(rcc.c.o)
 .comment       0x0000000000000000       0x81 /home/vladimir/Documentos/SOFTWARE/arduino/BluePill/primeros_ejemplos/Blink/build/core/core.a(rcc_f1.c.o)
 .comment       0x0000000000000000       0x81 /home/vladimir/Documentos/SOFTWARE/arduino/BluePill/primeros_ejemplos/Blink/build/core/core.a(systick.c.o)
 .comment       0x0000000000000000       0x81 /home/vladimir/Documentos/SOFTWARE/arduino/BluePill/primeros_ejemplos/Blink/build/core/core.a(timer.c.o)
 .comment       0x0000000000000000       0x81 /home/vladimir/Documentos/SOFTWARE/arduino/BluePill/primeros_ejemplos/Blink/build/core/core.a(usart_f1.c.o)
 .comment       0x0000000000000000       0x81 /home/vladimir/Documentos/SOFTWARE/arduino/BluePill/primeros_ejemplos/Blink/build/core/core.a(usart_private.c.o)
 .comment       0x0000000000000000       0x81 /home/vladimir/Documentos/SOFTWARE/arduino/BluePill/primeros_ejemplos/Blink/build/core/core.a(util.c.o)
 .comment       0x0000000000000000       0x81 /home/vladimir/Documentos/SOFTWARE/arduino/BluePill/primeros_ejemplos/Blink/build/core/core.a(usb.c.o)
 .comment       0x0000000000000000       0x81 /home/vladimir/Documentos/SOFTWARE/arduino/BluePill/primeros_ejemplos/Blink/build/core/core.a(usb_cdcacm.c.o)
 .comment       0x0000000000000000       0x81 /home/vladimir/Documentos/SOFTWARE/arduino/BluePill/primeros_ejemplos/Blink/build/core/core.a(usb_reg_map.c.o)
 .comment       0x0000000000000000       0x81 /home/vladimir/Documentos/SOFTWARE/arduino/BluePill/primeros_ejemplos/Blink/build/core/core.a(usb_core.c.o)
 .comment       0x0000000000000000       0x81 /home/vladimir/Documentos/SOFTWARE/arduino/BluePill/primeros_ejemplos/Blink/build/core/core.a(usb_init.c.o)
 .comment       0x0000000000000000       0x81 /home/vladimir/Documentos/SOFTWARE/arduino/BluePill/primeros_ejemplos/Blink/build/core/core.a(usb_mem.c.o)
 .comment       0x0000000000000000       0x81 /home/vladimir/Documentos/SOFTWARE/arduino/BluePill/primeros_ejemplos/Blink/build/core/core.a(usb_regs.c.o)
 .comment       0x0000000000000000       0x81 /home/vladimir/Documentos/SOFTWARE/arduino/BluePill/primeros_ejemplos/Blink/build/core/core.a(HardwareSerial.cpp.o)
 .comment       0x0000000000000000       0x81 /home/vladimir/Documentos/SOFTWARE/arduino/BluePill/primeros_ejemplos/Blink/build/core/core.a(Print.cpp.o)
 .comment       0x0000000000000000       0x81 /home/vladimir/Documentos/SOFTWARE/arduino/BluePill/primeros_ejemplos/Blink/build/core/core.a(cxxabi-compat.cpp.o)
 .comment       0x0000000000000000       0x81 /home/vladimir/Documentos/SOFTWARE/arduino/BluePill/primeros_ejemplos/Blink/build/core/core.a(main.cpp.o)
 .comment       0x0000000000000000       0x81 /home/vladimir/Documentos/SOFTWARE/arduino/BluePill/primeros_ejemplos/Blink/build/core/core.a(usb_serial.cpp.o)
 .comment       0x0000000000000000       0x81 /home/vladimir/Documentos/SOFTWARE/arduino/BluePill/primeros_ejemplos/Blink/build/core/core.a(wirish_digital.cpp.o)
 .comment       0x0000000000000000       0x81 /home/vladimir/Documentos/SOFTWARE/arduino/BluePill/primeros_ejemplos/Blink/build/core/core.a(wirish_time.cpp.o)
 .comment       0x0000000000000000       0x81 /home/vladimir/Documentos/SOFTWARE/arduino/BluePill/primeros_ejemplos/Blink/build/core/core.a(wirish_digital_f1.cpp.o)
 .comment       0x0000000000000000       0x81 /home/vladimir/Documentos/SOFTWARE/arduino/BluePill/primeros_ejemplos/Blink/build/core/core.a(hooks.c.o)
 .comment       0x0000000000000000       0x81 /home/vladimir/Documentos/SOFTWARE/arduino/BluePill/primeros_ejemplos/Blink/build/core/core.a(bkp_f1.c.o)
 .comment       0x0000000000000000       0x81 /home/vladimir/Documentos/SOFTWARE/arduino/BluePill/primeros_ejemplos/Blink/build/core/core.a(dma.c.o)
 .comment       0x0000000000000000       0x81 /home/vladimir/Documentos/SOFTWARE/arduino/BluePill/primeros_ejemplos/Blink/build/core/core.a(gpio.c.o)
 .comment       0x0000000000000000       0x81 /home/vladimir/Documentos/SOFTWARE/arduino/BluePill/primeros_ejemplos/Blink/build/core/core.a(i2c.c.o)
 .comment       0x0000000000000000       0x81 /home/vladimir/Documentos/SOFTWARE/arduino/BluePill/primeros_ejemplos/Blink/build/core/core.a(usart.c.o)

Cross Reference Table

Symbol                                            File
ADC1                                              /home/vladimir/Documentos/SOFTWARE/arduino/BluePill/primeros_ejemplos/Blink/build/core/core.a(adc_f1.c.o)
ADC2                                              /home/vladimir/Documentos/SOFTWARE/arduino/BluePill/primeros_ejemplos/Blink/build/core/core.a(adc_f1.c.o)
BKP                                               /home/vladimir/Documentos/SOFTWARE/arduino/BluePill/primeros_ejemplos/Blink/build/core/core.a(bkp_f1.c.o)
ByteSwap                                          /home/vladimir/Documentos/SOFTWARE/arduino/BluePill/primeros_ejemplos/Blink/build/core/core.a(usb_regs.c.o)
ClearDTOG_RX                                      /home/vladimir/Documentos/SOFTWARE/arduino/BluePill/primeros_ejemplos/Blink/build/core/core.a(usb_regs.c.o)
                                                  /home/vladimir/Documentos/SOFTWARE/arduino/BluePill/primeros_ejemplos/Blink/build/core/core.a(usb_core.c.o)
ClearDTOG_TX                                      /home/vladimir/Documentos/SOFTWARE/arduino/BluePill/primeros_ejemplos/Blink/build/core/core.a(usb_regs.c.o)
                                                  /home/vladimir/Documentos/SOFTWARE/arduino/BluePill/primeros_ejemplos/Blink/build/core/core.a(usb_core.c.o)
ClearEPDoubleBuff                                 /home/vladimir/Documentos/SOFTWARE/arduino/BluePill/primeros_ejemplos/Blink/build/core/core.a(usb_regs.c.o)
ClearEP_CTR_RX                                    /home/vladimir/Documentos/SOFTWARE/arduino/BluePill/primeros_ejemplos/Blink/build/core/core.a(usb_regs.c.o)
ClearEP_CTR_TX                                    /home/vladimir/Documentos/SOFTWARE/arduino/BluePill/primeros_ejemplos/Blink/build/core/core.a(usb_regs.c.o)
ClearEP_KIND                                      /home/vladimir/Documentos/SOFTWARE/arduino/BluePill/primeros_ejemplos/Blink/build/core/core.a(usb_regs.c.o)
Clear_Status_Out                                  /home/vladimir/Documentos/SOFTWARE/arduino/BluePill/primeros_ejemplos/Blink/build/core/core.a(usb_regs.c.o)
DMA1                                              /home/vladimir/Documentos/SOFTWARE/arduino/BluePill/primeros_ejemplos/Blink/build/core/core.a(dma_f1.c.o)
Data_Mul_MaxPacketSize                            /home/vladimir/Documentos/SOFTWARE/arduino/BluePill/primeros_ejemplos/Blink/build/core/core.a(usb_core.c.o)
Device_Info                                       /home/vladimir/Documentos/SOFTWARE/arduino/BluePill/primeros_ejemplos/Blink/build/core/core.a(usb_init.c.o)
                                                  /home/vladimir/Documentos/SOFTWARE/arduino/BluePill/primeros_ejemplos/Blink/build/core/core.a(usb.c.o)
Device_Property                                   /home/vladimir/Documentos/SOFTWARE/arduino/BluePill/primeros_ejemplos/Blink/build/core/core.a(usb_cdcacm.c.o)
                                                  /home/vladimir/Documentos/SOFTWARE/arduino/BluePill/primeros_ejemplos/Blink/build/core/core.a(usb_init.c.o)
                                                  /home/vladimir/Documentos/SOFTWARE/arduino/BluePill/primeros_ejemplos/Blink/build/core/core.a(usb_core.c.o)
                                                  /home/vladimir/Documentos/SOFTWARE/arduino/BluePill/primeros_ejemplos/Blink/build/core/core.a(usb.c.o)
Device_Table                                      /home/vladimir/Documentos/SOFTWARE/arduino/BluePill/primeros_ejemplos/Blink/build/core/core.a(usb_cdcacm.c.o)
                                                  /home/vladimir/Documentos/SOFTWARE/arduino/BluePill/primeros_ejemplos/Blink/build/core/core.a(usb_core.c.o)
EPindex                                           /home/vladimir/Documentos/SOFTWARE/arduino/BluePill/primeros_ejemplos/Blink/build/core/core.a(usb_init.c.o)
FreeUserBuffer                                    /home/vladimir/Documentos/SOFTWARE/arduino/BluePill/primeros_ejemplos/Blink/build/core/core.a(usb_regs.c.o)
GPIOA                                             /home/vladimir/Documentos/SOFTWARE/arduino/BluePill/primeros_ejemplos/Blink/build/core/core.a(gpio_f1.c.o)
GPIOB                                             /home/vladimir/Documentos/SOFTWARE/arduino/BluePill/primeros_ejemplos/Blink/build/core/core.a(gpio_f1.c.o)
GPIOC                                             /home/vladimir/Documentos/SOFTWARE/arduino/BluePill/primeros_ejemplos/Blink/build/core/core.a(gpio_f1.c.o)
                                                  /home/vladimir/Documentos/SOFTWARE/arduino/BluePill/primeros_ejemplos/Blink/build/core/core.a(util.c.o)
GPIOD                                             /home/vladimir/Documentos/SOFTWARE/arduino/BluePill/primeros_ejemplos/Blink/build/core/core.a(gpio_f1.c.o)
GetBTABLE                                         /home/vladimir/Documentos/SOFTWARE/arduino/BluePill/primeros_ejemplos/Blink/build/core/core.a(usb_regs.c.o)
GetCNTR                                           /home/vladimir/Documentos/SOFTWARE/arduino/BluePill/primeros_ejemplos/Blink/build/core/core.a(usb_regs.c.o)
GetDADDR                                          /home/vladimir/Documentos/SOFTWARE/arduino/BluePill/primeros_ejemplos/Blink/build/core/core.a(usb_regs.c.o)
GetENDPOINT                                       /home/vladimir/Documentos/SOFTWARE/arduino/BluePill/primeros_ejemplos/Blink/build/core/core.a(usb_regs.c.o)
GetEPAddress                                      /home/vladimir/Documentos/SOFTWARE/arduino/BluePill/primeros_ejemplos/Blink/build/core/core.a(usb_regs.c.o)
GetEPDblBuf0Addr                                  /home/vladimir/Documentos/SOFTWARE/arduino/BluePill/primeros_ejemplos/Blink/build/core/core.a(usb_regs.c.o)
GetEPDblBuf0Count                                 /home/vladimir/Documentos/SOFTWARE/arduino/BluePill/primeros_ejemplos/Blink/build/core/core.a(usb_regs.c.o)
GetEPDblBuf1Addr                                  /home/vladimir/Documentos/SOFTWARE/arduino/BluePill/primeros_ejemplos/Blink/build/core/core.a(usb_regs.c.o)
GetEPDblBuf1Count                                 /home/vladimir/Documentos/SOFTWARE/arduino/BluePill/primeros_ejemplos/Blink/build/core/core.a(usb_regs.c.o)
GetEPDblBufDir                                    /home/vladimir/Documentos/SOFTWARE/arduino/BluePill/primeros_ejemplos/Blink/build/core/core.a(usb_regs.c.o)
GetEPRxAddr                                       /home/vladimir/Documentos/SOFTWARE/arduino/BluePill/primeros_ejemplos/Blink/build/core/core.a(usb_regs.c.o)
                                                  /home/vladimir/Documentos/SOFTWARE/arduino/BluePill/primeros_ejemplos/Blink/build/core/core.a(usb_core.c.o)
GetEPRxCount                                      /home/vladimir/Documentos/SOFTWARE/arduino/BluePill/primeros_ejemplos/Blink/build/core/core.a(usb_regs.c.o)
GetEPRxStatus                                     /home/vladimir/Documentos/SOFTWARE/arduino/BluePill/primeros_ejemplos/Blink/build/core/core.a(usb_regs.c.o)
GetEPTxAddr                                       /home/vladimir/Documentos/SOFTWARE/arduino/BluePill/primeros_ejemplos/Blink/build/core/core.a(usb_regs.c.o)
                                                  /home/vladimir/Documentos/SOFTWARE/arduino/BluePill/primeros_ejemplos/Blink/build/core/core.a(usb_core.c.o)
GetEPTxCount                                      /home/vladimir/Documentos/SOFTWARE/arduino/BluePill/primeros_ejemplos/Blink/build/core/core.a(usb_regs.c.o)
GetEPTxStatus                                     /home/vladimir/Documentos/SOFTWARE/arduino/BluePill/primeros_ejemplos/Blink/build/core/core.a(usb_regs.c.o)
GetEPType                                         /home/vladimir/Documentos/SOFTWARE/arduino/BluePill/primeros_ejemplos/Blink/build/core/core.a(usb_regs.c.o)
GetFNR                                            /home/vladimir/Documentos/SOFTWARE/arduino/BluePill/primeros_ejemplos/Blink/build/core/core.a(usb_regs.c.o)
GetISTR                                           /home/vladimir/Documentos/SOFTWARE/arduino/BluePill/primeros_ejemplos/Blink/build/core/core.a(usb_regs.c.o)
GetRxStallStatus                                  /home/vladimir/Documentos/SOFTWARE/arduino/BluePill/primeros_ejemplos/Blink/build/core/core.a(usb_regs.c.o)
GetTxStallStatus                                  /home/vladimir/Documentos/SOFTWARE/arduino/BluePill/primeros_ejemplos/Blink/build/core/core.a(usb_regs.c.o)
HardwareSerial::HardwareSerial(usart_dev*, unsigned char, unsigned char) /home/vladimir/Documentos/SOFTWARE/arduino/BluePill/primeros_ejemplos/Blink/build/core/core.a(HardwareSerial.cpp.o)
HardwareSerial::HardwareSerial(usart_dev*, unsigned char, unsigned char) /home/vladimir/Documentos/SOFTWARE/arduino/BluePill/primeros_ejemplos/Blink/build/core/core.a(HardwareSerial.cpp.o)
                                                  /home/vladimir/Documentos/SOFTWARE/arduino/BluePill/primeros_ejemplos/Blink/build/core/board.cpp.o
HardwareSerial::available()                       /home/vladimir/Documentos/SOFTWARE/arduino/BluePill/primeros_ejemplos/Blink/build/core/core.a(HardwareSerial.cpp.o)
HardwareSerial::availableForWrite()               /home/vladimir/Documentos/SOFTWARE/arduino/BluePill/primeros_ejemplos/Blink/build/core/core.a(HardwareSerial.cpp.o)
HardwareSerial::begin(unsigned long)              /home/vladimir/Documentos/SOFTWARE/arduino/BluePill/primeros_ejemplos/Blink/build/core/core.a(HardwareSerial.cpp.o)
HardwareSerial::begin(unsigned long, unsigned char) /home/vladimir/Documentos/SOFTWARE/arduino/BluePill/primeros_ejemplos/Blink/build/core/core.a(HardwareSerial.cpp.o)
HardwareSerial::end()                             /home/vladimir/Documentos/SOFTWARE/arduino/BluePill/primeros_ejemplos/Blink/build/core/core.a(HardwareSerial.cpp.o)
HardwareSerial::flush()                           /home/vladimir/Documentos/SOFTWARE/arduino/BluePill/primeros_ejemplos/Blink/build/core/core.a(HardwareSerial.cpp.o)
HardwareSerial::peek()                            /home/vladimir/Documentos/SOFTWARE/arduino/BluePill/primeros_ejemplos/Blink/build/core/core.a(HardwareSerial.cpp.o)
HardwareSerial::read()                            /home/vladimir/Documentos/SOFTWARE/arduino/BluePill/primeros_ejemplos/Blink/build/core/core.a(HardwareSerial.cpp.o)
HardwareSerial::write(unsigned char)              /home/vladimir/Documentos/SOFTWARE/arduino/BluePill/primeros_ejemplos/Blink/build/core/core.a(HardwareSerial.cpp.o)
I2C1                                              /home/vladimir/Documentos/SOFTWARE/arduino/BluePill/primeros_ejemplos/Blink/build/core/core.a(i2c_f1.c.o)
                                                  /home/vladimir/Documentos/SOFTWARE/arduino/BluePill/primeros_ejemplos/Blink/build/core/core.a(i2c.c.o)
I2C2                                              /home/vladimir/Documentos/SOFTWARE/arduino/BluePill/primeros_ejemplos/Blink/build/core/core.a(i2c_f1.c.o)
In0_Process                                       /home/vladimir/Documentos/SOFTWARE/arduino/BluePill/primeros_ejemplos/Blink/build/core/core.a(usb_core.c.o)
                                                  /home/vladimir/Documentos/SOFTWARE/arduino/BluePill/primeros_ejemplos/Blink/build/core/core.a(usb.c.o)
NOP_Process                                       /home/vladimir/Documentos/SOFTWARE/arduino/BluePill/primeros_ejemplos/Blink/build/core/core.a(usb_core.c.o)
                                                  /home/vladimir/Documentos/SOFTWARE/arduino/BluePill/primeros_ejemplos/Blink/build/core/core.a(usb_cdcacm.c.o)
Out0_Process                                      /home/vladimir/Documentos/SOFTWARE/arduino/BluePill/primeros_ejemplos/Blink/build/core/core.a(usb_core.c.o)
                                                  /home/vladimir/Documentos/SOFTWARE/arduino/BluePill/primeros_ejemplos/Blink/build/core/core.a(usb.c.o)
PIN_MAP                                           /home/vladimir/Documentos/SOFTWARE/arduino/BluePill/primeros_ejemplos/Blink/build/core/board.cpp.o
                                                  /home/vladimir/Documentos/SOFTWARE/arduino/BluePill/primeros_ejemplos/Blink/build/core/core.a(wirish_digital_f1.cpp.o)
                                                  /home/vladimir/Documentos/SOFTWARE/arduino/BluePill/primeros_ejemplos/Blink/build/core/core.a(wirish_digital.cpp.o)
                                                  /home/vladimir/Documentos/SOFTWARE/arduino/BluePill/primeros_ejemplos/Blink/build/core/core.a(HardwareSerial.cpp.o)
                                                  /home/vladimir/Documentos/SOFTWARE/arduino/BluePill/primeros_ejemplos/Blink/build/core/wirish/boards_setup.cpp.o
PMAToUserBufferCopy                               /home/vladimir/Documentos/SOFTWARE/arduino/BluePill/primeros_ejemplos/Blink/build/core/core.a(usb_mem.c.o)
                                                  /home/vladimir/Documentos/SOFTWARE/arduino/BluePill/primeros_ejemplos/Blink/build/core/core.a(usb_core.c.o)
Post0_Process                                     /home/vladimir/Documentos/SOFTWARE/arduino/BluePill/primeros_ejemplos/Blink/build/core/core.a(usb_core.c.o)
Print::print(Printable const&)                    /home/vladimir/Documentos/SOFTWARE/arduino/BluePill/primeros_ejemplos/Blink/build/core/core.a(Print.cpp.o)
Print::print(String const&)                       /home/vladimir/Documentos/SOFTWARE/arduino/BluePill/primeros_ejemplos/Blink/build/core/core.a(Print.cpp.o)
Print::print(__FlashStringHelper const*)          /home/vladimir/Documentos/SOFTWARE/arduino/BluePill/primeros_ejemplos/Blink/build/core/core.a(Print.cpp.o)
Print::print(char const*)                         /home/vladimir/Documentos/SOFTWARE/arduino/BluePill/primeros_ejemplos/Blink/build/core/core.a(Print.cpp.o)
Print::print(char)                                /home/vladimir/Documentos/SOFTWARE/arduino/BluePill/primeros_ejemplos/Blink/build/core/core.a(Print.cpp.o)
Print::print(double, int)                         /home/vladimir/Documentos/SOFTWARE/arduino/BluePill/primeros_ejemplos/Blink/build/core/core.a(Print.cpp.o)
Print::print(int, int)                            /home/vladimir/Documentos/SOFTWARE/arduino/BluePill/primeros_ejemplos/Blink/build/core/core.a(Print.cpp.o)
Print::print(long long, int)                      /home/vladimir/Documentos/SOFTWARE/arduino/BluePill/primeros_ejemplos/Blink/build/core/core.a(Print.cpp.o)
Print::print(long, int)                           /home/vladimir/Documentos/SOFTWARE/arduino/BluePill/primeros_ejemplos/Blink/build/core/core.a(Print.cpp.o)
Print::print(unsigned char, int)                  /home/vladimir/Documentos/SOFTWARE/arduino/BluePill/primeros_ejemplos/Blink/build/core/core.a(Print.cpp.o)
Print::print(unsigned int, int)                   /home/vladimir/Documentos/SOFTWARE/arduino/BluePill/primeros_ejemplos/Blink/build/core/core.a(Print.cpp.o)
Print::print(unsigned long long, int)             /home/vladimir/Documentos/SOFTWARE/arduino/BluePill/primeros_ejemplos/Blink/build/core/core.a(Print.cpp.o)
Print::print(unsigned long, int)                  /home/vladimir/Documentos/SOFTWARE/arduino/BluePill/primeros_ejemplos/Blink/build/core/core.a(Print.cpp.o)
Print::printFloat(double, unsigned char)          /home/vladimir/Documentos/SOFTWARE/arduino/BluePill/primeros_ejemplos/Blink/build/core/core.a(Print.cpp.o)
Print::printNumber(unsigned long long, unsigned char) /home/vladimir/Documentos/SOFTWARE/arduino/BluePill/primeros_ejemplos/Blink/build/core/core.a(Print.cpp.o)
Print::println()                                  /home/vladimir/Documentos/SOFTWARE/arduino/BluePill/primeros_ejemplos/Blink/build/core/core.a(Print.cpp.o)
Print::println(Printable const&)                  /home/vladimir/Documentos/SOFTWARE/arduino/BluePill/primeros_ejemplos/Blink/build/core/core.a(Print.cpp.o)
Print::println(String const&)                     /home/vladimir/Documentos/SOFTWARE/arduino/BluePill/primeros_ejemplos/Blink/build/core/core.a(Print.cpp.o)
Print::println(__FlashStringHelper const*)        /home/vladimir/Documentos/SOFTWARE/arduino/BluePill/primeros_ejemplos/Blink/build/core/core.a(Print.cpp.o)
Print::println(char const*)                       /home/vladimir/Documentos/SOFTWARE/arduino/BluePill/primeros_ejemplos/Blink/build/core/core.a(Print.cpp.o)
Print::println(char)                              /home/vladimir/Documentos/SOFTWARE/arduino/BluePill/primeros_ejemplos/Blink/build/core/core.a(Print.cpp.o)
Print::println(double, int)                       /home/vladimir/Documentos/SOFTWARE/arduino/BluePill/primeros_ejemplos/Blink/build/core/core.a(Print.cpp.o)
Print::println(int, int)                          /home/vladimir/Documentos/SOFTWARE/arduino/BluePill/primeros_ejemplos/Blink/build/core/core.a(Print.cpp.o)
Print::println(long long, int)                    /home/vladimir/Documentos/SOFTWARE/arduino/BluePill/primeros_ejemplos/Blink/build/core/core.a(Print.cpp.o)
Print::println(long, int)                         /home/vladimir/Documentos/SOFTWARE/arduino/BluePill/primeros_ejemplos/Blink/build/core/core.a(Print.cpp.o)
Print::println(unsigned char, int)                /home/vladimir/Documentos/SOFTWARE/arduino/BluePill/primeros_ejemplos/Blink/build/core/core.a(Print.cpp.o)
Print::println(unsigned int, int)                 /home/vladimir/Documentos/SOFTWARE/arduino/BluePill/primeros_ejemplos/Blink/build/core/core.a(Print.cpp.o)
Print::println(unsigned long long, int)           /home/vladimir/Documentos/SOFTWARE/arduino/BluePill/primeros_ejemplos/Blink/build/core/core.a(Print.cpp.o)
Print::println(unsigned long, int)                /home/vladimir/Documentos/SOFTWARE/arduino/BluePill/primeros_ejemplos/Blink/build/core/core.a(Print.cpp.o)
Print::write(char const*)                         /home/vladimir/Documentos/SOFTWARE/arduino/BluePill/primeros_ejemplos/Blink/build/core/core.a(Print.cpp.o)
                                                  /home/vladimir/Documentos/SOFTWARE/arduino/BluePill/primeros_ejemplos/Blink/build/core/core.a(usb_serial.cpp.o)
                                                  /home/vladimir/Documentos/SOFTWARE/arduino/BluePill/primeros_ejemplos/Blink/build/core/core.a(HardwareSerial.cpp.o)
Print::write(void const*, unsigned long)          /home/vladimir/Documentos/SOFTWARE/arduino/BluePill/primeros_ejemplos/Blink/build/core/core.a(Print.cpp.o)
                                                  /home/vladimir/Documentos/SOFTWARE/arduino/BluePill/primeros_ejemplos/Blink/build/core/core.a(usb_serial.cpp.o)
                                                  /home/vladimir/Documentos/SOFTWARE/arduino/BluePill/primeros_ejemplos/Blink/build/core/core.a(HardwareSerial.cpp.o)
ResumeS                                           /home/vladimir/Documentos/SOFTWARE/arduino/BluePill/primeros_ejemplos/Blink/build/core/core.a(usb.c.o)
SaveRState                                        /home/vladimir/Documentos/SOFTWARE/arduino/BluePill/primeros_ejemplos/Blink/build/core/core.a(usb_core.c.o)
                                                  /home/vladimir/Documentos/SOFTWARE/arduino/BluePill/primeros_ejemplos/Blink/build/core/core.a(usb.c.o)
SaveState                                         /home/vladimir/Documentos/SOFTWARE/arduino/BluePill/primeros_ejemplos/Blink/build/core/core.a(usb_init.c.o)
SaveTState                                        /home/vladimir/Documentos/SOFTWARE/arduino/BluePill/primeros_ejemplos/Blink/build/core/core.a(usb_core.c.o)
                                                  /home/vladimir/Documentos/SOFTWARE/arduino/BluePill/primeros_ejemplos/Blink/build/core/core.a(usb.c.o)
Serial                                            /home/vladimir/Documentos/SOFTWARE/arduino/BluePill/primeros_ejemplos/Blink/build/core/core.a(usb_serial.cpp.o)
                                                  /home/vladimir/Documentos/SOFTWARE/arduino/BluePill/primeros_ejemplos/Blink/build/core/wirish/boards_setup.cpp.o
Serial1                                           /home/vladimir/Documentos/SOFTWARE/arduino/BluePill/primeros_ejemplos/Blink/build/core/board.cpp.o
Serial2                                           /home/vladimir/Documentos/SOFTWARE/arduino/BluePill/primeros_ejemplos/Blink/build/core/board.cpp.o
Serial3                                           /home/vladimir/Documentos/SOFTWARE/arduino/BluePill/primeros_ejemplos/Blink/build/core/board.cpp.o
SetBTABLE                                         /home/vladimir/Documentos/SOFTWARE/arduino/BluePill/primeros_ejemplos/Blink/build/core/core.a(usb_regs.c.o)
SetCNTR                                           /home/vladimir/Documentos/SOFTWARE/arduino/BluePill/primeros_ejemplos/Blink/build/core/core.a(usb_regs.c.o)
SetDADDR                                          /home/vladimir/Documentos/SOFTWARE/arduino/BluePill/primeros_ejemplos/Blink/build/core/core.a(usb_regs.c.o)
SetDeviceAddress                                  /home/vladimir/Documentos/SOFTWARE/arduino/BluePill/primeros_ejemplos/Blink/build/core/core.a(usb_core.c.o)
                                                  /home/vladimir/Documentos/SOFTWARE/arduino/BluePill/primeros_ejemplos/Blink/build/core/core.a(usb_cdcacm.c.o)
SetDouBleBuffEPStall                              /home/vladimir/Documentos/SOFTWARE/arduino/BluePill/primeros_ejemplos/Blink/build/core/core.a(usb_regs.c.o)
SetENDPOINT                                       /home/vladimir/Documentos/SOFTWARE/arduino/BluePill/primeros_ejemplos/Blink/build/core/core.a(usb_regs.c.o)
SetEPAddress                                      /home/vladimir/Documentos/SOFTWARE/arduino/BluePill/primeros_ejemplos/Blink/build/core/core.a(usb_regs.c.o)
SetEPCountRxReg                                   /home/vladimir/Documentos/SOFTWARE/arduino/BluePill/primeros_ejemplos/Blink/build/core/core.a(usb_regs.c.o)
SetEPDblBuf0Addr                                  /home/vladimir/Documentos/SOFTWARE/arduino/BluePill/primeros_ejemplos/Blink/build/core/core.a(usb_regs.c.o)
SetEPDblBuf0Count                                 /home/vladimir/Documentos/SOFTWARE/arduino/BluePill/primeros_ejemplos/Blink/build/core/core.a(usb_regs.c.o)
SetEPDblBuf1Addr                                  /home/vladimir/Documentos/SOFTWARE/arduino/BluePill/primeros_ejemplos/Blink/build/core/core.a(usb_regs.c.o)
SetEPDblBuf1Count                                 /home/vladimir/Documentos/SOFTWARE/arduino/BluePill/primeros_ejemplos/Blink/build/core/core.a(usb_regs.c.o)
SetEPDblBuffAddr                                  /home/vladimir/Documentos/SOFTWARE/arduino/BluePill/primeros_ejemplos/Blink/build/core/core.a(usb_regs.c.o)
SetEPDblBuffCount                                 /home/vladimir/Documentos/SOFTWARE/arduino/BluePill/primeros_ejemplos/Blink/build/core/core.a(usb_regs.c.o)
SetEPDoubleBuff                                   /home/vladimir/Documentos/SOFTWARE/arduino/BluePill/primeros_ejemplos/Blink/build/core/core.a(usb_regs.c.o)
SetEPRxAddr                                       /home/vladimir/Documentos/SOFTWARE/arduino/BluePill/primeros_ejemplos/Blink/build/core/core.a(usb_regs.c.o)
SetEPRxCount                                      /home/vladimir/Documentos/SOFTWARE/arduino/BluePill/primeros_ejemplos/Blink/build/core/core.a(usb_regs.c.o)
                                                  /home/vladimir/Documentos/SOFTWARE/arduino/BluePill/primeros_ejemplos/Blink/build/core/core.a(usb_core.c.o)
SetEPRxStatus                                     /home/vladimir/Documentos/SOFTWARE/arduino/BluePill/primeros_ejemplos/Blink/build/core/core.a(usb_regs.c.o)
SetEPRxValid                                      /home/vladimir/Documentos/SOFTWARE/arduino/BluePill/primeros_ejemplos/Blink/build/core/core.a(usb_regs.c.o)
SetEPTxAddr                                       /home/vladimir/Documentos/SOFTWARE/arduino/BluePill/primeros_ejemplos/Blink/build/core/core.a(usb_regs.c.o)
SetEPTxCount                                      /home/vladimir/Documentos/SOFTWARE/arduino/BluePill/primeros_ejemplos/Blink/build/core/core.a(usb_regs.c.o)
                                                  /home/vladimir/Documentos/SOFTWARE/arduino/BluePill/primeros_ejemplos/Blink/build/core/core.a(usb_core.c.o)
SetEPTxStatus                                     /home/vladimir/Documentos/SOFTWARE/arduino/BluePill/primeros_ejemplos/Blink/build/core/core.a(usb_regs.c.o)
                                                  /home/vladimir/Documentos/SOFTWARE/arduino/BluePill/primeros_ejemplos/Blink/build/core/core.a(usb_core.c.o)
SetEPTxValid                                      /home/vladimir/Documentos/SOFTWARE/arduino/BluePill/primeros_ejemplos/Blink/build/core/core.a(usb_regs.c.o)
SetEPType                                         /home/vladimir/Documentos/SOFTWARE/arduino/BluePill/primeros_ejemplos/Blink/build/core/core.a(usb_regs.c.o)
SetEP_KIND                                        /home/vladimir/Documentos/SOFTWARE/arduino/BluePill/primeros_ejemplos/Blink/build/core/core.a(usb_regs.c.o)
SetISTR                                           /home/vladimir/Documentos/SOFTWARE/arduino/BluePill/primeros_ejemplos/Blink/build/core/core.a(usb_regs.c.o)
Set_Status_Out                                    /home/vladimir/Documentos/SOFTWARE/arduino/BluePill/primeros_ejemplos/Blink/build/core/core.a(usb_regs.c.o)
Setup0_Process                                    /home/vladimir/Documentos/SOFTWARE/arduino/BluePill/primeros_ejemplos/Blink/build/core/core.a(usb_core.c.o)
                                                  /home/vladimir/Documentos/SOFTWARE/arduino/BluePill/primeros_ejemplos/Blink/build/core/core.a(usb.c.o)
Standard_ClearFeature                             /home/vladimir/Documentos/SOFTWARE/arduino/BluePill/primeros_ejemplos/Blink/build/core/core.a(usb_core.c.o)
Standard_GetConfiguration                         /home/vladimir/Documentos/SOFTWARE/arduino/BluePill/primeros_ejemplos/Blink/build/core/core.a(usb_core.c.o)
Standard_GetDescriptorData                        /home/vladimir/Documentos/SOFTWARE/arduino/BluePill/primeros_ejemplos/Blink/build/core/core.a(usb_core.c.o)
                                                  /home/vladimir/Documentos/SOFTWARE/arduino/BluePill/primeros_ejemplos/Blink/build/core/core.a(usb_cdcacm.c.o)
Standard_GetInterface                             /home/vladimir/Documentos/SOFTWARE/arduino/BluePill/primeros_ejemplos/Blink/build/core/core.a(usb_core.c.o)
Standard_GetStatus                                /home/vladimir/Documentos/SOFTWARE/arduino/BluePill/primeros_ejemplos/Blink/build/core/core.a(usb_core.c.o)
Standard_SetConfiguration                         /home/vladimir/Documentos/SOFTWARE/arduino/BluePill/primeros_ejemplos/Blink/build/core/core.a(usb_core.c.o)
Standard_SetDeviceFeature                         /home/vladimir/Documentos/SOFTWARE/arduino/BluePill/primeros_ejemplos/Blink/build/core/core.a(usb_core.c.o)
Standard_SetEndPointFeature                       /home/vladimir/Documentos/SOFTWARE/arduino/BluePill/primeros_ejemplos/Blink/build/core/core.a(usb_core.c.o)
Standard_SetInterface                             /home/vladimir/Documentos/SOFTWARE/arduino/BluePill/primeros_ejemplos/Blink/build/core/core.a(usb_core.c.o)
StatusInfo                                        /home/vladimir/Documentos/SOFTWARE/arduino/BluePill/primeros_ejemplos/Blink/build/core/core.a(usb_core.c.o)
TIMER1                                            /home/vladimir/Documentos/SOFTWARE/arduino/BluePill/primeros_ejemplos/Blink/build/core/core.a(timer.c.o)
TIMER2                                            /home/vladimir/Documentos/SOFTWARE/arduino/BluePill/primeros_ejemplos/Blink/build/core/core.a(timer.c.o)
TIMER3                                            /home/vladimir/Documentos/SOFTWARE/arduino/BluePill/primeros_ejemplos/Blink/build/core/core.a(timer.c.o)
TIMER4                                            /home/vladimir/Documentos/SOFTWARE/arduino/BluePill/primeros_ejemplos/Blink/build/core/core.a(timer.c.o)
ToWord                                            /home/vladimir/Documentos/SOFTWARE/arduino/BluePill/primeros_ejemplos/Blink/build/core/core.a(usb_regs.c.o)
ToggleDTOG_RX                                     /home/vladimir/Documentos/SOFTWARE/arduino/BluePill/primeros_ejemplos/Blink/build/core/core.a(usb_regs.c.o)
ToggleDTOG_TX                                     /home/vladimir/Documentos/SOFTWARE/arduino/BluePill/primeros_ejemplos/Blink/build/core/core.a(usb_regs.c.o)
USART1                                            /home/vladimir/Documentos/SOFTWARE/arduino/BluePill/primeros_ejemplos/Blink/build/core/core.a(usart_f1.c.o)
                                                  /home/vladimir/Documentos/SOFTWARE/arduino/BluePill/primeros_ejemplos/Blink/build/core/board.cpp.o
USART2                                            /home/vladimir/Documentos/SOFTWARE/arduino/BluePill/primeros_ejemplos/Blink/build/core/core.a(usart_f1.c.o)
                                                  /home/vladimir/Documentos/SOFTWARE/arduino/BluePill/primeros_ejemplos/Blink/build/core/board.cpp.o
USART3                                            /home/vladimir/Documentos/SOFTWARE/arduino/BluePill/primeros_ejemplos/Blink/build/core/core.a(usart_f1.c.o)
                                                  /home/vladimir/Documentos/SOFTWARE/arduino/BluePill/primeros_ejemplos/Blink/build/core/board.cpp.o
USBLIB                                            /home/vladimir/Documentos/SOFTWARE/arduino/BluePill/primeros_ejemplos/Blink/build/core/core.a(usb.c.o)
                                                  /home/vladimir/Documentos/SOFTWARE/arduino/BluePill/primeros_ejemplos/Blink/build/core/core.a(usb_serial.cpp.o)
                                                  /home/vladimir/Documentos/SOFTWARE/arduino/BluePill/primeros_ejemplos/Blink/build/core/core.a(usb_cdcacm.c.o)
USBSerial::USBSerial()                            /home/vladimir/Documentos/SOFTWARE/arduino/BluePill/primeros_ejemplos/Blink/build/core/core.a(usb_serial.cpp.o)
USBSerial::USBSerial()                            /home/vladimir/Documentos/SOFTWARE/arduino/BluePill/primeros_ejemplos/Blink/build/core/core.a(usb_serial.cpp.o)
USBSerial::_hasBegun                              /home/vladimir/Documentos/SOFTWARE/arduino/BluePill/primeros_ejemplos/Blink/build/core/core.a(usb_serial.cpp.o)
USBSerial::_isBlocking                            /home/vladimir/Documentos/SOFTWARE/arduino/BluePill/primeros_ejemplos/Blink/build/core/core.a(usb_serial.cpp.o)
USBSerial::available()                            /home/vladimir/Documentos/SOFTWARE/arduino/BluePill/primeros_ejemplos/Blink/build/core/core.a(usb_serial.cpp.o)
USBSerial::availableForWrite()                    /home/vladimir/Documentos/SOFTWARE/arduino/BluePill/primeros_ejemplos/Blink/build/core/core.a(usb_serial.cpp.o)
USBSerial::begin()                                /home/vladimir/Documentos/SOFTWARE/arduino/BluePill/primeros_ejemplos/Blink/build/core/core.a(usb_serial.cpp.o)
                                                  /home/vladimir/Documentos/SOFTWARE/arduino/BluePill/primeros_ejemplos/Blink/build/core/wirish/boards_setup.cpp.o
USBSerial::begin(unsigned long)                   /home/vladimir/Documentos/SOFTWARE/arduino/BluePill/primeros_ejemplos/Blink/build/core/core.a(usb_serial.cpp.o)
USBSerial::begin(unsigned long, unsigned char)    /home/vladimir/Documentos/SOFTWARE/arduino/BluePill/primeros_ejemplos/Blink/build/core/core.a(usb_serial.cpp.o)
USBSerial::disableBlockingTx()                    /home/vladimir/Documentos/SOFTWARE/arduino/BluePill/primeros_ejemplos/Blink/build/core/core.a(usb_serial.cpp.o)
USBSerial::enableBlockingTx()                     /home/vladimir/Documentos/SOFTWARE/arduino/BluePill/primeros_ejemplos/Blink/build/core/core.a(usb_serial.cpp.o)
USBSerial::end()                                  /home/vladimir/Documentos/SOFTWARE/arduino/BluePill/primeros_ejemplos/Blink/build/core/core.a(usb_serial.cpp.o)
USBSerial::flush()                                /home/vladimir/Documentos/SOFTWARE/arduino/BluePill/primeros_ejemplos/Blink/build/core/core.a(usb_serial.cpp.o)
USBSerial::getDTR()                               /home/vladimir/Documentos/SOFTWARE/arduino/BluePill/primeros_ejemplos/Blink/build/core/core.a(usb_serial.cpp.o)
USBSerial::getRTS()                               /home/vladimir/Documentos/SOFTWARE/arduino/BluePill/primeros_ejemplos/Blink/build/core/core.a(usb_serial.cpp.o)
USBSerial::operator bool()                        /home/vladimir/Documentos/SOFTWARE/arduino/BluePill/primeros_ejemplos/Blink/build/core/core.a(usb_serial.cpp.o)
USBSerial::peek()                                 /home/vladimir/Documentos/SOFTWARE/arduino/BluePill/primeros_ejemplos/Blink/build/core/core.a(usb_serial.cpp.o)
USBSerial::pending()                              /home/vladimir/Documentos/SOFTWARE/arduino/BluePill/primeros_ejemplos/Blink/build/core/core.a(usb_serial.cpp.o)
USBSerial::read()                                 /home/vladimir/Documentos/SOFTWARE/arduino/BluePill/primeros_ejemplos/Blink/build/core/core.a(usb_serial.cpp.o)
USBSerial::read(unsigned char*, unsigned long)    /home/vladimir/Documentos/SOFTWARE/arduino/BluePill/primeros_ejemplos/Blink/build/core/core.a(usb_serial.cpp.o)
USBSerial::readBytes(char*, unsigned int const&)  /home/vladimir/Documentos/SOFTWARE/arduino/BluePill/primeros_ejemplos/Blink/build/core/core.a(usb_serial.cpp.o)
USBSerial::write(char const*)                     /home/vladimir/Documentos/SOFTWARE/arduino/BluePill/primeros_ejemplos/Blink/build/core/core.a(usb_serial.cpp.o)
USBSerial::write(unsigned char const*, unsigned long) /home/vladimir/Documentos/SOFTWARE/arduino/BluePill/primeros_ejemplos/Blink/build/core/core.a(usb_serial.cpp.o)
USBSerial::write(unsigned char)                   /home/vladimir/Documentos/SOFTWARE/arduino/BluePill/primeros_ejemplos/Blink/build/core/core.a(usb_serial.cpp.o)
USB_Init                                          /home/vladimir/Documentos/SOFTWARE/arduino/BluePill/primeros_ejemplos/Blink/build/core/core.a(usb_init.c.o)
UserToPMABufferCopy                               /home/vladimir/Documentos/SOFTWARE/arduino/BluePill/primeros_ejemplos/Blink/build/core/core.a(usb_mem.c.o)
                                                  /home/vladimir/Documentos/SOFTWARE/arduino/BluePill/primeros_ejemplos/Blink/build/core/core.a(usb_core.c.o)
User_Standard_Requests                            /home/vladimir/Documentos/SOFTWARE/arduino/BluePill/primeros_ejemplos/Blink/build/core/core.a(usb_cdcacm.c.o)
                                                  /home/vladimir/Documentos/SOFTWARE/arduino/BluePill/primeros_ejemplos/Blink/build/core/core.a(usb_init.c.o)
                                                  /home/vladimir/Documentos/SOFTWARE/arduino/BluePill/primeros_ejemplos/Blink/build/core/core.a(usb.c.o)
_Jv_RegisterClasses                               /home/vladimir/.arduino15/packages/arduino/tools/arm-none-eabi-gcc/4.8.3-2014q1/bin/../lib/gcc/arm-none-eabi/4.8.3/armv7-m/crtbegin.o
__adddf3                                          /home/vladimir/.arduino15/packages/arduino/tools/arm-none-eabi-gcc/4.8.3-2014q1/bin/../lib/gcc/arm-none-eabi/4.8.3/armv7-m/libgcc.a(_arm_addsubdf3.o)
__aeabi_cdcmpeq                                   /home/vladimir/.arduino15/packages/arduino/tools/arm-none-eabi-gcc/4.8.3-2014q1/bin/../lib/gcc/arm-none-eabi/4.8.3/armv7-m/libgcc.a(_arm_cmpdf2.o)
__aeabi_cdcmple                                   /home/vladimir/.arduino15/packages/arduino/tools/arm-none-eabi-gcc/4.8.3-2014q1/bin/../lib/gcc/arm-none-eabi/4.8.3/armv7-m/libgcc.a(_arm_cmpdf2.o)
__aeabi_cdrcmple                                  /home/vladimir/.arduino15/packages/arduino/tools/arm-none-eabi-gcc/4.8.3-2014q1/bin/../lib/gcc/arm-none-eabi/4.8.3/armv7-m/libgcc.a(_arm_cmpdf2.o)
__aeabi_d2iz                                      /home/vladimir/.arduino15/packages/arduino/tools/arm-none-eabi-gcc/4.8.3-2014q1/bin/../lib/gcc/arm-none-eabi/4.8.3/armv7-m/libgcc.a(_arm_fixdfsi.o)
                                                  /home/vladimir/Documentos/SOFTWARE/arduino/BluePill/primeros_ejemplos/Blink/build/core/core.a(Print.cpp.o)
__aeabi_d2lz                                      /home/vladimir/.arduino15/packages/arduino/tools/arm-none-eabi-gcc/4.8.3-2014q1/bin/../lib/gcc/arm-none-eabi/4.8.3/armv7-m/libgcc.a(_fixdfdi.o)
                                                  /home/vladimir/Documentos/SOFTWARE/arduino/BluePill/primeros_ejemplos/Blink/build/core/core.a(Print.cpp.o)
__aeabi_d2uiz                                     /home/vladimir/.arduino15/packages/arduino/tools/arm-none-eabi-gcc/4.8.3-2014q1/bin/../lib/gcc/arm-none-eabi/4.8.3/armv7-m/libgcc.a(_arm_fixunsdfsi.o)
                                                  /home/vladimir/.arduino15/packages/arduino/tools/arm-none-eabi-gcc/4.8.3-2014q1/bin/../lib/gcc/arm-none-eabi/4.8.3/armv7-m/libgcc.a(_fixunsdfdi.o)
__aeabi_d2ulz                                     /home/vladimir/.arduino15/packages/arduino/tools/arm-none-eabi-gcc/4.8.3-2014q1/bin/../lib/gcc/arm-none-eabi/4.8.3/armv7-m/libgcc.a(_fixunsdfdi.o)
                                                  /home/vladimir/.arduino15/packages/arduino/tools/arm-none-eabi-gcc/4.8.3-2014q1/bin/../lib/gcc/arm-none-eabi/4.8.3/armv7-m/libgcc.a(_fixdfdi.o)
__aeabi_dadd                                      /home/vladimir/.arduino15/packages/arduino/tools/arm-none-eabi-gcc/4.8.3-2014q1/bin/../lib/gcc/arm-none-eabi/4.8.3/armv7-m/libgcc.a(_arm_addsubdf3.o)
                                                  /home/vladimir/Documentos/SOFTWARE/arduino/BluePill/primeros_ejemplos/Blink/build/core/core.a(Print.cpp.o)
__aeabi_dcmpeq                                    /home/vladimir/.arduino15/packages/arduino/tools/arm-none-eabi-gcc/4.8.3-2014q1/bin/../lib/gcc/arm-none-eabi/4.8.3/armv7-m/libgcc.a(_arm_cmpdf2.o)
__aeabi_dcmpge                                    /home/vladimir/.arduino15/packages/arduino/tools/arm-none-eabi-gcc/4.8.3-2014q1/bin/../lib/gcc/arm-none-eabi/4.8.3/armv7-m/libgcc.a(_arm_cmpdf2.o)
                                                  /home/vladimir/Documentos/SOFTWARE/arduino/BluePill/primeros_ejemplos/Blink/build/core/core.a(Print.cpp.o)
__aeabi_dcmpgt                                    /home/vladimir/.arduino15/packages/arduino/tools/arm-none-eabi-gcc/4.8.3-2014q1/bin/../lib/gcc/arm-none-eabi/4.8.3/armv7-m/libgcc.a(_arm_cmpdf2.o)
                                                  /home/vladimir/Documentos/SOFTWARE/arduino/BluePill/primeros_ejemplos/Blink/build/core/core.a(Print.cpp.o)
__aeabi_dcmple                                    /home/vladimir/.arduino15/packages/arduino/tools/arm-none-eabi-gcc/4.8.3-2014q1/bin/../lib/gcc/arm-none-eabi/4.8.3/armv7-m/libgcc.a(_arm_cmpdf2.o)
                                                  /home/vladimir/Documentos/SOFTWARE/arduino/BluePill/primeros_ejemplos/Blink/build/core/core.a(Print.cpp.o)
__aeabi_dcmplt                                    /home/vladimir/.arduino15/packages/arduino/tools/arm-none-eabi-gcc/4.8.3-2014q1/bin/../lib/gcc/arm-none-eabi/4.8.3/armv7-m/libgcc.a(_arm_cmpdf2.o)
                                                  /home/vladimir/.arduino15/packages/arduino/tools/arm-none-eabi-gcc/4.8.3-2014q1/bin/../lib/gcc/arm-none-eabi/4.8.3/armv7-m/libgcc.a(_fixdfdi.o)
                                                  /home/vladimir/Documentos/SOFTWARE/arduino/BluePill/primeros_ejemplos/Blink/build/core/core.a(Print.cpp.o)
__aeabi_ddiv                                      /home/vladimir/.arduino15/packages/arduino/tools/arm-none-eabi-gcc/4.8.3-2014q1/bin/../lib/gcc/arm-none-eabi/4.8.3/armv7-m/libgcc.a(_arm_muldivdf3.o)
                                                  /home/vladimir/Documentos/SOFTWARE/arduino/BluePill/primeros_ejemplos/Blink/build/core/core.a(Print.cpp.o)
__aeabi_dmul                                      /home/vladimir/.arduino15/packages/arduino/tools/arm-none-eabi-gcc/4.8.3-2014q1/bin/../lib/gcc/arm-none-eabi/4.8.3/armv7-m/libgcc.a(_arm_muldivdf3.o)
                                                  /home/vladimir/.arduino15/packages/arduino/tools/arm-none-eabi-gcc/4.8.3-2014q1/bin/../lib/gcc/arm-none-eabi/4.8.3/armv7-m/libgcc.a(_fixunsdfdi.o)
                                                  /home/vladimir/Documentos/SOFTWARE/arduino/BluePill/primeros_ejemplos/Blink/build/core/core.a(Print.cpp.o)
__aeabi_drsub                                     /home/vladimir/.arduino15/packages/arduino/tools/arm-none-eabi-gcc/4.8.3-2014q1/bin/../lib/gcc/arm-none-eabi/4.8.3/armv7-m/libgcc.a(_arm_addsubdf3.o)
__aeabi_dsub                                      /home/vladimir/.arduino15/packages/arduino/tools/arm-none-eabi-gcc/4.8.3-2014q1/bin/../lib/gcc/arm-none-eabi/4.8.3/armv7-m/libgcc.a(_arm_addsubdf3.o)
                                                  /home/vladimir/.arduino15/packages/arduino/tools/arm-none-eabi-gcc/4.8.3-2014q1/bin/../lib/gcc/arm-none-eabi/4.8.3/armv7-m/libgcc.a(_fixunsdfdi.o)
                                                  /home/vladimir/Documentos/SOFTWARE/arduino/BluePill/primeros_ejemplos/Blink/build/core/core.a(Print.cpp.o)
__aeabi_f2d                                       /home/vladimir/.arduino15/packages/arduino/tools/arm-none-eabi-gcc/4.8.3-2014q1/bin/../lib/gcc/arm-none-eabi/4.8.3/armv7-m/libgcc.a(_arm_addsubdf3.o)
__aeabi_i2d                                       /home/vladimir/.arduino15/packages/arduino/tools/arm-none-eabi-gcc/4.8.3-2014q1/bin/../lib/gcc/arm-none-eabi/4.8.3/armv7-m/libgcc.a(_arm_addsubdf3.o)
                                                  /home/vladimir/Documentos/SOFTWARE/arduino/BluePill/primeros_ejemplos/Blink/build/core/core.a(Print.cpp.o)
__aeabi_idiv0                                     /home/vladimir/.arduino15/packages/arduino/tools/arm-none-eabi-gcc/4.8.3-2014q1/bin/../lib/gcc/arm-none-eabi/4.8.3/armv7-m/libgcc.a(_dvmd_tls.o)
__aeabi_l2d                                       /home/vladimir/.arduino15/packages/arduino/tools/arm-none-eabi-gcc/4.8.3-2014q1/bin/../lib/gcc/arm-none-eabi/4.8.3/armv7-m/libgcc.a(_arm_addsubdf3.o)
                                                  /home/vladimir/Documentos/SOFTWARE/arduino/BluePill/primeros_ejemplos/Blink/build/core/core.a(Print.cpp.o)
__aeabi_ldiv0                                     /home/vladimir/.arduino15/packages/arduino/tools/arm-none-eabi-gcc/4.8.3-2014q1/bin/../lib/gcc/arm-none-eabi/4.8.3/armv7-m/libgcc.a(_dvmd_tls.o)
                                                  /home/vladimir/.arduino15/packages/arduino/tools/arm-none-eabi-gcc/4.8.3-2014q1/bin/../lib/gcc/arm-none-eabi/4.8.3/armv7-m/libgcc.a(_aeabi_uldivmod.o)
__aeabi_ui2d                                      /home/vladimir/.arduino15/packages/arduino/tools/arm-none-eabi-gcc/4.8.3-2014q1/bin/../lib/gcc/arm-none-eabi/4.8.3/armv7-m/libgcc.a(_arm_addsubdf3.o)
                                                  /home/vladimir/.arduino15/packages/arduino/tools/arm-none-eabi-gcc/4.8.3-2014q1/bin/../lib/gcc/arm-none-eabi/4.8.3/armv7-m/libgcc.a(_fixunsdfdi.o)
__aeabi_ul2d                                      /home/vladimir/.arduino15/packages/arduino/tools/arm-none-eabi-gcc/4.8.3-2014q1/bin/../lib/gcc/arm-none-eabi/4.8.3/armv7-m/libgcc.a(_arm_addsubdf3.o)
__aeabi_uldivmod                                  /home/vladimir/.arduino15/packages/arduino/tools/arm-none-eabi-gcc/4.8.3-2014q1/bin/../lib/gcc/arm-none-eabi/4.8.3/armv7-m/libgcc.a(_aeabi_uldivmod.o)
                                                  /home/vladimir/Documentos/SOFTWARE/arduino/BluePill/primeros_ejemplos/Blink/build/core/core.a(Print.cpp.o)
__assert_func                                     /home/vladimir/Documentos/SOFTWARE/arduino/BluePill/primeros_ejemplos/Blink/build/core/core.a(util.c.o)
__bss_end__                                       /home/vladimir/Documentos/SOFTWARE/arduino/BluePill/primeros_ejemplos/Blink/build/core/wirish/start_c.c.o
                                                  /home/vladimir/.arduino15/packages/arduino/tools/arm-none-eabi-gcc/4.8.3-2014q1/bin/../lib/gcc/arm-none-eabi/4.8.3/../../../../arm-none-eabi/lib/armv7-m/crt0.o
__bss_start__                                     /home/vladimir/Documentos/SOFTWARE/arduino/BluePill/primeros_ejemplos/Blink/build/core/wirish/start_c.c.o
                                                  /home/vladimir/.arduino15/packages/arduino/tools/arm-none-eabi-gcc/4.8.3-2014q1/bin/../lib/gcc/arm-none-eabi/4.8.3/../../../../arm-none-eabi/lib/armv7-m/crt0.o
__call_exitprocs                                  /home/vladimir/.arduino15/packages/arduino/tools/arm-none-eabi-gcc/4.8.3-2014q1/bin/../lib/gcc/arm-none-eabi/4.8.3/../../../../arm-none-eabi/lib/armv7-m/libc.a(lib_a-__call_atexit.o)
                                                  /home/vladimir/.arduino15/packages/arduino/tools/arm-none-eabi-gcc/4.8.3-2014q1/bin/../lib/gcc/arm-none-eabi/4.8.3/../../../../arm-none-eabi/lib/armv7-m/libc.a(lib_a-exit.o)
__cmpdf2                                          /home/vladimir/.arduino15/packages/arduino/tools/arm-none-eabi-gcc/4.8.3-2014q1/bin/../lib/gcc/arm-none-eabi/4.8.3/armv7-m/libgcc.a(_arm_cmpdf2.o)
__cxa_pure_virtual                                /home/vladimir/Documentos/SOFTWARE/arduino/BluePill/primeros_ejemplos/Blink/build/core/core.a(cxxabi-compat.cpp.o)
                                                  /home/vladimir/Documentos/SOFTWARE/arduino/BluePill/primeros_ejemplos/Blink/build/core/core.a(usb_serial.cpp.o)
                                                  /home/vladimir/Documentos/SOFTWARE/arduino/BluePill/primeros_ejemplos/Blink/build/core/core.a(Print.cpp.o)
                                                  /home/vladimir/Documentos/SOFTWARE/arduino/BluePill/primeros_ejemplos/Blink/build/core/core.a(HardwareSerial.cpp.o)
__data_end__                                      /home/vladimir/Documentos/SOFTWARE/arduino/BluePill/primeros_ejemplos/Blink/build/core/wirish/start_c.c.o
__data_start__                                    /home/vladimir/Documentos/SOFTWARE/arduino/BluePill/primeros_ejemplos/Blink/build/core/wirish/start_c.c.o
__default_handler                                 /home/vladimir/Documentos/SOFTWARE/arduino/BluePill/primeros_ejemplos/Blink/build/core/core.a(isrs.S.o)
__deregister_frame_info                           /home/vladimir/.arduino15/packages/arduino/tools/arm-none-eabi-gcc/4.8.3-2014q1/bin/../lib/gcc/arm-none-eabi/4.8.3/armv7-m/crtbegin.o
__divdf3                                          /home/vladimir/.arduino15/packages/arduino/tools/arm-none-eabi-gcc/4.8.3-2014q1/bin/../lib/gcc/arm-none-eabi/4.8.3/armv7-m/libgcc.a(_arm_muldivdf3.o)
__divdi3                                          /home/vladimir/.arduino15/packages/arduino/tools/arm-none-eabi-gcc/4.8.3-2014q1/bin/../lib/gcc/arm-none-eabi/4.8.3/armv7-m/libgcc.a(_divdi3.o)
                                                  /home/vladimir/.arduino15/packages/arduino/tools/arm-none-eabi-gcc/4.8.3-2014q1/bin/../lib/gcc/arm-none-eabi/4.8.3/armv7-m/libgcc.a(bpabi.o)
__dso_handle                                      /home/vladimir/.arduino15/packages/arduino/tools/arm-none-eabi-gcc/4.8.3-2014q1/bin/../lib/gcc/arm-none-eabi/4.8.3/armv7-m/crtbegin.o
__eqdf2                                           /home/vladimir/.arduino15/packages/arduino/tools/arm-none-eabi-gcc/4.8.3-2014q1/bin/../lib/gcc/arm-none-eabi/4.8.3/armv7-m/libgcc.a(_arm_cmpdf2.o)
__errno                                           /home/vladimir/.arduino15/packages/arduino/tools/arm-none-eabi-gcc/4.8.3-2014q1/bin/../lib/gcc/arm-none-eabi/4.8.3/../../../../arm-none-eabi/lib/armv7-m/libc.a(lib_a-errno.o)
                                                  /home/vladimir/Documentos/SOFTWARE/arduino/BluePill/primeros_ejemplos/Blink/build/core/wirish/syscalls.c.o
__error                                           /home/vladimir/Documentos/SOFTWARE/arduino/BluePill/primeros_ejemplos/Blink/build/core/core.a(util.c.o)
                                                  /home/vladimir/Documentos/SOFTWARE/arduino/BluePill/primeros_ejemplos/Blink/build/core/core.a(exc.S.o)
__exc_busfault                                    /home/vladimir/Documentos/SOFTWARE/arduino/BluePill/primeros_ejemplos/Blink/build/core/core.a(exc.S.o)
                                                  /home/vladimir/Documentos/SOFTWARE/arduino/BluePill/primeros_ejemplos/Blink/build/core/core.a(vector_table.S.o)
__exc_debug_monitor                               /home/vladimir/Documentos/SOFTWARE/arduino/BluePill/primeros_ejemplos/Blink/build/core/core.a(isrs.S.o)
                                                  /home/vladimir/Documentos/SOFTWARE/arduino/BluePill/primeros_ejemplos/Blink/build/core/core.a(vector_table.S.o)
__exc_hardfault                                   /home/vladimir/Documentos/SOFTWARE/arduino/BluePill/primeros_ejemplos/Blink/build/core/core.a(exc.S.o)
                                                  /home/vladimir/Documentos/SOFTWARE/arduino/BluePill/primeros_ejemplos/Blink/build/core/core.a(vector_table.S.o)
__exc_memmanage                                   /home/vladimir/Documentos/SOFTWARE/arduino/BluePill/primeros_ejemplos/Blink/build/core/core.a(exc.S.o)
                                                  /home/vladimir/Documentos/SOFTWARE/arduino/BluePill/primeros_ejemplos/Blink/build/core/core.a(vector_table.S.o)
__exc_nmi                                         /home/vladimir/Documentos/SOFTWARE/arduino/BluePill/primeros_ejemplos/Blink/build/core/core.a(exc.S.o)
                                                  /home/vladimir/Documentos/SOFTWARE/arduino/BluePill/primeros_ejemplos/Blink/build/core/core.a(vector_table.S.o)
__exc_pendsv                                      /home/vladimir/Documentos/SOFTWARE/arduino/BluePill/primeros_ejemplos/Blink/build/core/core.a(isrs.S.o)
                                                  /home/vladimir/Documentos/SOFTWARE/arduino/BluePill/primeros_ejemplos/Blink/build/core/core.a(vector_table.S.o)
__exc_reset                                       /home/vladimir/Documentos/SOFTWARE/arduino/BluePill/primeros_ejemplos/Blink/build/core/core.a(vector_table.S.o)
__exc_svc                                         /home/vladimir/Documentos/SOFTWARE/arduino/BluePill/primeros_ejemplos/Blink/build/core/core.a(isrs.S.o)
                                                  /home/vladimir/Documentos/SOFTWARE/arduino/BluePill/primeros_ejemplos/Blink/build/core/core.a(vector_table.S.o)
__exc_systick                                     /home/vladimir/Documentos/SOFTWARE/arduino/BluePill/primeros_ejemplos/Blink/build/core/core.a(systick.c.o)
                                                  /home/vladimir/Documentos/SOFTWARE/arduino/BluePill/primeros_ejemplos/Blink/build/core/core.a(vector_table.S.o)
__exc_usagefault                                  /home/vladimir/Documentos/SOFTWARE/arduino/BluePill/primeros_ejemplos/Blink/build/core/core.a(exc.S.o)
                                                  /home/vladimir/Documentos/SOFTWARE/arduino/BluePill/primeros_ejemplos/Blink/build/core/core.a(vector_table.S.o)
__extendsfdf2                                     /home/vladimir/.arduino15/packages/arduino/tools/arm-none-eabi-gcc/4.8.3-2014q1/bin/../lib/gcc/arm-none-eabi/4.8.3/armv7-m/libgcc.a(_arm_addsubdf3.o)
__fini_array_end                                  /home/vladimir/.arduino15/packages/arduino/tools/arm-none-eabi-gcc/4.8.3-2014q1/bin/../lib/gcc/arm-none-eabi/4.8.3/../../../../arm-none-eabi/lib/armv7-m/libc.a(lib_a-fini.o)
__fini_array_start                                /home/vladimir/.arduino15/packages/arduino/tools/arm-none-eabi-gcc/4.8.3-2014q1/bin/../lib/gcc/arm-none-eabi/4.8.3/../../../../arm-none-eabi/lib/armv7-m/libc.a(lib_a-fini.o)
__fixdfdi                                         /home/vladimir/.arduino15/packages/arduino/tools/arm-none-eabi-gcc/4.8.3-2014q1/bin/../lib/gcc/arm-none-eabi/4.8.3/armv7-m/libgcc.a(_fixdfdi.o)
__fixdfsi                                         /home/vladimir/.arduino15/packages/arduino/tools/arm-none-eabi-gcc/4.8.3-2014q1/bin/../lib/gcc/arm-none-eabi/4.8.3/armv7-m/libgcc.a(_arm_fixdfsi.o)
__fixunsdfdi                                      /home/vladimir/.arduino15/packages/arduino/tools/arm-none-eabi-gcc/4.8.3-2014q1/bin/../lib/gcc/arm-none-eabi/4.8.3/armv7-m/libgcc.a(_fixunsdfdi.o)
__fixunsdfsi                                      /home/vladimir/.arduino15/packages/arduino/tools/arm-none-eabi-gcc/4.8.3-2014q1/bin/../lib/gcc/arm-none-eabi/4.8.3/armv7-m/libgcc.a(_arm_fixunsdfsi.o)
__floatdidf                                       /home/vladimir/.arduino15/packages/arduino/tools/arm-none-eabi-gcc/4.8.3-2014q1/bin/../lib/gcc/arm-none-eabi/4.8.3/armv7-m/libgcc.a(_arm_addsubdf3.o)
__floatsidf                                       /home/vladimir/.arduino15/packages/arduino/tools/arm-none-eabi-gcc/4.8.3-2014q1/bin/../lib/gcc/arm-none-eabi/4.8.3/armv7-m/libgcc.a(_arm_addsubdf3.o)
__floatundidf                                     /home/vladimir/.arduino15/packages/arduino/tools/arm-none-eabi-gcc/4.8.3-2014q1/bin/../lib/gcc/arm-none-eabi/4.8.3/armv7-m/libgcc.a(_arm_addsubdf3.o)
__floatunsidf                                     /home/vladimir/.arduino15/packages/arduino/tools/arm-none-eabi-gcc/4.8.3-2014q1/bin/../lib/gcc/arm-none-eabi/4.8.3/armv7-m/libgcc.a(_arm_addsubdf3.o)
__gedf2                                           /home/vladimir/.arduino15/packages/arduino/tools/arm-none-eabi-gcc/4.8.3-2014q1/bin/../lib/gcc/arm-none-eabi/4.8.3/armv7-m/libgcc.a(_arm_cmpdf2.o)
__gnu_ldivmod_helper                              /home/vladimir/.arduino15/packages/arduino/tools/arm-none-eabi-gcc/4.8.3-2014q1/bin/../lib/gcc/arm-none-eabi/4.8.3/armv7-m/libgcc.a(bpabi.o)
__gnu_uldivmod_helper                             /home/vladimir/.arduino15/packages/arduino/tools/arm-none-eabi-gcc/4.8.3-2014q1/bin/../lib/gcc/arm-none-eabi/4.8.3/armv7-m/libgcc.a(bpabi.o)
                                                  /home/vladimir/.arduino15/packages/arduino/tools/arm-none-eabi-gcc/4.8.3-2014q1/bin/../lib/gcc/arm-none-eabi/4.8.3/armv7-m/libgcc.a(_aeabi_uldivmod.o)
__gtdf2                                           /home/vladimir/.arduino15/packages/arduino/tools/arm-none-eabi-gcc/4.8.3-2014q1/bin/../lib/gcc/arm-none-eabi/4.8.3/armv7-m/libgcc.a(_arm_cmpdf2.o)
__init_array_end                                  /home/vladimir/.arduino15/packages/arduino/tools/arm-none-eabi-gcc/4.8.3-2014q1/bin/../lib/gcc/arm-none-eabi/4.8.3/../../../../arm-none-eabi/lib/armv7-m/libc.a(lib_a-init.o)
__init_array_start                                /home/vladimir/.arduino15/packages/arduino/tools/arm-none-eabi-gcc/4.8.3-2014q1/bin/../lib/gcc/arm-none-eabi/4.8.3/../../../../arm-none-eabi/lib/armv7-m/libc.a(lib_a-init.o)
__irq_adc                                         /home/vladimir/Documentos/SOFTWARE/arduino/BluePill/primeros_ejemplos/Blink/build/core/core.a(adc_f1.c.o)
                                                  /home/vladimir/Documentos/SOFTWARE/arduino/BluePill/primeros_ejemplos/Blink/build/core/core.a(vector_table.S.o)
__irq_can_rx1                                     /home/vladimir/Documentos/SOFTWARE/arduino/BluePill/primeros_ejemplos/Blink/build/core/core.a(isrs.S.o)
                                                  /home/vladimir/Documentos/SOFTWARE/arduino/BluePill/primeros_ejemplos/Blink/build/core/core.a(vector_table.S.o)
__irq_can_sce                                     /home/vladimir/Documentos/SOFTWARE/arduino/BluePill/primeros_ejemplos/Blink/build/core/core.a(isrs.S.o)
                                                  /home/vladimir/Documentos/SOFTWARE/arduino/BluePill/primeros_ejemplos/Blink/build/core/core.a(vector_table.S.o)
__irq_dma1_channel1                               /home/vladimir/Documentos/SOFTWARE/arduino/BluePill/primeros_ejemplos/Blink/build/core/core.a(dma_f1.c.o)
                                                  /home/vladimir/Documentos/SOFTWARE/arduino/BluePill/primeros_ejemplos/Blink/build/core/core.a(vector_table.S.o)
__irq_dma1_channel2                               /home/vladimir/Documentos/SOFTWARE/arduino/BluePill/primeros_ejemplos/Blink/build/core/core.a(dma_f1.c.o)
                                                  /home/vladimir/Documentos/SOFTWARE/arduino/BluePill/primeros_ejemplos/Blink/build/core/core.a(vector_table.S.o)
__irq_dma1_channel3                               /home/vladimir/Documentos/SOFTWARE/arduino/BluePill/primeros_ejemplos/Blink/build/core/core.a(dma_f1.c.o)
                                                  /home/vladimir/Documentos/SOFTWARE/arduino/BluePill/primeros_ejemplos/Blink/build/core/core.a(vector_table.S.o)
__irq_dma1_channel4                               /home/vladimir/Documentos/SOFTWARE/arduino/BluePill/primeros_ejemplos/Blink/build/core/core.a(dma_f1.c.o)
                                                  /home/vladimir/Documentos/SOFTWARE/arduino/BluePill/primeros_ejemplos/Blink/build/core/core.a(vector_table.S.o)
__irq_dma1_channel5                               /home/vladimir/Documentos/SOFTWARE/arduino/BluePill/primeros_ejemplos/Blink/build/core/core.a(dma_f1.c.o)
                                                  /home/vladimir/Documentos/SOFTWARE/arduino/BluePill/primeros_ejemplos/Blink/build/core/core.a(vector_table.S.o)
__irq_dma1_channel6                               /home/vladimir/Documentos/SOFTWARE/arduino/BluePill/primeros_ejemplos/Blink/build/core/core.a(dma_f1.c.o)
                                                  /home/vladimir/Documentos/SOFTWARE/arduino/BluePill/primeros_ejemplos/Blink/build/core/core.a(vector_table.S.o)
__irq_dma1_channel7                               /home/vladimir/Documentos/SOFTWARE/arduino/BluePill/primeros_ejemplos/Blink/build/core/core.a(dma_f1.c.o)
                                                  /home/vladimir/Documentos/SOFTWARE/arduino/BluePill/primeros_ejemplos/Blink/build/core/core.a(vector_table.S.o)
__irq_exti0                                       /home/vladimir/Documentos/SOFTWARE/arduino/BluePill/primeros_ejemplos/Blink/build/core/core.a(exti.c.o)
                                                  /home/vladimir/Documentos/SOFTWARE/arduino/BluePill/primeros_ejemplos/Blink/build/core/core.a(vector_table.S.o)
__irq_exti1                                       /home/vladimir/Documentos/SOFTWARE/arduino/BluePill/primeros_ejemplos/Blink/build/core/core.a(exti.c.o)
                                                  /home/vladimir/Documentos/SOFTWARE/arduino/BluePill/primeros_ejemplos/Blink/build/core/core.a(vector_table.S.o)
__irq_exti15_10                                   /home/vladimir/Documentos/SOFTWARE/arduino/BluePill/primeros_ejemplos/Blink/build/core/core.a(exti.c.o)
                                                  /home/vladimir/Documentos/SOFTWARE/arduino/BluePill/primeros_ejemplos/Blink/build/core/core.a(vector_table.S.o)
__irq_exti2                                       /home/vladimir/Documentos/SOFTWARE/arduino/BluePill/primeros_ejemplos/Blink/build/core/core.a(exti.c.o)
                                                  /home/vladimir/Documentos/SOFTWARE/arduino/BluePill/primeros_ejemplos/Blink/build/core/core.a(vector_table.S.o)
__irq_exti3                                       /home/vladimir/Documentos/SOFTWARE/arduino/BluePill/primeros_ejemplos/Blink/build/core/core.a(exti.c.o)
                                                  /home/vladimir/Documentos/SOFTWARE/arduino/BluePill/primeros_ejemplos/Blink/build/core/core.a(vector_table.S.o)
__irq_exti4                                       /home/vladimir/Documentos/SOFTWARE/arduino/BluePill/primeros_ejemplos/Blink/build/core/core.a(exti.c.o)
                                                  /home/vladimir/Documentos/SOFTWARE/arduino/BluePill/primeros_ejemplos/Blink/build/core/core.a(vector_table.S.o)
__irq_exti9_5                                     /home/vladimir/Documentos/SOFTWARE/arduino/BluePill/primeros_ejemplos/Blink/build/core/core.a(exti.c.o)
                                                  /home/vladimir/Documentos/SOFTWARE/arduino/BluePill/primeros_ejemplos/Blink/build/core/core.a(vector_table.S.o)
__irq_flash                                       /home/vladimir/Documentos/SOFTWARE/arduino/BluePill/primeros_ejemplos/Blink/build/core/core.a(isrs.S.o)
                                                  /home/vladimir/Documentos/SOFTWARE/arduino/BluePill/primeros_ejemplos/Blink/build/core/core.a(vector_table.S.o)
__irq_i2c1_er                                     /home/vladimir/Documentos/SOFTWARE/arduino/BluePill/primeros_ejemplos/Blink/build/core/core.a(i2c_f1.c.o)
                                                  /home/vladimir/Documentos/SOFTWARE/arduino/BluePill/primeros_ejemplos/Blink/build/core/core.a(vector_table.S.o)
__irq_i2c1_ev                                     /home/vladimir/Documentos/SOFTWARE/arduino/BluePill/primeros_ejemplos/Blink/build/core/core.a(i2c_f1.c.o)
                                                  /home/vladimir/Documentos/SOFTWARE/arduino/BluePill/primeros_ejemplos/Blink/build/core/core.a(vector_table.S.o)
__irq_i2c2_er                                     /home/vladimir/Documentos/SOFTWARE/arduino/BluePill/primeros_ejemplos/Blink/build/core/core.a(i2c_f1.c.o)
                                                  /home/vladimir/Documentos/SOFTWARE/arduino/BluePill/primeros_ejemplos/Blink/build/core/core.a(vector_table.S.o)
__irq_i2c2_ev                                     /home/vladimir/Documentos/SOFTWARE/arduino/BluePill/primeros_ejemplos/Blink/build/core/core.a(i2c_f1.c.o)
                                                  /home/vladimir/Documentos/SOFTWARE/arduino/BluePill/primeros_ejemplos/Blink/build/core/core.a(vector_table.S.o)
__irq_pvd                                         /home/vladimir/Documentos/SOFTWARE/arduino/BluePill/primeros_ejemplos/Blink/build/core/core.a(isrs.S.o)
                                                  /home/vladimir/Documentos/SOFTWARE/arduino/BluePill/primeros_ejemplos/Blink/build/core/core.a(vector_table.S.o)
__irq_rcc                                         /home/vladimir/Documentos/SOFTWARE/arduino/BluePill/primeros_ejemplos/Blink/build/core/core.a(isrs.S.o)
                                                  /home/vladimir/Documentos/SOFTWARE/arduino/BluePill/primeros_ejemplos/Blink/build/core/core.a(vector_table.S.o)
__irq_rtc                                         /home/vladimir/Documentos/SOFTWARE/arduino/BluePill/primeros_ejemplos/Blink/build/core/core.a(isrs.S.o)
                                                  /home/vladimir/Documentos/SOFTWARE/arduino/BluePill/primeros_ejemplos/Blink/build/core/core.a(vector_table.S.o)
__irq_rtcalarm                                    /home/vladimir/Documentos/SOFTWARE/arduino/BluePill/primeros_ejemplos/Blink/build/core/core.a(isrs.S.o)
                                                  /home/vladimir/Documentos/SOFTWARE/arduino/BluePill/primeros_ejemplos/Blink/build/core/core.a(vector_table.S.o)
__irq_spi1                                        /home/vladimir/Documentos/SOFTWARE/arduino/BluePill/primeros_ejemplos/Blink/build/core/core.a(isrs.S.o)
                                                  /home/vladimir/Documentos/SOFTWARE/arduino/BluePill/primeros_ejemplos/Blink/build/core/core.a(vector_table.S.o)
__irq_spi2                                        /home/vladimir/Documentos/SOFTWARE/arduino/BluePill/primeros_ejemplos/Blink/build/core/core.a(isrs.S.o)
                                                  /home/vladimir/Documentos/SOFTWARE/arduino/BluePill/primeros_ejemplos/Blink/build/core/core.a(vector_table.S.o)
__irq_tamper                                      /home/vladimir/Documentos/SOFTWARE/arduino/BluePill/primeros_ejemplos/Blink/build/core/core.a(isrs.S.o)
                                                  /home/vladimir/Documentos/SOFTWARE/arduino/BluePill/primeros_ejemplos/Blink/build/core/core.a(vector_table.S.o)
__irq_tim1_brk                                    /home/vladimir/Documentos/SOFTWARE/arduino/BluePill/primeros_ejemplos/Blink/build/core/core.a(timer.c.o)
                                                  /home/vladimir/Documentos/SOFTWARE/arduino/BluePill/primeros_ejemplos/Blink/build/core/core.a(vector_table.S.o)
__irq_tim1_cc                                     /home/vladimir/Documentos/SOFTWARE/arduino/BluePill/primeros_ejemplos/Blink/build/core/core.a(timer.c.o)
                                                  /home/vladimir/Documentos/SOFTWARE/arduino/BluePill/primeros_ejemplos/Blink/build/core/core.a(vector_table.S.o)
__irq_tim1_trg_com                                /home/vladimir/Documentos/SOFTWARE/arduino/BluePill/primeros_ejemplos/Blink/build/core/core.a(timer.c.o)
                                                  /home/vladimir/Documentos/SOFTWARE/arduino/BluePill/primeros_ejemplos/Blink/build/core/core.a(vector_table.S.o)
__irq_tim1_up                                     /home/vladimir/Documentos/SOFTWARE/arduino/BluePill/primeros_ejemplos/Blink/build/core/core.a(timer.c.o)
                                                  /home/vladimir/Documentos/SOFTWARE/arduino/BluePill/primeros_ejemplos/Blink/build/core/core.a(vector_table.S.o)
__irq_tim2                                        /home/vladimir/Documentos/SOFTWARE/arduino/BluePill/primeros_ejemplos/Blink/build/core/core.a(timer.c.o)
                                                  /home/vladimir/Documentos/SOFTWARE/arduino/BluePill/primeros_ejemplos/Blink/build/core/core.a(vector_table.S.o)
__irq_tim3                                        /home/vladimir/Documentos/SOFTWARE/arduino/BluePill/primeros_ejemplos/Blink/build/core/core.a(timer.c.o)
                                                  /home/vladimir/Documentos/SOFTWARE/arduino/BluePill/primeros_ejemplos/Blink/build/core/core.a(vector_table.S.o)
__irq_tim4                                        /home/vladimir/Documentos/SOFTWARE/arduino/BluePill/primeros_ejemplos/Blink/build/core/core.a(timer.c.o)
                                                  /home/vladimir/Documentos/SOFTWARE/arduino/BluePill/primeros_ejemplos/Blink/build/core/core.a(vector_table.S.o)
__irq_usart1                                      /home/vladimir/Documentos/SOFTWARE/arduino/BluePill/primeros_ejemplos/Blink/build/core/core.a(usart_f1.c.o)
                                                  /home/vladimir/Documentos/SOFTWARE/arduino/BluePill/primeros_ejemplos/Blink/build/core/core.a(vector_table.S.o)
__irq_usart2                                      /home/vladimir/Documentos/SOFTWARE/arduino/BluePill/primeros_ejemplos/Blink/build/core/core.a(usart_f1.c.o)
                                                  /home/vladimir/Documentos/SOFTWARE/arduino/BluePill/primeros_ejemplos/Blink/build/core/core.a(vector_table.S.o)
__irq_usart3                                      /home/vladimir/Documentos/SOFTWARE/arduino/BluePill/primeros_ejemplos/Blink/build/core/core.a(usart_f1.c.o)
                                                  /home/vladimir/Documentos/SOFTWARE/arduino/BluePill/primeros_ejemplos/Blink/build/core/core.a(vector_table.S.o)
__irq_usb_hp_can_tx                               /home/vladimir/Documentos/SOFTWARE/arduino/BluePill/primeros_ejemplos/Blink/build/core/core.a(isrs.S.o)
                                                  /home/vladimir/Documentos/SOFTWARE/arduino/BluePill/primeros_ejemplos/Blink/build/core/core.a(vector_table.S.o)
__irq_usb_lp_can_rx0                              /home/vladimir/Documentos/SOFTWARE/arduino/BluePill/primeros_ejemplos/Blink/build/core/core.a(usb.c.o)
                                                  /home/vladimir/Documentos/SOFTWARE/arduino/BluePill/primeros_ejemplos/Blink/build/core/core.a(vector_table.S.o)
__irq_usbwakeup                                   /home/vladimir/Documentos/SOFTWARE/arduino/BluePill/primeros_ejemplos/Blink/build/core/core.a(isrs.S.o)
                                                  /home/vladimir/Documentos/SOFTWARE/arduino/BluePill/primeros_ejemplos/Blink/build/core/core.a(vector_table.S.o)
__irq_wwdg                                        /home/vladimir/Documentos/SOFTWARE/arduino/BluePill/primeros_ejemplos/Blink/build/core/core.a(isrs.S.o)
                                                  /home/vladimir/Documentos/SOFTWARE/arduino/BluePill/primeros_ejemplos/Blink/build/core/core.a(vector_table.S.o)
__ledf2                                           /home/vladimir/.arduino15/packages/arduino/tools/arm-none-eabi-gcc/4.8.3-2014q1/bin/../lib/gcc/arm-none-eabi/4.8.3/armv7-m/libgcc.a(_arm_cmpdf2.o)
__libc_fini                                       /home/vladimir/.arduino15/packages/arduino/tools/arm-none-eabi-gcc/4.8.3-2014q1/bin/../lib/gcc/arm-none-eabi/4.8.3/../../../../arm-none-eabi/lib/armv7-m/libc.a(lib_a-__call_atexit.o)
__libc_fini_array                                 /home/vladimir/.arduino15/packages/arduino/tools/arm-none-eabi-gcc/4.8.3-2014q1/bin/../lib/gcc/arm-none-eabi/4.8.3/../../../../arm-none-eabi/lib/armv7-m/libc.a(lib_a-fini.o)
                                                  /home/vladimir/.arduino15/packages/arduino/tools/arm-none-eabi-gcc/4.8.3-2014q1/bin/../lib/gcc/arm-none-eabi/4.8.3/../../../../arm-none-eabi/lib/armv7-m/libc.a(lib_a-__call_atexit.o)
                                                  /home/vladimir/.arduino15/packages/arduino/tools/arm-none-eabi-gcc/4.8.3-2014q1/bin/../lib/gcc/arm-none-eabi/4.8.3/../../../../arm-none-eabi/lib/armv7-m/crt0.o
__libc_init_array                                 /home/vladimir/.arduino15/packages/arduino/tools/arm-none-eabi-gcc/4.8.3-2014q1/bin/../lib/gcc/arm-none-eabi/4.8.3/../../../../arm-none-eabi/lib/armv7-m/libc.a(lib_a-init.o)
                                                  /home/vladimir/Documentos/SOFTWARE/arduino/BluePill/primeros_ejemplos/Blink/build/core/wirish/start_c.c.o
                                                  /home/vladimir/.arduino15/packages/arduino/tools/arm-none-eabi-gcc/4.8.3-2014q1/bin/../lib/gcc/arm-none-eabi/4.8.3/../../../../arm-none-eabi/lib/armv7-m/crt0.o
__lm_enable_error_usart                           /home/vladimir/Documentos/SOFTWARE/arduino/BluePill/primeros_ejemplos/Blink/build/core/core.a(util.c.o)
__lm_error                                        /home/vladimir/Documentos/SOFTWARE/arduino/BluePill/primeros_ejemplos/Blink/build/core/core.a(util.c.o)
__ltdf2                                           /home/vladimir/.arduino15/packages/arduino/tools/arm-none-eabi-gcc/4.8.3-2014q1/bin/../lib/gcc/arm-none-eabi/4.8.3/armv7-m/libgcc.a(_arm_cmpdf2.o)
__msp_init                                        /home/vladimir/Documentos/SOFTWARE/arduino/BluePill/primeros_ejemplos/Blink/build/core/core.a(vector_table.S.o)
                                                  /home/vladimir/Documentos/SOFTWARE/arduino/BluePill/primeros_ejemplos/Blink/build/core/wirish/start.S.o
__muldf3                                          /home/vladimir/.arduino15/packages/arduino/tools/arm-none-eabi-gcc/4.8.3-2014q1/bin/../lib/gcc/arm-none-eabi/4.8.3/armv7-m/libgcc.a(_arm_muldivdf3.o)
__nedf2                                           /home/vladimir/.arduino15/packages/arduino/tools/arm-none-eabi-gcc/4.8.3-2014q1/bin/../lib/gcc/arm-none-eabi/4.8.3/armv7-m/libgcc.a(_arm_cmpdf2.o)
__preinit_array_end                               /home/vladimir/.arduino15/packages/arduino/tools/arm-none-eabi-gcc/4.8.3-2014q1/bin/../lib/gcc/arm-none-eabi/4.8.3/../../../../arm-none-eabi/lib/armv7-m/libc.a(lib_a-init.o)
__preinit_array_start                             /home/vladimir/.arduino15/packages/arduino/tools/arm-none-eabi-gcc/4.8.3-2014q1/bin/../lib/gcc/arm-none-eabi/4.8.3/../../../../arm-none-eabi/lib/armv7-m/libc.a(lib_a-init.o)
__register_exitproc                               /home/vladimir/.arduino15/packages/arduino/tools/arm-none-eabi-gcc/4.8.3-2014q1/bin/../lib/gcc/arm-none-eabi/4.8.3/../../../../arm-none-eabi/lib/armv7-m/libc.a(lib_a-__atexit.o)
                                                  /home/vladimir/.arduino15/packages/arduino/tools/arm-none-eabi-gcc/4.8.3-2014q1/bin/../lib/gcc/arm-none-eabi/4.8.3/../../../../arm-none-eabi/lib/armv7-m/libc.a(lib_a-atexit.o)
__register_frame_info                             /home/vladimir/.arduino15/packages/arduino/tools/arm-none-eabi-gcc/4.8.3-2014q1/bin/../lib/gcc/arm-none-eabi/4.8.3/armv7-m/crtbegin.o
__stack                                           /home/vladimir/.arduino15/packages/arduino/tools/arm-none-eabi-gcc/4.8.3-2014q1/bin/../lib/gcc/arm-none-eabi/4.8.3/../../../../arm-none-eabi/lib/armv7-m/crt0.o
__start__                                         /home/vladimir/Documentos/SOFTWARE/arduino/BluePill/primeros_ejemplos/Blink/build/core/wirish/start.S.o
__stm32_vector_table                              /home/vladimir/Documentos/SOFTWARE/arduino/BluePill/primeros_ejemplos/Blink/build/core/core.a(vector_table.S.o)
__stm32reservedexception10                        /home/vladimir/Documentos/SOFTWARE/arduino/BluePill/primeros_ejemplos/Blink/build/core/core.a(isrs.S.o)
                                                  /home/vladimir/Documentos/SOFTWARE/arduino/BluePill/primeros_ejemplos/Blink/build/core/core.a(vector_table.S.o)
__stm32reservedexception13                        /home/vladimir/Documentos/SOFTWARE/arduino/BluePill/primeros_ejemplos/Blink/build/core/core.a(isrs.S.o)
                                                  /home/vladimir/Documentos/SOFTWARE/arduino/BluePill/primeros_ejemplos/Blink/build/core/core.a(vector_table.S.o)
__stm32reservedexception7                         /home/vladimir/Documentos/SOFTWARE/arduino/BluePill/primeros_ejemplos/Blink/build/core/core.a(isrs.S.o)
                                                  /home/vladimir/Documentos/SOFTWARE/arduino/BluePill/primeros_ejemplos/Blink/build/core/core.a(vector_table.S.o)
__stm32reservedexception8                         /home/vladimir/Documentos/SOFTWARE/arduino/BluePill/primeros_ejemplos/Blink/build/core/core.a(isrs.S.o)
                                                  /home/vladimir/Documentos/SOFTWARE/arduino/BluePill/primeros_ejemplos/Blink/build/core/core.a(vector_table.S.o)
__stm32reservedexception9                         /home/vladimir/Documentos/SOFTWARE/arduino/BluePill/primeros_ejemplos/Blink/build/core/core.a(isrs.S.o)
                                                  /home/vladimir/Documentos/SOFTWARE/arduino/BluePill/primeros_ejemplos/Blink/build/core/core.a(vector_table.S.o)
__subdf3                                          /home/vladimir/.arduino15/packages/arduino/tools/arm-none-eabi-gcc/4.8.3-2014q1/bin/../lib/gcc/arm-none-eabi/4.8.3/armv7-m/libgcc.a(_arm_addsubdf3.o)
__udivdi3                                         /home/vladimir/.arduino15/packages/arduino/tools/arm-none-eabi-gcc/4.8.3-2014q1/bin/../lib/gcc/arm-none-eabi/4.8.3/armv7-m/libgcc.a(_udivdi3.o)
                                                  /home/vladimir/.arduino15/packages/arduino/tools/arm-none-eabi-gcc/4.8.3-2014q1/bin/../lib/gcc/arm-none-eabi/4.8.3/armv7-m/libgcc.a(bpabi.o)
_close                                            /home/vladimir/Documentos/SOFTWARE/arduino/BluePill/primeros_ejemplos/Blink/build/core/wirish/syscalls.c.o
_dma_addr_type                                    /home/vladimir/Documentos/SOFTWARE/arduino/BluePill/primeros_ejemplos/Blink/build/core/core.a(dma.c.o)
                                                  /home/vladimir/Documentos/SOFTWARE/arduino/BluePill/primeros_ejemplos/Blink/build/core/core.a(dma_f1.c.o)
_exit                                             /home/vladimir/Documentos/SOFTWARE/arduino/BluePill/primeros_ejemplos/Blink/build/core/wirish/syscalls.c.o
                                                  /home/vladimir/.arduino15/packages/arduino/tools/arm-none-eabi-gcc/4.8.3-2014q1/bin/../lib/gcc/arm-none-eabi/4.8.3/../../../../arm-none-eabi/lib/armv7-m/libc.a(lib_a-exit.o)
_fail                                             /home/vladimir/Documentos/SOFTWARE/arduino/BluePill/primeros_ejemplos/Blink/build/core/core.a(util.c.o)
_fini                                             /home/vladimir/.arduino15/packages/arduino/tools/arm-none-eabi-gcc/4.8.3-2014q1/bin/../lib/gcc/arm-none-eabi/4.8.3/armv7-m/crti.o
                                                  /home/vladimir/.arduino15/packages/arduino/tools/arm-none-eabi-gcc/4.8.3-2014q1/bin/../lib/gcc/arm-none-eabi/4.8.3/../../../../arm-none-eabi/lib/armv7-m/libc.a(lib_a-fini.o)
_fstat                                            /home/vladimir/Documentos/SOFTWARE/arduino/BluePill/primeros_ejemplos/Blink/build/core/wirish/syscalls.c.o
_global_impure_ptr                                /home/vladimir/.arduino15/packages/arduino/tools/arm-none-eabi-gcc/4.8.3-2014q1/bin/../lib/gcc/arm-none-eabi/4.8.3/../../../../arm-none-eabi/lib/armv7-m/libc.a(lib_a-impure.o)
                                                  /home/vladimir/.arduino15/packages/arduino/tools/arm-none-eabi-gcc/4.8.3-2014q1/bin/../lib/gcc/arm-none-eabi/4.8.3/../../../../arm-none-eabi/lib/armv7-m/libc.a(lib_a-__atexit.o)
                                                  /home/vladimir/.arduino15/packages/arduino/tools/arm-none-eabi-gcc/4.8.3-2014q1/bin/../lib/gcc/arm-none-eabi/4.8.3/../../../../arm-none-eabi/lib/armv7-m/libc.a(lib_a-__call_atexit.o)
                                                  /home/vladimir/.arduino15/packages/arduino/tools/arm-none-eabi-gcc/4.8.3-2014q1/bin/../lib/gcc/arm-none-eabi/4.8.3/../../../../arm-none-eabi/lib/armv7-m/libc.a(lib_a-exit.o)
_i2c_irq_error_handler                            /home/vladimir/Documentos/SOFTWARE/arduino/BluePill/primeros_ejemplos/Blink/build/core/core.a(i2c.c.o)
                                                  /home/vladimir/Documentos/SOFTWARE/arduino/BluePill/primeros_ejemplos/Blink/build/core/core.a(i2c_f1.c.o)
_i2c_irq_handler                                  /home/vladimir/Documentos/SOFTWARE/arduino/BluePill/primeros_ejemplos/Blink/build/core/core.a(i2c.c.o)
                                                  /home/vladimir/Documentos/SOFTWARE/arduino/BluePill/primeros_ejemplos/Blink/build/core/core.a(i2c_f1.c.o)
_i2c_irq_priority_fixup                           /home/vladimir/Documentos/SOFTWARE/arduino/BluePill/primeros_ejemplos/Blink/build/core/core.a(i2c_f1.c.o)
                                                  /home/vladimir/Documentos/SOFTWARE/arduino/BluePill/primeros_ejemplos/Blink/build/core/core.a(i2c.c.o)
_impure_ptr                                       /home/vladimir/.arduino15/packages/arduino/tools/arm-none-eabi-gcc/4.8.3-2014q1/bin/../lib/gcc/arm-none-eabi/4.8.3/../../../../arm-none-eabi/lib/armv7-m/libc.a(lib_a-impure.o)
                                                  /home/vladimir/.arduino15/packages/arduino/tools/arm-none-eabi-gcc/4.8.3-2014q1/bin/../lib/gcc/arm-none-eabi/4.8.3/../../../../arm-none-eabi/lib/armv7-m/libc.a(lib_a-errno.o)
_init                                             /home/vladimir/.arduino15/packages/arduino/tools/arm-none-eabi-gcc/4.8.3-2014q1/bin/../lib/gcc/arm-none-eabi/4.8.3/armv7-m/crti.o
                                                  /home/vladimir/.arduino15/packages/arduino/tools/arm-none-eabi-gcc/4.8.3-2014q1/bin/../lib/gcc/arm-none-eabi/4.8.3/../../../../arm-none-eabi/lib/armv7-m/libc.a(lib_a-init.o)
_isatty                                           /home/vladimir/Documentos/SOFTWARE/arduino/BluePill/primeros_ejemplos/Blink/build/core/wirish/syscalls.c.o
_lm_heap_end                                      /home/vladimir/Documentos/SOFTWARE/arduino/BluePill/primeros_ejemplos/Blink/build/core/wirish/syscalls.c.o
_lm_heap_start                                    /home/vladimir/Documentos/SOFTWARE/arduino/BluePill/primeros_ejemplos/Blink/build/core/wirish/syscalls.c.o
_lm_rom_img_cfgp                                  /home/vladimir/Documentos/SOFTWARE/arduino/BluePill/primeros_ejemplos/Blink/build/core/wirish/start_c.c.o
_lseek                                            /home/vladimir/Documentos/SOFTWARE/arduino/BluePill/primeros_ejemplos/Blink/build/core/wirish/syscalls.c.o
_mainCRTStartup                                   /home/vladimir/.arduino15/packages/arduino/tools/arm-none-eabi-gcc/4.8.3-2014q1/bin/../lib/gcc/arm-none-eabi/4.8.3/../../../../arm-none-eabi/lib/armv7-m/crt0.o
_open                                             /home/vladimir/Documentos/SOFTWARE/arduino/BluePill/primeros_ejemplos/Blink/build/core/wirish/syscalls.c.o
_read                                             /home/vladimir/Documentos/SOFTWARE/arduino/BluePill/primeros_ejemplos/Blink/build/core/wirish/syscalls.c.o
_sbrk                                             /home/vladimir/Documentos/SOFTWARE/arduino/BluePill/primeros_ejemplos/Blink/build/core/wirish/syscalls.c.o
_start                                            /home/vladimir/.arduino15/packages/arduino/tools/arm-none-eabi-gcc/4.8.3-2014q1/bin/../lib/gcc/arm-none-eabi/4.8.3/../../../../arm-none-eabi/lib/armv7-m/crt0.o
_usart_clock_freq                                 /home/vladimir/Documentos/SOFTWARE/arduino/BluePill/primeros_ejemplos/Blink/build/core/core.a(usart_private.c.o)
                                                  /home/vladimir/Documentos/SOFTWARE/arduino/BluePill/primeros_ejemplos/Blink/build/core/core.a(usart_f1.c.o)
_write                                            /home/vladimir/Documentos/SOFTWARE/arduino/BluePill/primeros_ejemplos/Blink/build/core/wirish/syscalls.c.o
abort                                             /home/vladimir/Documentos/SOFTWARE/arduino/BluePill/primeros_ejemplos/Blink/build/core/core.a(util.c.o)
adc1                                              /home/vladimir/Documentos/SOFTWARE/arduino/BluePill/primeros_ejemplos/Blink/build/core/core.a(adc_f1.c.o)
                                                  /home/vladimir/Documentos/SOFTWARE/arduino/BluePill/primeros_ejemplos/Blink/build/core/board.cpp.o
adc2                                              /home/vladimir/Documentos/SOFTWARE/arduino/BluePill/primeros_ejemplos/Blink/build/core/core.a(adc_f1.c.o)
adc_attach_interrupt                              /home/vladimir/Documentos/SOFTWARE/arduino/BluePill/primeros_ejemplos/Blink/build/core/core.a(adc_f1.c.o)
adc_calibrate                                     /home/vladimir/Documentos/SOFTWARE/arduino/BluePill/primeros_ejemplos/Blink/build/core/core.a(adc_f1.c.o)
adc_config_gpio                                   /home/vladimir/Documentos/SOFTWARE/arduino/BluePill/primeros_ejemplos/Blink/build/core/core.a(adc_f1.c.o)
adc_enable_irq                                    /home/vladimir/Documentos/SOFTWARE/arduino/BluePill/primeros_ejemplos/Blink/build/core/core.a(adc_f1.c.o)
adc_enable_single_swstart                         /home/vladimir/Documentos/SOFTWARE/arduino/BluePill/primeros_ejemplos/Blink/build/core/core.a(adc_f1.c.o)
                                                  /home/vladimir/Documentos/SOFTWARE/arduino/BluePill/primeros_ejemplos/Blink/build/core/wirish/boards.cpp.o
adc_foreach                                       /home/vladimir/Documentos/SOFTWARE/arduino/BluePill/primeros_ejemplos/Blink/build/core/core.a(adc_f1.c.o)
                                                  /home/vladimir/Documentos/SOFTWARE/arduino/BluePill/primeros_ejemplos/Blink/build/core/wirish/boards.cpp.o
adc_init                                          /home/vladimir/Documentos/SOFTWARE/arduino/BluePill/primeros_ejemplos/Blink/build/core/core.a(adc.c.o)
                                                  /home/vladimir/Documentos/SOFTWARE/arduino/BluePill/primeros_ejemplos/Blink/build/core/core.a(adc_f1.c.o)
adc_read                                          /home/vladimir/Documentos/SOFTWARE/arduino/BluePill/primeros_ejemplos/Blink/build/core/core.a(adc.c.o)
adc_set_extsel                                    /home/vladimir/Documentos/SOFTWARE/arduino/BluePill/primeros_ejemplos/Blink/build/core/core.a(adc.c.o)
                                                  /home/vladimir/Documentos/SOFTWARE/arduino/BluePill/primeros_ejemplos/Blink/build/core/core.a(adc_f1.c.o)
adc_set_prescaler                                 /home/vladimir/Documentos/SOFTWARE/arduino/BluePill/primeros_ejemplos/Blink/build/core/core.a(adc_f1.c.o)
                                                  /home/vladimir/Documentos/SOFTWARE/arduino/BluePill/primeros_ejemplos/Blink/build/core/wirish/boards.cpp.o
adc_set_sample_rate                               /home/vladimir/Documentos/SOFTWARE/arduino/BluePill/primeros_ejemplos/Blink/build/core/core.a(adc.c.o)
                                                  /home/vladimir/Documentos/SOFTWARE/arduino/BluePill/primeros_ejemplos/Blink/build/core/wirish/boards.cpp.o
afio_init                                         /home/vladimir/Documentos/SOFTWARE/arduino/BluePill/primeros_ejemplos/Blink/build/core/core.a(gpio_f1.c.o)
                                                  /home/vladimir/Documentos/SOFTWARE/arduino/BluePill/primeros_ejemplos/Blink/build/core/wirish/boards_setup.cpp.o
afio_remap                                        /home/vladimir/Documentos/SOFTWARE/arduino/BluePill/primeros_ejemplos/Blink/build/core/core.a(gpio_f1.c.o)
                                                  /home/vladimir/Documentos/SOFTWARE/arduino/BluePill/primeros_ejemplos/Blink/build/core/core.a(i2c.c.o)
                                                  /home/vladimir/Documentos/SOFTWARE/arduino/BluePill/primeros_ejemplos/Blink/build/core/core.a(i2c_f1.c.o)
atexit                                            /home/vladimir/.arduino15/packages/arduino/tools/arm-none-eabi-gcc/4.8.3-2014q1/bin/../lib/gcc/arm-none-eabi/4.8.3/../../../../arm-none-eabi/lib/armv7-m/libc.a(lib_a-atexit.o)
                                                  /home/vladimir/.arduino15/packages/arduino/tools/arm-none-eabi-gcc/4.8.3-2014q1/bin/../lib/gcc/arm-none-eabi/4.8.3/../../../../arm-none-eabi/lib/armv7-m/libc.a(lib_a-__call_atexit.o)
                                                  /home/vladimir/.arduino15/packages/arduino/tools/arm-none-eabi-gcc/4.8.3-2014q1/bin/../lib/gcc/arm-none-eabi/4.8.3/../../../../arm-none-eabi/lib/armv7-m/crt0.o
bkp                                               /home/vladimir/Documentos/SOFTWARE/arduino/BluePill/primeros_ejemplos/Blink/build/core/core.a(bkp_f1.c.o)
bkp_disable_writes                                /home/vladimir/Documentos/SOFTWARE/arduino/BluePill/primeros_ejemplos/Blink/build/core/core.a(bkp_f1.c.o)
                                                  /home/vladimir/Documentos/SOFTWARE/arduino/BluePill/primeros_ejemplos/Blink/build/core/core.a(usb_serial.cpp.o)
bkp_enable_writes                                 /home/vladimir/Documentos/SOFTWARE/arduino/BluePill/primeros_ejemplos/Blink/build/core/core.a(bkp_f1.c.o)
                                                  /home/vladimir/Documentos/SOFTWARE/arduino/BluePill/primeros_ejemplos/Blink/build/core/core.a(usb_serial.cpp.o)
bkp_init                                          /home/vladimir/Documentos/SOFTWARE/arduino/BluePill/primeros_ejemplos/Blink/build/core/core.a(bkp_f1.c.o)
                                                  /home/vladimir/Documentos/SOFTWARE/arduino/BluePill/primeros_ejemplos/Blink/build/core/core.a(usb_serial.cpp.o)
bkp_read                                          /home/vladimir/Documentos/SOFTWARE/arduino/BluePill/primeros_ejemplos/Blink/build/core/core.a(bkp_f1.c.o)
bkp_write                                         /home/vladimir/Documentos/SOFTWARE/arduino/BluePill/primeros_ejemplos/Blink/build/core/core.a(bkp_f1.c.o)
                                                  /home/vladimir/Documentos/SOFTWARE/arduino/BluePill/primeros_ejemplos/Blink/build/core/core.a(usb_serial.cpp.o)
boardADCPins                                      /home/vladimir/Documentos/SOFTWARE/arduino/BluePill/primeros_ejemplos/Blink/build/core/board.cpp.o
boardInit()                                       /home/vladimir/Documentos/SOFTWARE/arduino/BluePill/primeros_ejemplos/Blink/build/core/board.cpp.o
boardPWMPins                                      /home/vladimir/Documentos/SOFTWARE/arduino/BluePill/primeros_ejemplos/Blink/build/core/board.cpp.o
boardUsedPins                                     /home/vladimir/Documentos/SOFTWARE/arduino/BluePill/primeros_ejemplos/Blink/build/core/board.cpp.o
                                                  /home/vladimir/Documentos/SOFTWARE/arduino/BluePill/primeros_ejemplos/Blink/build/core/wirish/boards.cpp.o
boardUsesPin(unsigned char)                       /home/vladimir/Documentos/SOFTWARE/arduino/BluePill/primeros_ejemplos/Blink/build/core/wirish/boards.cpp.o
cgets                                             /home/vladimir/Documentos/SOFTWARE/arduino/BluePill/primeros_ejemplos/Blink/build/core/wirish/syscalls.c.o
delay(unsigned long)                              /home/vladimir/Documentos/SOFTWARE/arduino/BluePill/primeros_ejemplos/Blink/build/core/core.a(wirish_time.cpp.o)
                                                  /home/vladimir/Documentos/SOFTWARE/arduino/BluePill/primeros_ejemplos/Blink/build/sketch/Blink.ino.cpp.o
delayMicroseconds(unsigned long)                  /home/vladimir/Documentos/SOFTWARE/arduino/BluePill/primeros_ejemplos/Blink/build/core/core.a(wirish_time.cpp.o)
digitalRead(unsigned char)                        /home/vladimir/Documentos/SOFTWARE/arduino/BluePill/primeros_ejemplos/Blink/build/core/core.a(wirish_digital.cpp.o)
digitalWrite(unsigned char, unsigned char)        /home/vladimir/Documentos/SOFTWARE/arduino/BluePill/primeros_ejemplos/Blink/build/core/core.a(wirish_digital.cpp.o)
                                                  /home/vladimir/Documentos/SOFTWARE/arduino/BluePill/primeros_ejemplos/Blink/build/sketch/Blink.ino.cpp.o
dma_attach_interrupt                              /home/vladimir/Documentos/SOFTWARE/arduino/BluePill/primeros_ejemplos/Blink/build/core/core.a(dma_f1.c.o)
dma_detach_interrupt                              /home/vladimir/Documentos/SOFTWARE/arduino/BluePill/primeros_ejemplos/Blink/build/core/core.a(dma_f1.c.o)
dma_disable                                       /home/vladimir/Documentos/SOFTWARE/arduino/BluePill/primeros_ejemplos/Blink/build/core/core.a(dma_f1.c.o)
dma_enable                                        /home/vladimir/Documentos/SOFTWARE/arduino/BluePill/primeros_ejemplos/Blink/build/core/core.a(dma_f1.c.o)
dma_get_irq_cause                                 /home/vladimir/Documentos/SOFTWARE/arduino/BluePill/primeros_ejemplos/Blink/build/core/core.a(dma_f1.c.o)
dma_init                                          /home/vladimir/Documentos/SOFTWARE/arduino/BluePill/primeros_ejemplos/Blink/build/core/core.a(dma.c.o)
dma_set_mem_addr                                  /home/vladimir/Documentos/SOFTWARE/arduino/BluePill/primeros_ejemplos/Blink/build/core/core.a(dma_f1.c.o)
dma_set_num_transfers                             /home/vladimir/Documentos/SOFTWARE/arduino/BluePill/primeros_ejemplos/Blink/build/core/core.a(dma_f1.c.o)
dma_set_per_addr                                  /home/vladimir/Documentos/SOFTWARE/arduino/BluePill/primeros_ejemplos/Blink/build/core/core.a(dma_f1.c.o)
dma_set_priority                                  /home/vladimir/Documentos/SOFTWARE/arduino/BluePill/primeros_ejemplos/Blink/build/core/core.a(dma_f1.c.o)
dma_setup_transfer                                /home/vladimir/Documentos/SOFTWARE/arduino/BluePill/primeros_ejemplos/Blink/build/core/core.a(dma_f1.c.o)
dma_tube_cfg                                      /home/vladimir/Documentos/SOFTWARE/arduino/BluePill/primeros_ejemplos/Blink/build/core/core.a(dma_f1.c.o)
exit                                              /home/vladimir/.arduino15/packages/arduino/tools/arm-none-eabi-gcc/4.8.3-2014q1/bin/../lib/gcc/arm-none-eabi/4.8.3/../../../../arm-none-eabi/lib/armv7-m/libc.a(lib_a-exit.o)
                                                  /home/vladimir/Documentos/SOFTWARE/arduino/BluePill/primeros_ejemplos/Blink/build/core/wirish/start_c.c.o
                                                  /home/vladimir/.arduino15/packages/arduino/tools/arm-none-eabi-gcc/4.8.3-2014q1/bin/../lib/gcc/arm-none-eabi/4.8.3/../../../../arm-none-eabi/lib/armv7-m/crt0.o
exti_attach_callback                              /home/vladimir/Documentos/SOFTWARE/arduino/BluePill/primeros_ejemplos/Blink/build/core/core.a(exti.c.o)
exti_attach_interrupt                             /home/vladimir/Documentos/SOFTWARE/arduino/BluePill/primeros_ejemplos/Blink/build/core/core.a(exti.c.o)
exti_detach_interrupt                             /home/vladimir/Documentos/SOFTWARE/arduino/BluePill/primeros_ejemplos/Blink/build/core/core.a(exti.c.o)
exti_do_select                                    /home/vladimir/Documentos/SOFTWARE/arduino/BluePill/primeros_ejemplos/Blink/build/core/core.a(exti.c.o)
                                                  /home/vladimir/Documentos/SOFTWARE/arduino/BluePill/primeros_ejemplos/Blink/build/core/core.a(exti_f1.c.o)
exti_select                                       /home/vladimir/Documentos/SOFTWARE/arduino/BluePill/primeros_ejemplos/Blink/build/core/core.a(exti_f1.c.o)
                                                  /home/vladimir/Documentos/SOFTWARE/arduino/BluePill/primeros_ejemplos/Blink/build/core/core.a(exti.c.o)
fgets                                             /home/vladimir/Documentos/SOFTWARE/arduino/BluePill/primeros_ejemplos/Blink/build/core/wirish/syscalls.c.o
flash_set_latency                                 /home/vladimir/Documentos/SOFTWARE/arduino/BluePill/primeros_ejemplos/Blink/build/core/core.a(flash.c.o)
                                                  /home/vladimir/Documentos/SOFTWARE/arduino/BluePill/primeros_ejemplos/Blink/build/core/wirish/boards.cpp.o
free                                              /home/vladimir/.arduino15/packages/arduino/tools/arm-none-eabi-gcc/4.8.3-2014q1/bin/../lib/gcc/arm-none-eabi/4.8.3/../../../../arm-none-eabi/lib/armv7-m/libc.a(lib_a-__call_atexit.o)
get_direction                                     /home/vladimir/Documentos/SOFTWARE/arduino/BluePill/primeros_ejemplos/Blink/build/core/core.a(timer.c.o)
getch                                             /home/vladimir/Documentos/SOFTWARE/arduino/BluePill/primeros_ejemplos/Blink/build/core/wirish/syscalls.c.o
gpio_get_mode                                     /home/vladimir/Documentos/SOFTWARE/arduino/BluePill/primeros_ejemplos/Blink/build/core/core.a(gpio_f1.c.o)
gpio_init                                         /home/vladimir/Documentos/SOFTWARE/arduino/BluePill/primeros_ejemplos/Blink/build/core/core.a(gpio.c.o)
                                                  /home/vladimir/Documentos/SOFTWARE/arduino/BluePill/primeros_ejemplos/Blink/build/core/core.a(gpio_f1.c.o)
gpio_init_all                                     /home/vladimir/Documentos/SOFTWARE/arduino/BluePill/primeros_ejemplos/Blink/build/core/core.a(gpio_f1.c.o)
                                                  /home/vladimir/Documentos/SOFTWARE/arduino/BluePill/primeros_ejemplos/Blink/build/core/wirish/boards_setup.cpp.o
gpio_set_mode                                     /home/vladimir/Documentos/SOFTWARE/arduino/BluePill/primeros_ejemplos/Blink/build/core/core.a(gpio_f1.c.o)
                                                  /home/vladimir/Documentos/SOFTWARE/arduino/BluePill/primeros_ejemplos/Blink/build/core/core.a(wirish_digital_f1.cpp.o)
                                                  /home/vladimir/Documentos/SOFTWARE/arduino/BluePill/primeros_ejemplos/Blink/build/core/core.a(usb_cdcacm.c.o)
                                                  /home/vladimir/Documentos/SOFTWARE/arduino/BluePill/primeros_ejemplos/Blink/build/core/core.a(util.c.o)
                                                  /home/vladimir/Documentos/SOFTWARE/arduino/BluePill/primeros_ejemplos/Blink/build/core/core.a(usart_f1.c.o)
                                                  /home/vladimir/Documentos/SOFTWARE/arduino/BluePill/primeros_ejemplos/Blink/build/core/core.a(i2c_f1.c.o)
                                                  /home/vladimir/Documentos/SOFTWARE/arduino/BluePill/primeros_ejemplos/Blink/build/core/core.a(adc_f1.c.o)
                                                  /home/vladimir/Documentos/SOFTWARE/arduino/BluePill/primeros_ejemplos/Blink/build/core/wirish/boards_setup.cpp.o
gpioa                                             /home/vladimir/Documentos/SOFTWARE/arduino/BluePill/primeros_ejemplos/Blink/build/core/core.a(gpio_f1.c.o)
                                                  /home/vladimir/Documentos/SOFTWARE/arduino/BluePill/primeros_ejemplos/Blink/build/core/board.cpp.o
gpiob                                             /home/vladimir/Documentos/SOFTWARE/arduino/BluePill/primeros_ejemplos/Blink/build/core/core.a(gpio_f1.c.o)
                                                  /home/vladimir/Documentos/SOFTWARE/arduino/BluePill/primeros_ejemplos/Blink/build/core/core.a(i2c_f1.c.o)
                                                  /home/vladimir/Documentos/SOFTWARE/arduino/BluePill/primeros_ejemplos/Blink/build/core/board.cpp.o
gpioc                                             /home/vladimir/Documentos/SOFTWARE/arduino/BluePill/primeros_ejemplos/Blink/build/core/core.a(gpio_f1.c.o)
                                                  /home/vladimir/Documentos/SOFTWARE/arduino/BluePill/primeros_ejemplos/Blink/build/core/board.cpp.o
gpiod                                             /home/vladimir/Documentos/SOFTWARE/arduino/BluePill/primeros_ejemplos/Blink/build/core/core.a(gpio_f1.c.o)
hardware_init_hook                                /home/vladimir/.arduino15/packages/arduino/tools/arm-none-eabi-gcc/4.8.3-2014q1/bin/../lib/gcc/arm-none-eabi/4.8.3/../../../../arm-none-eabi/lib/armv7-m/crt0.o
i2c_bus_reset                                     /home/vladimir/Documentos/SOFTWARE/arduino/BluePill/primeros_ejemplos/Blink/build/core/core.a(i2c.c.o)
i2c_config_gpios                                  /home/vladimir/Documentos/SOFTWARE/arduino/BluePill/primeros_ejemplos/Blink/build/core/core.a(i2c_f1.c.o)
                                                  /home/vladimir/Documentos/SOFTWARE/arduino/BluePill/primeros_ejemplos/Blink/build/core/core.a(i2c.c.o)
i2c_init                                          /home/vladimir/Documentos/SOFTWARE/arduino/BluePill/primeros_ejemplos/Blink/build/core/core.a(i2c.c.o)
i2c_master_enable                                 /home/vladimir/Documentos/SOFTWARE/arduino/BluePill/primeros_ejemplos/Blink/build/core/core.a(i2c.c.o)
i2c_master_release_bus                            /home/vladimir/Documentos/SOFTWARE/arduino/BluePill/primeros_ejemplos/Blink/build/core/core.a(i2c_f1.c.o)
                                                  /home/vladimir/Documentos/SOFTWARE/arduino/BluePill/primeros_ejemplos/Blink/build/core/core.a(i2c.c.o)
i2c_master_xfer                                   /home/vladimir/Documentos/SOFTWARE/arduino/BluePill/primeros_ejemplos/Blink/build/core/core.a(i2c.c.o)
init()                                            /home/vladimir/Documentos/SOFTWARE/arduino/BluePill/primeros_ejemplos/Blink/build/core/wirish/boards.cpp.o
                                                  /home/vladimir/Documentos/SOFTWARE/arduino/BluePill/primeros_ejemplos/Blink/build/core/core.a(main.cpp.o)
input_capture_mode                                /home/vladimir/Documentos/SOFTWARE/arduino/BluePill/primeros_ejemplos/Blink/build/core/core.a(timer.c.o)
isatty                                            /home/vladimir/Documentos/SOFTWARE/arduino/BluePill/primeros_ejemplos/Blink/build/core/wirish/syscalls.c.o
loop()                                            /home/vladimir/Documentos/SOFTWARE/arduino/BluePill/primeros_ejemplos/Blink/build/sketch/Blink.ino.cpp.o
                                                  /home/vladimir/Documentos/SOFTWARE/arduino/BluePill/primeros_ejemplos/Blink/build/core/core.a(main.cpp.o)
main                                              /home/vladimir/Documentos/SOFTWARE/arduino/BluePill/primeros_ejemplos/Blink/build/core/core.a(main.cpp.o)
                                                  /home/vladimir/Documentos/SOFTWARE/arduino/BluePill/primeros_ejemplos/Blink/build/core/wirish/start_c.c.o
                                                  /home/vladimir/.arduino15/packages/arduino/tools/arm-none-eabi-gcc/4.8.3-2014q1/bin/../lib/gcc/arm-none-eabi/4.8.3/../../../../arm-none-eabi/lib/armv7-m/crt0.o
malloc                                            /home/vladimir/.arduino15/packages/arduino/tools/arm-none-eabi-gcc/4.8.3-2014q1/bin/../lib/gcc/arm-none-eabi/4.8.3/../../../../arm-none-eabi/lib/armv7-m/libc.a(lib_a-__atexit.o)
memset                                            /home/vladimir/.arduino15/packages/arduino/tools/arm-none-eabi-gcc/4.8.3-2014q1/bin/../lib/gcc/arm-none-eabi/4.8.3/../../../../arm-none-eabi/lib/armv7-m/libc.a(lib_a-memset.o)
                                                  /home/vladimir/.arduino15/packages/arduino/tools/arm-none-eabi-gcc/4.8.3-2014q1/bin/../lib/gcc/arm-none-eabi/4.8.3/../../../../arm-none-eabi/lib/armv7-m/crt0.o
nvic_init                                         /home/vladimir/Documentos/SOFTWARE/arduino/BluePill/primeros_ejemplos/Blink/build/core/core.a(nvic.c.o)
                                                  /home/vladimir/Documentos/SOFTWARE/arduino/BluePill/primeros_ejemplos/Blink/build/core/wirish/boards.cpp.o
nvic_irq_set_priority                             /home/vladimir/Documentos/SOFTWARE/arduino/BluePill/primeros_ejemplos/Blink/build/core/core.a(nvic.c.o)
                                                  /home/vladimir/Documentos/SOFTWARE/arduino/BluePill/primeros_ejemplos/Blink/build/core/core.a(i2c_f1.c.o)
nvic_set_vector_table                             /home/vladimir/Documentos/SOFTWARE/arduino/BluePill/primeros_ejemplos/Blink/build/core/core.a(nvic.c.o)
nvic_sys_reset                                    /home/vladimir/Documentos/SOFTWARE/arduino/BluePill/primeros_ejemplos/Blink/build/core/core.a(nvic.c.o)
                                                  /home/vladimir/Documentos/SOFTWARE/arduino/BluePill/primeros_ejemplos/Blink/build/core/core.a(usb_serial.cpp.o)
pInformation                                      /home/vladimir/Documentos/SOFTWARE/arduino/BluePill/primeros_ejemplos/Blink/build/core/core.a(usb_init.c.o)
                                                  /home/vladimir/Documentos/SOFTWARE/arduino/BluePill/primeros_ejemplos/Blink/build/core/core.a(usb_core.c.o)
                                                  /home/vladimir/Documentos/SOFTWARE/arduino/BluePill/primeros_ejemplos/Blink/build/core/core.a(usb_cdcacm.c.o)
                                                  /home/vladimir/Documentos/SOFTWARE/arduino/BluePill/primeros_ejemplos/Blink/build/core/core.a(usb.c.o)
pProperty                                         /home/vladimir/Documentos/SOFTWARE/arduino/BluePill/primeros_ejemplos/Blink/build/core/core.a(usb_init.c.o)
                                                  /home/vladimir/Documentos/SOFTWARE/arduino/BluePill/primeros_ejemplos/Blink/build/core/core.a(usb_core.c.o)
                                                  /home/vladimir/Documentos/SOFTWARE/arduino/BluePill/primeros_ejemplos/Blink/build/core/core.a(usb_cdcacm.c.o)
                                                  /home/vladimir/Documentos/SOFTWARE/arduino/BluePill/primeros_ejemplos/Blink/build/core/core.a(usb.c.o)
pUser_Standard_Requests                           /home/vladimir/Documentos/SOFTWARE/arduino/BluePill/primeros_ejemplos/Blink/build/core/core.a(usb_init.c.o)
                                                  /home/vladimir/Documentos/SOFTWARE/arduino/BluePill/primeros_ejemplos/Blink/build/core/core.a(usb_core.c.o)
                                                  /home/vladimir/Documentos/SOFTWARE/arduino/BluePill/primeros_ejemplos/Blink/build/core/core.a(usb.c.o)
pinMode(unsigned char, WiringPinMode)             /home/vladimir/Documentos/SOFTWARE/arduino/BluePill/primeros_ejemplos/Blink/build/core/core.a(wirish_digital_f1.cpp.o)
                                                  /home/vladimir/Documentos/SOFTWARE/arduino/BluePill/primeros_ejemplos/Blink/build/sketch/Blink.ino.cpp.o
premain()                                         /home/vladimir/Documentos/SOFTWARE/arduino/BluePill/primeros_ejemplos/Blink/build/core/core.a(main.cpp.o)
putch                                             /home/vladimir/Documentos/SOFTWARE/arduino/BluePill/primeros_ejemplos/Blink/build/core/wirish/syscalls.c.o
rcc_clk_disable                                   /home/vladimir/Documentos/SOFTWARE/arduino/BluePill/primeros_ejemplos/Blink/build/core/core.a(rcc_f1.c.o)
                                                  /home/vladimir/Documentos/SOFTWARE/arduino/BluePill/primeros_ejemplos/Blink/build/core/wirish/boards_setup.cpp.o
rcc_clk_enable                                    /home/vladimir/Documentos/SOFTWARE/arduino/BluePill/primeros_ejemplos/Blink/build/core/core.a(rcc_f1.c.o)
                                                  /home/vladimir/Documentos/SOFTWARE/arduino/BluePill/primeros_ejemplos/Blink/build/core/core.a(usart.c.o)
                                                  /home/vladimir/Documentos/SOFTWARE/arduino/BluePill/primeros_ejemplos/Blink/build/core/core.a(i2c.c.o)
                                                  /home/vladimir/Documentos/SOFTWARE/arduino/BluePill/primeros_ejemplos/Blink/build/core/core.a(gpio.c.o)
                                                  /home/vladimir/Documentos/SOFTWARE/arduino/BluePill/primeros_ejemplos/Blink/build/core/core.a(dma.c.o)
                                                  /home/vladimir/Documentos/SOFTWARE/arduino/BluePill/primeros_ejemplos/Blink/build/core/core.a(bkp_f1.c.o)
                                                  /home/vladimir/Documentos/SOFTWARE/arduino/BluePill/primeros_ejemplos/Blink/build/core/core.a(usb.c.o)
                                                  /home/vladimir/Documentos/SOFTWARE/arduino/BluePill/primeros_ejemplos/Blink/build/core/core.a(timer.c.o)
                                                  /home/vladimir/Documentos/SOFTWARE/arduino/BluePill/primeros_ejemplos/Blink/build/core/core.a(gpio_f1.c.o)
                                                  /home/vladimir/Documentos/SOFTWARE/arduino/BluePill/primeros_ejemplos/Blink/build/core/core.a(adc.c.o)
rcc_clk_init                                      /home/vladimir/Documentos/SOFTWARE/arduino/BluePill/primeros_ejemplos/Blink/build/core/core.a(rcc_f1.c.o)
rcc_configure_pll                                 /home/vladimir/Documentos/SOFTWARE/arduino/BluePill/primeros_ejemplos/Blink/build/core/core.a(rcc_f1.c.o)
                                                  /home/vladimir/Documentos/SOFTWARE/arduino/BluePill/primeros_ejemplos/Blink/build/core/wirish/boards.cpp.o
rcc_dev_clk                                       /home/vladimir/Documentos/SOFTWARE/arduino/BluePill/primeros_ejemplos/Blink/build/core/core.a(rcc.c.o)
                                                  /home/vladimir/Documentos/SOFTWARE/arduino/BluePill/primeros_ejemplos/Blink/build/core/core.a(usart_private.c.o)
                                                  /home/vladimir/Documentos/SOFTWARE/arduino/BluePill/primeros_ejemplos/Blink/build/core/core.a(rcc_f1.c.o)
rcc_dev_table                                     /home/vladimir/Documentos/SOFTWARE/arduino/BluePill/primeros_ejemplos/Blink/build/core/core.a(rcc_f1.c.o)
                                                  /home/vladimir/Documentos/SOFTWARE/arduino/BluePill/primeros_ejemplos/Blink/build/core/core.a(rcc.c.o)
rcc_is_clk_on                                     /home/vladimir/Documentos/SOFTWARE/arduino/BluePill/primeros_ejemplos/Blink/build/core/core.a(rcc.c.o)
rcc_is_clk_ready                                  /home/vladimir/Documentos/SOFTWARE/arduino/BluePill/primeros_ejemplos/Blink/build/core/core.a(rcc.c.o)
                                                  /home/vladimir/Documentos/SOFTWARE/arduino/BluePill/primeros_ejemplos/Blink/build/core/core.a(rcc_f1.c.o)
                                                  /home/vladimir/Documentos/SOFTWARE/arduino/BluePill/primeros_ejemplos/Blink/build/core/wirish/boards.cpp.o
rcc_reset_dev                                     /home/vladimir/Documentos/SOFTWARE/arduino/BluePill/primeros_ejemplos/Blink/build/core/core.a(rcc_f1.c.o)
                                                  /home/vladimir/Documentos/SOFTWARE/arduino/BluePill/primeros_ejemplos/Blink/build/core/core.a(i2c.c.o)
                                                  /home/vladimir/Documentos/SOFTWARE/arduino/BluePill/primeros_ejemplos/Blink/build/core/core.a(gpio.c.o)
                                                  /home/vladimir/Documentos/SOFTWARE/arduino/BluePill/primeros_ejemplos/Blink/build/core/core.a(bkp_f1.c.o)
                                                  /home/vladimir/Documentos/SOFTWARE/arduino/BluePill/primeros_ejemplos/Blink/build/core/core.a(timer.c.o)
                                                  /home/vladimir/Documentos/SOFTWARE/arduino/BluePill/primeros_ejemplos/Blink/build/core/core.a(gpio_f1.c.o)
                                                  /home/vladimir/Documentos/SOFTWARE/arduino/BluePill/primeros_ejemplos/Blink/build/core/core.a(adc.c.o)
rcc_set_prescaler                                 /home/vladimir/Documentos/SOFTWARE/arduino/BluePill/primeros_ejemplos/Blink/build/core/core.a(rcc_f1.c.o)
                                                  /home/vladimir/Documentos/SOFTWARE/arduino/BluePill/primeros_ejemplos/Blink/build/core/core.a(adc_f1.c.o)
                                                  /home/vladimir/Documentos/SOFTWARE/arduino/BluePill/primeros_ejemplos/Blink/build/core/wirish/boards_setup.cpp.o
rcc_switch_sysclk                                 /home/vladimir/Documentos/SOFTWARE/arduino/BluePill/primeros_ejemplos/Blink/build/core/core.a(rcc.c.o)
                                                  /home/vladimir/Documentos/SOFTWARE/arduino/BluePill/primeros_ejemplos/Blink/build/core/core.a(rcc_f1.c.o)
                                                  /home/vladimir/Documentos/SOFTWARE/arduino/BluePill/primeros_ejemplos/Blink/build/core/wirish/boards.cpp.o
rcc_turn_off_clk                                  /home/vladimir/Documentos/SOFTWARE/arduino/BluePill/primeros_ejemplos/Blink/build/core/core.a(rcc.c.o)
                                                  /home/vladimir/Documentos/SOFTWARE/arduino/BluePill/primeros_ejemplos/Blink/build/core/wirish/boards.cpp.o
rcc_turn_on_clk                                   /home/vladimir/Documentos/SOFTWARE/arduino/BluePill/primeros_ejemplos/Blink/build/core/core.a(rcc.c.o)
                                                  /home/vladimir/Documentos/SOFTWARE/arduino/BluePill/primeros_ejemplos/Blink/build/core/core.a(rcc_f1.c.o)
                                                  /home/vladimir/Documentos/SOFTWARE/arduino/BluePill/primeros_ejemplos/Blink/build/core/wirish/boards.cpp.o
setup()                                           /home/vladimir/Documentos/SOFTWARE/arduino/BluePill/primeros_ejemplos/Blink/build/sketch/Blink.ino.cpp.o
                                                  /home/vladimir/Documentos/SOFTWARE/arduino/BluePill/primeros_ejemplos/Blink/build/core/core.a(main.cpp.o)
software_init_hook                                /home/vladimir/.arduino15/packages/arduino/tools/arm-none-eabi-gcc/4.8.3-2014q1/bin/../lib/gcc/arm-none-eabi/4.8.3/../../../../arm-none-eabi/lib/armv7-m/crt0.o
start_c                                           /home/vladimir/Documentos/SOFTWARE/arduino/BluePill/primeros_ejemplos/Blink/build/core/wirish/start_c.c.o
                                                  /home/vladimir/Documentos/SOFTWARE/arduino/BluePill/primeros_ejemplos/Blink/build/core/wirish/start.S.o
strlen                                            /home/vladimir/.arduino15/packages/arduino/tools/arm-none-eabi-gcc/4.8.3-2014q1/bin/../lib/gcc/arm-none-eabi/4.8.3/../../../../arm-none-eabi/lib/armv7-m/libc.a(lib_a-strlen.o)
                                                  /home/vladimir/Documentos/SOFTWARE/arduino/BluePill/primeros_ejemplos/Blink/build/core/core.a(usb_serial.cpp.o)
                                                  /home/vladimir/Documentos/SOFTWARE/arduino/BluePill/primeros_ejemplos/Blink/build/core/core.a(Print.cpp.o)
systick_attach_callback                           /home/vladimir/Documentos/SOFTWARE/arduino/BluePill/primeros_ejemplos/Blink/build/core/core.a(systick.c.o)
systick_disable                                   /home/vladimir/Documentos/SOFTWARE/arduino/BluePill/primeros_ejemplos/Blink/build/core/core.a(systick.c.o)
systick_enable                                    /home/vladimir/Documentos/SOFTWARE/arduino/BluePill/primeros_ejemplos/Blink/build/core/core.a(systick.c.o)
systick_init                                      /home/vladimir/Documentos/SOFTWARE/arduino/BluePill/primeros_ejemplos/Blink/build/core/core.a(systick.c.o)
                                                  /home/vladimir/Documentos/SOFTWARE/arduino/BluePill/primeros_ejemplos/Blink/build/core/wirish/boards.cpp.o
systick_uptime_millis                             /home/vladimir/Documentos/SOFTWARE/arduino/BluePill/primeros_ejemplos/Blink/build/core/core.a(i2c.c.o)
                                                  /home/vladimir/Documentos/SOFTWARE/arduino/BluePill/primeros_ejemplos/Blink/build/core/core.a(wirish_time.cpp.o)
                                                  /home/vladimir/Documentos/SOFTWARE/arduino/BluePill/primeros_ejemplos/Blink/build/core/core.a(usb_serial.cpp.o)
                                                  /home/vladimir/Documentos/SOFTWARE/arduino/BluePill/primeros_ejemplos/Blink/build/core/core.a(systick.c.o)
throb                                             /home/vladimir/Documentos/SOFTWARE/arduino/BluePill/primeros_ejemplos/Blink/build/core/core.a(util.c.o)
timer1                                            /home/vladimir/Documentos/SOFTWARE/arduino/BluePill/primeros_ejemplos/Blink/build/core/core.a(timer.c.o)
                                                  /home/vladimir/Documentos/SOFTWARE/arduino/BluePill/primeros_ejemplos/Blink/build/core/board.cpp.o
timer2                                            /home/vladimir/Documentos/SOFTWARE/arduino/BluePill/primeros_ejemplos/Blink/build/core/core.a(timer.c.o)
                                                  /home/vladimir/Documentos/SOFTWARE/arduino/BluePill/primeros_ejemplos/Blink/build/core/board.cpp.o
timer3                                            /home/vladimir/Documentos/SOFTWARE/arduino/BluePill/primeros_ejemplos/Blink/build/core/core.a(timer.c.o)
                                                  /home/vladimir/Documentos/SOFTWARE/arduino/BluePill/primeros_ejemplos/Blink/build/core/board.cpp.o
timer4                                            /home/vladimir/Documentos/SOFTWARE/arduino/BluePill/primeros_ejemplos/Blink/build/core/core.a(timer.c.o)
                                                  /home/vladimir/Documentos/SOFTWARE/arduino/BluePill/primeros_ejemplos/Blink/build/core/board.cpp.o
timer_attach_interrupt                            /home/vladimir/Documentos/SOFTWARE/arduino/BluePill/primeros_ejemplos/Blink/build/core/core.a(timer.c.o)
timer_detach_interrupt                            /home/vladimir/Documentos/SOFTWARE/arduino/BluePill/primeros_ejemplos/Blink/build/core/core.a(timer.c.o)
timer_disable                                     /home/vladimir/Documentos/SOFTWARE/arduino/BluePill/primeros_ejemplos/Blink/build/core/core.a(timer.c.o)
timer_foreach                                     /home/vladimir/Documentos/SOFTWARE/arduino/BluePill/primeros_ejemplos/Blink/build/core/core.a(timer.c.o)
                                                  /home/vladimir/Documentos/SOFTWARE/arduino/BluePill/primeros_ejemplos/Blink/build/core/wirish/boards.cpp.o
timer_has_cc_channel                              /home/vladimir/Documentos/SOFTWARE/arduino/BluePill/primeros_ejemplos/Blink/build/core/core.a(timer.c.o)
                                                  /home/vladimir/Documentos/SOFTWARE/arduino/BluePill/primeros_ejemplos/Blink/build/core/wirish/boards.cpp.o
timer_init                                        /home/vladimir/Documentos/SOFTWARE/arduino/BluePill/primeros_ejemplos/Blink/build/core/core.a(timer.c.o)
                                                  /home/vladimir/Documentos/SOFTWARE/arduino/BluePill/primeros_ejemplos/Blink/build/core/wirish/boards.cpp.o
timer_set_mode                                    /home/vladimir/Documentos/SOFTWARE/arduino/BluePill/primeros_ejemplos/Blink/build/core/core.a(timer.c.o)
                                                  /home/vladimir/Documentos/SOFTWARE/arduino/BluePill/primeros_ejemplos/Blink/build/core/core.a(wirish_digital_f1.cpp.o)
                                                  /home/vladimir/Documentos/SOFTWARE/arduino/BluePill/primeros_ejemplos/Blink/build/core/core.a(HardwareSerial.cpp.o)
usart_config_gpios_async                          /home/vladimir/Documentos/SOFTWARE/arduino/BluePill/primeros_ejemplos/Blink/build/core/core.a(usart_f1.c.o)
                                                  /home/vladimir/Documentos/SOFTWARE/arduino/BluePill/primeros_ejemplos/Blink/build/core/core.a(HardwareSerial.cpp.o)
usart_disable                                     /home/vladimir/Documentos/SOFTWARE/arduino/BluePill/primeros_ejemplos/Blink/build/core/core.a(usart.c.o)
                                                  /home/vladimir/Documentos/SOFTWARE/arduino/BluePill/primeros_ejemplos/Blink/build/core/core.a(HardwareSerial.cpp.o)
usart_enable                                      /home/vladimir/Documentos/SOFTWARE/arduino/BluePill/primeros_ejemplos/Blink/build/core/core.a(usart.c.o)
                                                  /home/vladimir/Documentos/SOFTWARE/arduino/BluePill/primeros_ejemplos/Blink/build/core/core.a(HardwareSerial.cpp.o)
usart_foreach                                     /home/vladimir/Documentos/SOFTWARE/arduino/BluePill/primeros_ejemplos/Blink/build/core/core.a(usart_f1.c.o)
usart_init                                        /home/vladimir/Documentos/SOFTWARE/arduino/BluePill/primeros_ejemplos/Blink/build/core/core.a(usart.c.o)
                                                  /home/vladimir/Documentos/SOFTWARE/arduino/BluePill/primeros_ejemplos/Blink/build/core/core.a(HardwareSerial.cpp.o)
usart_putudec                                     /home/vladimir/Documentos/SOFTWARE/arduino/BluePill/primeros_ejemplos/Blink/build/core/core.a(usart.c.o)
                                                  /home/vladimir/Documentos/SOFTWARE/arduino/BluePill/primeros_ejemplos/Blink/build/core/core.a(util.c.o)
usart_rx                                          /home/vladimir/Documentos/SOFTWARE/arduino/BluePill/primeros_ejemplos/Blink/build/core/core.a(usart.c.o)
usart_set_baud_rate                               /home/vladimir/Documentos/SOFTWARE/arduino/BluePill/primeros_ejemplos/Blink/build/core/core.a(usart_f1.c.o)
                                                  /home/vladimir/Documentos/SOFTWARE/arduino/BluePill/primeros_ejemplos/Blink/build/core/core.a(HardwareSerial.cpp.o)
usart_tx                                          /home/vladimir/Documentos/SOFTWARE/arduino/BluePill/primeros_ejemplos/Blink/build/core/core.a(usart.c.o)
                                                  /home/vladimir/Documentos/SOFTWARE/arduino/BluePill/primeros_ejemplos/Blink/build/core/core.a(HardwareSerial.cpp.o)
                                                  /home/vladimir/Documentos/SOFTWARE/arduino/BluePill/primeros_ejemplos/Blink/build/core/core.a(util.c.o)
usb_cdcacm_data_available                         /home/vladimir/Documentos/SOFTWARE/arduino/BluePill/primeros_ejemplos/Blink/build/core/core.a(usb_cdcacm.c.o)
                                                  /home/vladimir/Documentos/SOFTWARE/arduino/BluePill/primeros_ejemplos/Blink/build/core/core.a(usb_serial.cpp.o)
usb_cdcacm_disable                                /home/vladimir/Documentos/SOFTWARE/arduino/BluePill/primeros_ejemplos/Blink/build/core/core.a(usb_cdcacm.c.o)
                                                  /home/vladimir/Documentos/SOFTWARE/arduino/BluePill/primeros_ejemplos/Blink/build/core/core.a(usb_serial.cpp.o)
usb_cdcacm_enable                                 /home/vladimir/Documentos/SOFTWARE/arduino/BluePill/primeros_ejemplos/Blink/build/core/core.a(usb_cdcacm.c.o)
                                                  /home/vladimir/Documentos/SOFTWARE/arduino/BluePill/primeros_ejemplos/Blink/build/core/core.a(usb_serial.cpp.o)
usb_cdcacm_get_baud                               /home/vladimir/Documentos/SOFTWARE/arduino/BluePill/primeros_ejemplos/Blink/build/core/core.a(usb_cdcacm.c.o)
usb_cdcacm_get_dtr                                /home/vladimir/Documentos/SOFTWARE/arduino/BluePill/primeros_ejemplos/Blink/build/core/core.a(usb_cdcacm.c.o)
                                                  /home/vladimir/Documentos/SOFTWARE/arduino/BluePill/primeros_ejemplos/Blink/build/core/core.a(usb_serial.cpp.o)
usb_cdcacm_get_line_coding                        /home/vladimir/Documentos/SOFTWARE/arduino/BluePill/primeros_ejemplos/Blink/build/core/core.a(usb_cdcacm.c.o)
usb_cdcacm_get_n_data_bits                        /home/vladimir/Documentos/SOFTWARE/arduino/BluePill/primeros_ejemplos/Blink/build/core/core.a(usb_cdcacm.c.o)
usb_cdcacm_get_parity                             /home/vladimir/Documentos/SOFTWARE/arduino/BluePill/primeros_ejemplos/Blink/build/core/core.a(usb_cdcacm.c.o)
usb_cdcacm_get_pending                            /home/vladimir/Documentos/SOFTWARE/arduino/BluePill/primeros_ejemplos/Blink/build/core/core.a(usb_cdcacm.c.o)
                                                  /home/vladimir/Documentos/SOFTWARE/arduino/BluePill/primeros_ejemplos/Blink/build/core/core.a(usb_serial.cpp.o)
usb_cdcacm_get_rts                                /home/vladimir/Documentos/SOFTWARE/arduino/BluePill/primeros_ejemplos/Blink/build/core/core.a(usb_cdcacm.c.o)
                                                  /home/vladimir/Documentos/SOFTWARE/arduino/BluePill/primeros_ejemplos/Blink/build/core/core.a(usb_serial.cpp.o)
usb_cdcacm_get_stop_bits                          /home/vladimir/Documentos/SOFTWARE/arduino/BluePill/primeros_ejemplos/Blink/build/core/core.a(usb_cdcacm.c.o)
usb_cdcacm_is_transmitting                        /home/vladimir/Documentos/SOFTWARE/arduino/BluePill/primeros_ejemplos/Blink/build/core/core.a(usb_cdcacm.c.o)
usb_cdcacm_peek                                   /home/vladimir/Documentos/SOFTWARE/arduino/BluePill/primeros_ejemplos/Blink/build/core/core.a(usb_cdcacm.c.o)
                                                  /home/vladimir/Documentos/SOFTWARE/arduino/BluePill/primeros_ejemplos/Blink/build/core/core.a(usb_serial.cpp.o)
usb_cdcacm_peek_char                              /home/vladimir/Documentos/SOFTWARE/arduino/BluePill/primeros_ejemplos/Blink/build/core/core.a(usb_cdcacm.c.o)
usb_cdcacm_peek_ex                                /home/vladimir/Documentos/SOFTWARE/arduino/BluePill/primeros_ejemplos/Blink/build/core/core.a(usb_cdcacm.c.o)
                                                  /home/vladimir/Documentos/SOFTWARE/arduino/BluePill/primeros_ejemplos/Blink/build/core/core.a(usb_serial.cpp.o)
usb_cdcacm_putc                                   /home/vladimir/Documentos/SOFTWARE/arduino/BluePill/primeros_ejemplos/Blink/build/core/core.a(usb_cdcacm.c.o)
usb_cdcacm_rx                                     /home/vladimir/Documentos/SOFTWARE/arduino/BluePill/primeros_ejemplos/Blink/build/core/core.a(usb_cdcacm.c.o)
                                                  /home/vladimir/Documentos/SOFTWARE/arduino/BluePill/primeros_ejemplos/Blink/build/core/core.a(usb_serial.cpp.o)
usb_cdcacm_set_hooks                              /home/vladimir/Documentos/SOFTWARE/arduino/BluePill/primeros_ejemplos/Blink/build/core/core.a(usb_cdcacm.c.o)
                                                  /home/vladimir/Documentos/SOFTWARE/arduino/BluePill/primeros_ejemplos/Blink/build/core/core.a(usb_serial.cpp.o)
usb_cdcacm_tx                                     /home/vladimir/Documentos/SOFTWARE/arduino/BluePill/primeros_ejemplos/Blink/build/core/core.a(usb_cdcacm.c.o)
                                                  /home/vladimir/Documentos/SOFTWARE/arduino/BluePill/primeros_ejemplos/Blink/build/core/core.a(usb_serial.cpp.o)
usb_cdcacm_tx_available                           /home/vladimir/Documentos/SOFTWARE/arduino/BluePill/primeros_ejemplos/Blink/build/core/core.a(usb_cdcacm.c.o)
                                                  /home/vladimir/Documentos/SOFTWARE/arduino/BluePill/primeros_ejemplos/Blink/build/core/core.a(usb_serial.cpp.o)
usb_init_usblib                                   /home/vladimir/Documentos/SOFTWARE/arduino/BluePill/primeros_ejemplos/Blink/build/core/core.a(usb.c.o)
                                                  /home/vladimir/Documentos/SOFTWARE/arduino/BluePill/primeros_ejemplos/Blink/build/core/core.a(usb_cdcacm.c.o)
usb_power_off                                     /home/vladimir/Documentos/SOFTWARE/arduino/BluePill/primeros_ejemplos/Blink/build/core/core.a(usb.c.o)
                                                  /home/vladimir/Documentos/SOFTWARE/arduino/BluePill/primeros_ejemplos/Blink/build/core/core.a(usb_cdcacm.c.o)
usb_set_ep_rx_count                               /home/vladimir/Documentos/SOFTWARE/arduino/BluePill/primeros_ejemplos/Blink/build/core/core.a(usb_reg_map.c.o)
                                                  /home/vladimir/Documentos/SOFTWARE/arduino/BluePill/primeros_ejemplos/Blink/build/core/core.a(usb_cdcacm.c.o)
vtable for HardwareSerial                         /home/vladimir/Documentos/SOFTWARE/arduino/BluePill/primeros_ejemplos/Blink/build/core/core.a(HardwareSerial.cpp.o)
vtable for Print                                  /home/vladimir/Documentos/SOFTWARE/arduino/BluePill/primeros_ejemplos/Blink/build/core/core.a(Print.cpp.o)
vtable for Stream                                 /home/vladimir/Documentos/SOFTWARE/arduino/BluePill/primeros_ejemplos/Blink/build/core/core.a(HardwareSerial.cpp.o)
                                                  /home/vladimir/Documentos/SOFTWARE/arduino/BluePill/primeros_ejemplos/Blink/build/core/core.a(usb_serial.cpp.o)
vtable for USBSerial                              /home/vladimir/Documentos/SOFTWARE/arduino/BluePill/primeros_ejemplos/Blink/build/core/core.a(usb_serial.cpp.o)
wInterrupt_Mask                                   /home/vladimir/Documentos/SOFTWARE/arduino/BluePill/primeros_ejemplos/Blink/build/core/core.a(usb_init.c.o)
wirish::priv::board_reset_pll()                   /home/vladimir/Documentos/SOFTWARE/arduino/BluePill/primeros_ejemplos/Blink/build/core/wirish/boards_setup.cpp.o
                                                  /home/vladimir/Documentos/SOFTWARE/arduino/BluePill/primeros_ejemplos/Blink/build/core/wirish/boards.cpp.o
wirish::priv::board_setup_clock_prescalers()      /home/vladimir/Documentos/SOFTWARE/arduino/BluePill/primeros_ejemplos/Blink/build/core/wirish/boards_setup.cpp.o
                                                  /home/vladimir/Documentos/SOFTWARE/arduino/BluePill/primeros_ejemplos/Blink/build/core/wirish/boards.cpp.o
wirish::priv::board_setup_gpio()                  /home/vladimir/Documentos/SOFTWARE/arduino/BluePill/primeros_ejemplos/Blink/build/core/wirish/boards_setup.cpp.o
                                                  /home/vladimir/Documentos/SOFTWARE/arduino/BluePill/primeros_ejemplos/Blink/build/core/wirish/boards.cpp.o
wirish::priv::board_setup_usb()                   /home/vladimir/Documentos/SOFTWARE/arduino/BluePill/primeros_ejemplos/Blink/build/core/wirish/boards_setup.cpp.o
                                                  /home/vladimir/Documentos/SOFTWARE/arduino/BluePill/primeros_ejemplos/Blink/build/core/wirish/boards.cpp.o
wirish::priv::series_init()                       /home/vladimir/Documentos/SOFTWARE/arduino/BluePill/primeros_ejemplos/Blink/build/core/wirish/boards_setup.cpp.o
                                                  /home/vladimir/Documentos/SOFTWARE/arduino/BluePill/primeros_ejemplos/Blink/build/core/wirish/boards.cpp.o
wirish::priv::w_adc_pre                           /home/vladimir/Documentos/SOFTWARE/arduino/BluePill/primeros_ejemplos/Blink/build/core/wirish/boards_setup.cpp.o
                                                  /home/vladimir/Documentos/SOFTWARE/arduino/BluePill/primeros_ejemplos/Blink/build/core/wirish/boards.cpp.o
wirish::priv::w_adc_smp                           /home/vladimir/Documentos/SOFTWARE/arduino/BluePill/primeros_ejemplos/Blink/build/core/wirish/boards_setup.cpp.o
                                                  /home/vladimir/Documentos/SOFTWARE/arduino/BluePill/primeros_ejemplos/Blink/build/core/wirish/boards.cpp.o
wirish::priv::w_board_pll_cfg                     /home/vladimir/Documentos/SOFTWARE/arduino/BluePill/primeros_ejemplos/Blink/build/core/wirish/boards_setup.cpp.o
                                                  /home/vladimir/Documentos/SOFTWARE/arduino/BluePill/primeros_ejemplos/Blink/build/core/wirish/boards.cpp.o
yield                                             /home/vladimir/Documentos/SOFTWARE/arduino/BluePill/primeros_ejemplos/Blink/build/core/core.a(hooks.c.o)
                                                  /home/vladimir/Documentos/SOFTWARE/arduino/BluePill/primeros_ejemplos/Blink/build/core/core.a(wirish_time.cpp.o)
