Archive member included because of file (symbol)

/home/vladimir/Documentos/SOFTWARE/arduino/BluePill/primeros_ejemplos/Thermocouple/build/core/core.a(exc.S.o)
                              (__exc_nmi)
/home/vladimir/Documentos/SOFTWARE/arduino/BluePill/primeros_ejemplos/Thermocouple/build/core/core.a(isrs.S.o)
                              (__stm32reservedexception7)
/home/vladimir/Documentos/SOFTWARE/arduino/BluePill/primeros_ejemplos/Thermocouple/build/core/core.a(vector_table.S.o)
                              (__stm32_vector_table)
/home/vladimir/Documentos/SOFTWARE/arduino/BluePill/primeros_ejemplos/Thermocouple/build/core/core.a(adc.c.o)
                              /home/vladimir/Documentos/SOFTWARE/arduino/BluePill/primeros_ejemplos/Thermocouple/build/core/wirish/boards.cpp.o (adc_set_sample_rate)
/home/vladimir/Documentos/SOFTWARE/arduino/BluePill/primeros_ejemplos/Thermocouple/build/core/core.a(adc_f1.c.o)
                              (__irq_adc)
/home/vladimir/Documentos/SOFTWARE/arduino/BluePill/primeros_ejemplos/Thermocouple/build/core/core.a(dma_f1.c.o)
                              (__irq_dma1_channel1)
/home/vladimir/Documentos/SOFTWARE/arduino/BluePill/primeros_ejemplos/Thermocouple/build/core/core.a(exti.c.o)
                              (__irq_exti0)
/home/vladimir/Documentos/SOFTWARE/arduino/BluePill/primeros_ejemplos/Thermocouple/build/core/core.a(exti_f1.c.o)
                              /home/vladimir/Documentos/SOFTWARE/arduino/BluePill/primeros_ejemplos/Thermocouple/build/core/core.a(exti.c.o) (exti_select)
/home/vladimir/Documentos/SOFTWARE/arduino/BluePill/primeros_ejemplos/Thermocouple/build/core/core.a(flash.c.o)
                              /home/vladimir/Documentos/SOFTWARE/arduino/BluePill/primeros_ejemplos/Thermocouple/build/core/wirish/boards.cpp.o (flash_set_latency)
/home/vladimir/Documentos/SOFTWARE/arduino/BluePill/primeros_ejemplos/Thermocouple/build/core/core.a(gpio_f1.c.o)
                              /home/vladimir/Documentos/SOFTWARE/arduino/BluePill/primeros_ejemplos/Thermocouple/build/core/wirish/boards_setup.cpp.o (gpio_init_all)
/home/vladimir/Documentos/SOFTWARE/arduino/BluePill/primeros_ejemplos/Thermocouple/build/core/core.a(i2c_f1.c.o)
                              (__irq_i2c1_ev)
/home/vladimir/Documentos/SOFTWARE/arduino/BluePill/primeros_ejemplos/Thermocouple/build/core/core.a(nvic.c.o)
                              /home/vladimir/Documentos/SOFTWARE/arduino/BluePill/primeros_ejemplos/Thermocouple/build/core/core.a(i2c_f1.c.o) (nvic_irq_set_priority)
/home/vladimir/Documentos/SOFTWARE/arduino/BluePill/primeros_ejemplos/Thermocouple/build/core/core.a(rcc.c.o)
                              /home/vladimir/Documentos/SOFTWARE/arduino/BluePill/primeros_ejemplos/Thermocouple/build/core/wirish/boards.cpp.o (rcc_switch_sysclk)
/home/vladimir/Documentos/SOFTWARE/arduino/BluePill/primeros_ejemplos/Thermocouple/build/core/core.a(rcc_f1.c.o)
                              /home/vladimir/Documentos/SOFTWARE/arduino/BluePill/primeros_ejemplos/Thermocouple/build/core/wirish/boards.cpp.o (rcc_configure_pll)
/home/vladimir/Documentos/SOFTWARE/arduino/BluePill/primeros_ejemplos/Thermocouple/build/core/core.a(systick.c.o)
                              /home/vladimir/Documentos/SOFTWARE/arduino/BluePill/primeros_ejemplos/Thermocouple/build/core/wirish/boards.cpp.o (systick_init)
/home/vladimir/Documentos/SOFTWARE/arduino/BluePill/primeros_ejemplos/Thermocouple/build/core/core.a(timer.c.o)
                              /home/vladimir/Documentos/SOFTWARE/arduino/BluePill/primeros_ejemplos/Thermocouple/build/core/wirish/boards.cpp.o (timer_foreach)
/home/vladimir/Documentos/SOFTWARE/arduino/BluePill/primeros_ejemplos/Thermocouple/build/core/core.a(usart_f1.c.o)
                              (__irq_usart1)
/home/vladimir/Documentos/SOFTWARE/arduino/BluePill/primeros_ejemplos/Thermocouple/build/core/core.a(usart_private.c.o)
                              /home/vladimir/Documentos/SOFTWARE/arduino/BluePill/primeros_ejemplos/Thermocouple/build/core/core.a(usart_f1.c.o) (_usart_clock_freq)
/home/vladimir/Documentos/SOFTWARE/arduino/BluePill/primeros_ejemplos/Thermocouple/build/core/core.a(util.c.o)
                              /home/vladimir/Documentos/SOFTWARE/arduino/BluePill/primeros_ejemplos/Thermocouple/build/core/core.a(exc.S.o) (__error)
/home/vladimir/Documentos/SOFTWARE/arduino/BluePill/primeros_ejemplos/Thermocouple/build/core/core.a(usb.c.o)
                              (__irq_usb_lp_can_rx0)
/home/vladimir/Documentos/SOFTWARE/arduino/BluePill/primeros_ejemplos/Thermocouple/build/core/core.a(usb_cdcacm.c.o)
                              /home/vladimir/Documentos/SOFTWARE/arduino/BluePill/primeros_ejemplos/Thermocouple/build/core/core.a(usb.c.o) (User_Standard_Requests)
/home/vladimir/Documentos/SOFTWARE/arduino/BluePill/primeros_ejemplos/Thermocouple/build/core/core.a(usb_reg_map.c.o)
                              /home/vladimir/Documentos/SOFTWARE/arduino/BluePill/primeros_ejemplos/Thermocouple/build/core/core.a(usb_cdcacm.c.o) (usb_set_ep_rx_count)
/home/vladimir/Documentos/SOFTWARE/arduino/BluePill/primeros_ejemplos/Thermocouple/build/core/core.a(usb_core.c.o)
                              /home/vladimir/Documentos/SOFTWARE/arduino/BluePill/primeros_ejemplos/Thermocouple/build/core/core.a(usb_cdcacm.c.o) (Standard_GetDescriptorData)
/home/vladimir/Documentos/SOFTWARE/arduino/BluePill/primeros_ejemplos/Thermocouple/build/core/core.a(usb_init.c.o)
                              /home/vladimir/Documentos/SOFTWARE/arduino/BluePill/primeros_ejemplos/Thermocouple/build/core/core.a(usb.c.o) (pInformation)
/home/vladimir/Documentos/SOFTWARE/arduino/BluePill/primeros_ejemplos/Thermocouple/build/core/core.a(usb_mem.c.o)
                              /home/vladimir/Documentos/SOFTWARE/arduino/BluePill/primeros_ejemplos/Thermocouple/build/core/core.a(usb_core.c.o) (UserToPMABufferCopy)
/home/vladimir/Documentos/SOFTWARE/arduino/BluePill/primeros_ejemplos/Thermocouple/build/core/core.a(usb_regs.c.o)
                              /home/vladimir/Documentos/SOFTWARE/arduino/BluePill/primeros_ejemplos/Thermocouple/build/core/core.a(usb_core.c.o) (SetEPTxStatus)
/home/vladimir/Documentos/SOFTWARE/arduino/BluePill/primeros_ejemplos/Thermocouple/build/core/core.a(HardwareSerial.cpp.o)
                              /home/vladimir/Documentos/SOFTWARE/arduino/BluePill/primeros_ejemplos/Thermocouple/build/core/board.cpp.o (HardwareSerial::HardwareSerial(usart_dev*, unsigned char, unsigned char))
/home/vladimir/Documentos/SOFTWARE/arduino/BluePill/primeros_ejemplos/Thermocouple/build/core/core.a(Print.cpp.o)
                              /home/vladimir/Documentos/SOFTWARE/arduino/BluePill/primeros_ejemplos/Thermocouple/build/core/core.a(HardwareSerial.cpp.o) (Print::write(void const*, unsigned long))
/home/vladimir/Documentos/SOFTWARE/arduino/BluePill/primeros_ejemplos/Thermocouple/build/core/core.a(cxxabi-compat.cpp.o)
                              /home/vladimir/Documentos/SOFTWARE/arduino/BluePill/primeros_ejemplos/Thermocouple/build/core/core.a(HardwareSerial.cpp.o) (__cxa_pure_virtual)
/home/vladimir/Documentos/SOFTWARE/arduino/BluePill/primeros_ejemplos/Thermocouple/build/core/core.a(main.cpp.o)
                              (main)
/home/vladimir/Documentos/SOFTWARE/arduino/BluePill/primeros_ejemplos/Thermocouple/build/core/core.a(usb_serial.cpp.o)
                              /home/vladimir/Documentos/SOFTWARE/arduino/BluePill/primeros_ejemplos/Thermocouple/build/core/wirish/boards_setup.cpp.o (USBSerial::begin())
/home/vladimir/Documentos/SOFTWARE/arduino/BluePill/primeros_ejemplos/Thermocouple/build/core/core.a(wirish_digital.cpp.o)
                              /home/vladimir/Documentos/SOFTWARE/arduino/BluePill/primeros_ejemplos/Thermocouple/build/libraries/MAX6675_library-1.0.1/max6675.cpp.o (digitalRead(unsigned char))
/home/vladimir/Documentos/SOFTWARE/arduino/BluePill/primeros_ejemplos/Thermocouple/build/core/core.a(wirish_time.cpp.o)
                              /home/vladimir/Documentos/SOFTWARE/arduino/BluePill/primeros_ejemplos/Thermocouple/build/sketch/Thermocouple.ino.cpp.o (delay(unsigned long))
/home/vladimir/Documentos/SOFTWARE/arduino/BluePill/primeros_ejemplos/Thermocouple/build/core/core.a(wirish_digital_f1.cpp.o)
                              /home/vladimir/Documentos/SOFTWARE/arduino/BluePill/primeros_ejemplos/Thermocouple/build/libraries/MAX6675_library-1.0.1/max6675.cpp.o (pinMode(unsigned char, WiringPinMode))
/home/vladimir/Documentos/SOFTWARE/arduino/BluePill/primeros_ejemplos/Thermocouple/build/core/core.a(hooks.c.o)
                              /home/vladimir/Documentos/SOFTWARE/arduino/BluePill/primeros_ejemplos/Thermocouple/build/core/core.a(wirish_time.cpp.o) (yield)
/home/vladimir/Documentos/SOFTWARE/arduino/BluePill/primeros_ejemplos/Thermocouple/build/core/core.a(bkp_f1.c.o)
                              /home/vladimir/Documentos/SOFTWARE/arduino/BluePill/primeros_ejemplos/Thermocouple/build/core/core.a(usb_serial.cpp.o) (bkp_init)
/home/vladimir/Documentos/SOFTWARE/arduino/BluePill/primeros_ejemplos/Thermocouple/build/core/core.a(dma.c.o)
                              /home/vladimir/Documentos/SOFTWARE/arduino/BluePill/primeros_ejemplos/Thermocouple/build/core/core.a(dma_f1.c.o) (_dma_addr_type)
/home/vladimir/Documentos/SOFTWARE/arduino/BluePill/primeros_ejemplos/Thermocouple/build/core/core.a(gpio.c.o)
                              /home/vladimir/Documentos/SOFTWARE/arduino/BluePill/primeros_ejemplos/Thermocouple/build/core/core.a(gpio_f1.c.o) (gpio_init)
/home/vladimir/Documentos/SOFTWARE/arduino/BluePill/primeros_ejemplos/Thermocouple/build/core/core.a(i2c.c.o)
                              /home/vladimir/Documentos/SOFTWARE/arduino/BluePill/primeros_ejemplos/Thermocouple/build/core/core.a(i2c_f1.c.o) (_i2c_irq_handler)
/home/vladimir/Documentos/SOFTWARE/arduino/BluePill/primeros_ejemplos/Thermocouple/build/core/core.a(usart.c.o)
                              /home/vladimir/Documentos/SOFTWARE/arduino/BluePill/primeros_ejemplos/Thermocouple/build/core/core.a(HardwareSerial.cpp.o) (usart_init)
/home/vladimir/.arduino15/packages/arduino/tools/arm-none-eabi-gcc/4.8.3-2014q1/bin/../lib/gcc/arm-none-eabi/4.8.3/armv7-m/libgcc.a(_arm_addsubdf3.o)
                              /home/vladimir/Documentos/SOFTWARE/arduino/BluePill/primeros_ejemplos/Thermocouple/build/core/core.a(Print.cpp.o) (__aeabi_dsub)
/home/vladimir/.arduino15/packages/arduino/tools/arm-none-eabi-gcc/4.8.3-2014q1/bin/../lib/gcc/arm-none-eabi/4.8.3/armv7-m/libgcc.a(_arm_muldivdf3.o)
                              /home/vladimir/Documentos/SOFTWARE/arduino/BluePill/primeros_ejemplos/Thermocouple/build/libraries/MAX6675_library-1.0.1/max6675.cpp.o (__aeabi_dmul)
/home/vladimir/.arduino15/packages/arduino/tools/arm-none-eabi-gcc/4.8.3-2014q1/bin/../lib/gcc/arm-none-eabi/4.8.3/armv7-m/libgcc.a(_arm_cmpdf2.o)
                              /home/vladimir/Documentos/SOFTWARE/arduino/BluePill/primeros_ejemplos/Thermocouple/build/core/core.a(Print.cpp.o) (__aeabi_dcmplt)
/home/vladimir/.arduino15/packages/arduino/tools/arm-none-eabi-gcc/4.8.3-2014q1/bin/../lib/gcc/arm-none-eabi/4.8.3/armv7-m/libgcc.a(_arm_fixdfsi.o)
                              /home/vladimir/Documentos/SOFTWARE/arduino/BluePill/primeros_ejemplos/Thermocouple/build/core/core.a(Print.cpp.o) (__aeabi_d2iz)
/home/vladimir/.arduino15/packages/arduino/tools/arm-none-eabi-gcc/4.8.3-2014q1/bin/../lib/gcc/arm-none-eabi/4.8.3/armv7-m/libgcc.a(_arm_truncdfsf2.o)
                              /home/vladimir/Documentos/SOFTWARE/arduino/BluePill/primeros_ejemplos/Thermocouple/build/sketch/Thermocouple.ino.cpp.o (__aeabi_d2f)
/home/vladimir/.arduino15/packages/arduino/tools/arm-none-eabi-gcc/4.8.3-2014q1/bin/../lib/gcc/arm-none-eabi/4.8.3/armv7-m/libgcc.a(_arm_muldivsf3.o)
                              /home/vladimir/Documentos/SOFTWARE/arduino/BluePill/primeros_ejemplos/Thermocouple/build/sketch/Thermocouple.ino.cpp.o (__aeabi_fdiv)
/home/vladimir/.arduino15/packages/arduino/tools/arm-none-eabi-gcc/4.8.3-2014q1/bin/../lib/gcc/arm-none-eabi/4.8.3/armv7-m/libgcc.a(_aeabi_uldivmod.o)
                              /home/vladimir/Documentos/SOFTWARE/arduino/BluePill/primeros_ejemplos/Thermocouple/build/core/core.a(Print.cpp.o) (__aeabi_uldivmod)
/home/vladimir/.arduino15/packages/arduino/tools/arm-none-eabi-gcc/4.8.3-2014q1/bin/../lib/gcc/arm-none-eabi/4.8.3/armv7-m/libgcc.a(_fixdfdi.o)
                              /home/vladimir/Documentos/SOFTWARE/arduino/BluePill/primeros_ejemplos/Thermocouple/build/core/core.a(Print.cpp.o) (__aeabi_d2lz)
/home/vladimir/.arduino15/packages/arduino/tools/arm-none-eabi-gcc/4.8.3-2014q1/bin/../lib/gcc/arm-none-eabi/4.8.3/armv7-m/libgcc.a(_fixunsdfdi.o)
                              /home/vladimir/.arduino15/packages/arduino/tools/arm-none-eabi-gcc/4.8.3-2014q1/bin/../lib/gcc/arm-none-eabi/4.8.3/armv7-m/libgcc.a(_fixdfdi.o) (__aeabi_d2ulz)
/home/vladimir/.arduino15/packages/arduino/tools/arm-none-eabi-gcc/4.8.3-2014q1/bin/../lib/gcc/arm-none-eabi/4.8.3/armv7-m/libgcc.a(bpabi.o)
                              /home/vladimir/.arduino15/packages/arduino/tools/arm-none-eabi-gcc/4.8.3-2014q1/bin/../lib/gcc/arm-none-eabi/4.8.3/armv7-m/libgcc.a(_aeabi_uldivmod.o) (__gnu_uldivmod_helper)
/home/vladimir/.arduino15/packages/arduino/tools/arm-none-eabi-gcc/4.8.3-2014q1/bin/../lib/gcc/arm-none-eabi/4.8.3/armv7-m/libgcc.a(_dvmd_tls.o)
                              /home/vladimir/.arduino15/packages/arduino/tools/arm-none-eabi-gcc/4.8.3-2014q1/bin/../lib/gcc/arm-none-eabi/4.8.3/armv7-m/libgcc.a(_aeabi_uldivmod.o) (__aeabi_ldiv0)
/home/vladimir/.arduino15/packages/arduino/tools/arm-none-eabi-gcc/4.8.3-2014q1/bin/../lib/gcc/arm-none-eabi/4.8.3/armv7-m/libgcc.a(_arm_fixunsdfsi.o)
                              /home/vladimir/.arduino15/packages/arduino/tools/arm-none-eabi-gcc/4.8.3-2014q1/bin/../lib/gcc/arm-none-eabi/4.8.3/armv7-m/libgcc.a(_fixunsdfdi.o) (__aeabi_d2uiz)
/home/vladimir/.arduino15/packages/arduino/tools/arm-none-eabi-gcc/4.8.3-2014q1/bin/../lib/gcc/arm-none-eabi/4.8.3/armv7-m/libgcc.a(_divdi3.o)
                              /home/vladimir/.arduino15/packages/arduino/tools/arm-none-eabi-gcc/4.8.3-2014q1/bin/../lib/gcc/arm-none-eabi/4.8.3/armv7-m/libgcc.a(bpabi.o) (__divdi3)
/home/vladimir/.arduino15/packages/arduino/tools/arm-none-eabi-gcc/4.8.3-2014q1/bin/../lib/gcc/arm-none-eabi/4.8.3/armv7-m/libgcc.a(_udivdi3.o)
                              /home/vladimir/.arduino15/packages/arduino/tools/arm-none-eabi-gcc/4.8.3-2014q1/bin/../lib/gcc/arm-none-eabi/4.8.3/armv7-m/libgcc.a(bpabi.o) (__udivdi3)
/home/vladimir/.arduino15/packages/arduino/tools/arm-none-eabi-gcc/4.8.3-2014q1/bin/../lib/gcc/arm-none-eabi/4.8.3/../../../../arm-none-eabi/lib/armv7-m/libc.a(lib_a-errno.o)
                              /home/vladimir/Documentos/SOFTWARE/arduino/BluePill/primeros_ejemplos/Thermocouple/build/core/wirish/syscalls.c.o (__errno)
/home/vladimir/.arduino15/packages/arduino/tools/arm-none-eabi-gcc/4.8.3-2014q1/bin/../lib/gcc/arm-none-eabi/4.8.3/../../../../arm-none-eabi/lib/armv7-m/libc.a(lib_a-exit.o)
                              /home/vladimir/.arduino15/packages/arduino/tools/arm-none-eabi-gcc/4.8.3-2014q1/bin/../lib/gcc/arm-none-eabi/4.8.3/../../../../arm-none-eabi/lib/armv7-m/crt0.o (exit)
/home/vladimir/.arduino15/packages/arduino/tools/arm-none-eabi-gcc/4.8.3-2014q1/bin/../lib/gcc/arm-none-eabi/4.8.3/../../../../arm-none-eabi/lib/armv7-m/libc.a(lib_a-impure.o)
                              /home/vladimir/.arduino15/packages/arduino/tools/arm-none-eabi-gcc/4.8.3-2014q1/bin/../lib/gcc/arm-none-eabi/4.8.3/../../../../arm-none-eabi/lib/armv7-m/libc.a(lib_a-exit.o) (_global_impure_ptr)
/home/vladimir/.arduino15/packages/arduino/tools/arm-none-eabi-gcc/4.8.3-2014q1/bin/../lib/gcc/arm-none-eabi/4.8.3/../../../../arm-none-eabi/lib/armv7-m/libc.a(lib_a-init.o)
                              /home/vladimir/.arduino15/packages/arduino/tools/arm-none-eabi-gcc/4.8.3-2014q1/bin/../lib/gcc/arm-none-eabi/4.8.3/../../../../arm-none-eabi/lib/armv7-m/crt0.o (__libc_init_array)
/home/vladimir/.arduino15/packages/arduino/tools/arm-none-eabi-gcc/4.8.3-2014q1/bin/../lib/gcc/arm-none-eabi/4.8.3/../../../../arm-none-eabi/lib/armv7-m/libc.a(lib_a-memset.o)
                              /home/vladimir/.arduino15/packages/arduino/tools/arm-none-eabi-gcc/4.8.3-2014q1/bin/../lib/gcc/arm-none-eabi/4.8.3/../../../../arm-none-eabi/lib/armv7-m/crt0.o (memset)
/home/vladimir/.arduino15/packages/arduino/tools/arm-none-eabi-gcc/4.8.3-2014q1/bin/../lib/gcc/arm-none-eabi/4.8.3/../../../../arm-none-eabi/lib/armv7-m/libc.a(lib_a-strlen.o)
                              /home/vladimir/Documentos/SOFTWARE/arduino/BluePill/primeros_ejemplos/Thermocouple/build/core/core.a(Print.cpp.o) (strlen)
/home/vladimir/.arduino15/packages/arduino/tools/arm-none-eabi-gcc/4.8.3-2014q1/bin/../lib/gcc/arm-none-eabi/4.8.3/../../../../arm-none-eabi/lib/armv7-m/libc.a(lib_a-__call_atexit.o)
                              /home/vladimir/.arduino15/packages/arduino/tools/arm-none-eabi-gcc/4.8.3-2014q1/bin/../lib/gcc/arm-none-eabi/4.8.3/../../../../arm-none-eabi/lib/armv7-m/libc.a(lib_a-exit.o) (__call_exitprocs)
/home/vladimir/.arduino15/packages/arduino/tools/arm-none-eabi-gcc/4.8.3-2014q1/bin/../lib/gcc/arm-none-eabi/4.8.3/../../../../arm-none-eabi/lib/armv7-m/libc.a(lib_a-atexit.o)
                              /home/vladimir/.arduino15/packages/arduino/tools/arm-none-eabi-gcc/4.8.3-2014q1/bin/../lib/gcc/arm-none-eabi/4.8.3/../../../../arm-none-eabi/lib/armv7-m/libc.a(lib_a-__call_atexit.o) (atexit)
/home/vladimir/.arduino15/packages/arduino/tools/arm-none-eabi-gcc/4.8.3-2014q1/bin/../lib/gcc/arm-none-eabi/4.8.3/../../../../arm-none-eabi/lib/armv7-m/libc.a(lib_a-fini.o)
                              /home/vladimir/.arduino15/packages/arduino/tools/arm-none-eabi-gcc/4.8.3-2014q1/bin/../lib/gcc/arm-none-eabi/4.8.3/../../../../arm-none-eabi/lib/armv7-m/libc.a(lib_a-__call_atexit.o) (__libc_fini_array)
/home/vladimir/.arduino15/packages/arduino/tools/arm-none-eabi-gcc/4.8.3-2014q1/bin/../lib/gcc/arm-none-eabi/4.8.3/../../../../arm-none-eabi/lib/armv7-m/libc.a(lib_a-__atexit.o)
                              /home/vladimir/.arduino15/packages/arduino/tools/arm-none-eabi-gcc/4.8.3-2014q1/bin/../lib/gcc/arm-none-eabi/4.8.3/../../../../arm-none-eabi/lib/armv7-m/libc.a(lib_a-atexit.o) (__register_exitproc)

Allocating common symbols
Common symbol       size              file

SaveRState          0x2               /home/vladimir/Documentos/SOFTWARE/arduino/BluePill/primeros_ejemplos/Thermocouple/build/core/core.a(usb.c.o)
SaveState           0x2               /home/vladimir/Documentos/SOFTWARE/arduino/BluePill/primeros_ejemplos/Thermocouple/build/core/core.a(usb_init.c.o)
pProperty           0x4               /home/vladimir/Documentos/SOFTWARE/arduino/BluePill/primeros_ejemplos/Thermocouple/build/core/core.a(usb_init.c.o)
EPindex             0x1               /home/vladimir/Documentos/SOFTWARE/arduino/BluePill/primeros_ejemplos/Thermocouple/build/core/core.a(usb_init.c.o)
SaveTState          0x2               /home/vladimir/Documentos/SOFTWARE/arduino/BluePill/primeros_ejemplos/Thermocouple/build/core/core.a(usb.c.o)
systick_uptime_millis
                    0x4               /home/vladimir/Documentos/SOFTWARE/arduino/BluePill/primeros_ejemplos/Thermocouple/build/core/core.a(systick.c.o)
Device_Info         0x1c              /home/vladimir/Documentos/SOFTWARE/arduino/BluePill/primeros_ejemplos/Thermocouple/build/core/core.a(usb_init.c.o)
pUser_Standard_Requests
                    0x4               /home/vladimir/Documentos/SOFTWARE/arduino/BluePill/primeros_ejemplos/Thermocouple/build/core/core.a(usb_init.c.o)
StatusInfo          0x2               /home/vladimir/Documentos/SOFTWARE/arduino/BluePill/primeros_ejemplos/Thermocouple/build/core/core.a(usb_core.c.o)
pInformation        0x4               /home/vladimir/Documentos/SOFTWARE/arduino/BluePill/primeros_ejemplos/Thermocouple/build/core/core.a(usb_init.c.o)
ResumeS             0x2               /home/vladimir/Documentos/SOFTWARE/arduino/BluePill/primeros_ejemplos/Thermocouple/build/core/core.a(usb.c.o)
wInterrupt_Mask     0x2               /home/vladimir/Documentos/SOFTWARE/arduino/BluePill/primeros_ejemplos/Thermocouple/build/core/core.a(usb_init.c.o)

Discarded input sections

 .text          0x0000000000000000        0x0 /home/vladimir/.arduino15/packages/arduino/tools/arm-none-eabi-gcc/4.8.3-2014q1/bin/../lib/gcc/arm-none-eabi/4.8.3/armv7-m/crti.o
 .data          0x0000000000000000        0x0 /home/vladimir/.arduino15/packages/arduino/tools/arm-none-eabi-gcc/4.8.3-2014q1/bin/../lib/gcc/arm-none-eabi/4.8.3/armv7-m/crti.o
 .bss           0x0000000000000000        0x0 /home/vladimir/.arduino15/packages/arduino/tools/arm-none-eabi-gcc/4.8.3-2014q1/bin/../lib/gcc/arm-none-eabi/4.8.3/armv7-m/crti.o
 .data          0x0000000000000000        0x4 /home/vladimir/.arduino15/packages/arduino/tools/arm-none-eabi-gcc/4.8.3-2014q1/bin/../lib/gcc/arm-none-eabi/4.8.3/armv7-m/crtbegin.o
 .text          0x0000000000000000       0x74 /home/vladimir/.arduino15/packages/arduino/tools/arm-none-eabi-gcc/4.8.3-2014q1/bin/../lib/gcc/arm-none-eabi/4.8.3/../../../../arm-none-eabi/lib/armv7-m/crt0.o
 .data          0x0000000000000000        0x0 /home/vladimir/.arduino15/packages/arduino/tools/arm-none-eabi-gcc/4.8.3-2014q1/bin/../lib/gcc/arm-none-eabi/4.8.3/../../../../arm-none-eabi/lib/armv7-m/crt0.o
 .bss           0x0000000000000000        0x0 /home/vladimir/.arduino15/packages/arduino/tools/arm-none-eabi-gcc/4.8.3-2014q1/bin/../lib/gcc/arm-none-eabi/4.8.3/../../../../arm-none-eabi/lib/armv7-m/crt0.o
 .ARM.extab     0x0000000000000000        0x0 /home/vladimir/.arduino15/packages/arduino/tools/arm-none-eabi-gcc/4.8.3-2014q1/bin/../lib/gcc/arm-none-eabi/4.8.3/../../../../arm-none-eabi/lib/armv7-m/crt0.o
 .ARM.exidx     0x0000000000000000        0x8 /home/vladimir/.arduino15/packages/arduino/tools/arm-none-eabi-gcc/4.8.3-2014q1/bin/../lib/gcc/arm-none-eabi/4.8.3/../../../../arm-none-eabi/lib/armv7-m/crt0.o
 .text          0x0000000000000000        0x0 /home/vladimir/Documentos/SOFTWARE/arduino/BluePill/primeros_ejemplos/Thermocouple/build/sketch/Thermocouple.ino.cpp.o
 .data          0x0000000000000000        0x0 /home/vladimir/Documentos/SOFTWARE/arduino/BluePill/primeros_ejemplos/Thermocouple/build/sketch/Thermocouple.ino.cpp.o
 .bss           0x0000000000000000        0x0 /home/vladimir/Documentos/SOFTWARE/arduino/BluePill/primeros_ejemplos/Thermocouple/build/sketch/Thermocouple.ino.cpp.o
 .text          0x0000000000000000        0x0 /home/vladimir/Documentos/SOFTWARE/arduino/BluePill/primeros_ejemplos/Thermocouple/build/libraries/MAX6675_library-1.0.1/max6675.cpp.o
 .data          0x0000000000000000        0x0 /home/vladimir/Documentos/SOFTWARE/arduino/BluePill/primeros_ejemplos/Thermocouple/build/libraries/MAX6675_library-1.0.1/max6675.cpp.o
 .bss           0x0000000000000000        0x0 /home/vladimir/Documentos/SOFTWARE/arduino/BluePill/primeros_ejemplos/Thermocouple/build/libraries/MAX6675_library-1.0.1/max6675.cpp.o
 .text._ZN7MAX667514readFahrenheitEv
                0x0000000000000000       0x2c /home/vladimir/Documentos/SOFTWARE/arduino/BluePill/primeros_ejemplos/Thermocouple/build/libraries/MAX6675_library-1.0.1/max6675.cpp.o
 .data          0x0000000000000000        0x0 /home/vladimir/Documentos/SOFTWARE/arduino/BluePill/primeros_ejemplos/Thermocouple/build/core/wirish/start.S.o
 .bss           0x0000000000000000        0x0 /home/vladimir/Documentos/SOFTWARE/arduino/BluePill/primeros_ejemplos/Thermocouple/build/core/wirish/start.S.o
 .ARM.extab     0x0000000000000000        0x0 /home/vladimir/Documentos/SOFTWARE/arduino/BluePill/primeros_ejemplos/Thermocouple/build/core/wirish/start.S.o
 .text          0x0000000000000000        0x0 /home/vladimir/Documentos/SOFTWARE/arduino/BluePill/primeros_ejemplos/Thermocouple/build/core/wirish/start_c.c.o
 .data          0x0000000000000000        0x0 /home/vladimir/Documentos/SOFTWARE/arduino/BluePill/primeros_ejemplos/Thermocouple/build/core/wirish/start_c.c.o
 .bss           0x0000000000000000        0x0 /home/vladimir/Documentos/SOFTWARE/arduino/BluePill/primeros_ejemplos/Thermocouple/build/core/wirish/start_c.c.o
 .text          0x0000000000000000        0x0 /home/vladimir/Documentos/SOFTWARE/arduino/BluePill/primeros_ejemplos/Thermocouple/build/core/wirish/syscalls.c.o
 .data          0x0000000000000000        0x0 /home/vladimir/Documentos/SOFTWARE/arduino/BluePill/primeros_ejemplos/Thermocouple/build/core/wirish/syscalls.c.o
 .bss           0x0000000000000000        0x0 /home/vladimir/Documentos/SOFTWARE/arduino/BluePill/primeros_ejemplos/Thermocouple/build/core/wirish/syscalls.c.o
 .text._sbrk    0x0000000000000000       0x44 /home/vladimir/Documentos/SOFTWARE/arduino/BluePill/primeros_ejemplos/Thermocouple/build/core/wirish/syscalls.c.o
 .text._open    0x0000000000000000        0x8 /home/vladimir/Documentos/SOFTWARE/arduino/BluePill/primeros_ejemplos/Thermocouple/build/core/wirish/syscalls.c.o
 .text._close   0x0000000000000000        0x4 /home/vladimir/Documentos/SOFTWARE/arduino/BluePill/primeros_ejemplos/Thermocouple/build/core/wirish/syscalls.c.o
 .text._fstat   0x0000000000000000        0xa /home/vladimir/Documentos/SOFTWARE/arduino/BluePill/primeros_ejemplos/Thermocouple/build/core/wirish/syscalls.c.o
 .text._isatty  0x0000000000000000        0x4 /home/vladimir/Documentos/SOFTWARE/arduino/BluePill/primeros_ejemplos/Thermocouple/build/core/wirish/syscalls.c.o
 .text.isatty   0x0000000000000000        0x4 /home/vladimir/Documentos/SOFTWARE/arduino/BluePill/primeros_ejemplos/Thermocouple/build/core/wirish/syscalls.c.o
 .text._lseek   0x0000000000000000        0x6 /home/vladimir/Documentos/SOFTWARE/arduino/BluePill/primeros_ejemplos/Thermocouple/build/core/wirish/syscalls.c.o
 .text.getch    0x0000000000000000        0x4 /home/vladimir/Documentos/SOFTWARE/arduino/BluePill/primeros_ejemplos/Thermocouple/build/core/wirish/syscalls.c.o
 .text._read    0x0000000000000000        0xe /home/vladimir/Documentos/SOFTWARE/arduino/BluePill/primeros_ejemplos/Thermocouple/build/core/wirish/syscalls.c.o
 .text.putch    0x0000000000000000        0x2 /home/vladimir/Documentos/SOFTWARE/arduino/BluePill/primeros_ejemplos/Thermocouple/build/core/wirish/syscalls.c.o
 .text.cgets    0x0000000000000000       0x78 /home/vladimir/Documentos/SOFTWARE/arduino/BluePill/primeros_ejemplos/Thermocouple/build/core/wirish/syscalls.c.o
 .text._write   0x0000000000000000       0x1a /home/vladimir/Documentos/SOFTWARE/arduino/BluePill/primeros_ejemplos/Thermocouple/build/core/wirish/syscalls.c.o
 .text.fgets    0x0000000000000000        0xc /home/vladimir/Documentos/SOFTWARE/arduino/BluePill/primeros_ejemplos/Thermocouple/build/core/wirish/syscalls.c.o
 .bss.pbreak.4444
                0x0000000000000000        0x4 /home/vladimir/Documentos/SOFTWARE/arduino/BluePill/primeros_ejemplos/Thermocouple/build/core/wirish/syscalls.c.o
 .text          0x0000000000000000        0x0 /home/vladimir/Documentos/SOFTWARE/arduino/BluePill/primeros_ejemplos/Thermocouple/build/core/board.cpp.o
 .data          0x0000000000000000        0x0 /home/vladimir/Documentos/SOFTWARE/arduino/BluePill/primeros_ejemplos/Thermocouple/build/core/board.cpp.o
 .bss           0x0000000000000000        0x0 /home/vladimir/Documentos/SOFTWARE/arduino/BluePill/primeros_ejemplos/Thermocouple/build/core/board.cpp.o
 .USER_FLASH    0x0000000000000000       0x19 /home/vladimir/Documentos/SOFTWARE/arduino/BluePill/primeros_ejemplos/Thermocouple/build/core/board.cpp.o
 .text          0x0000000000000000        0x0 /home/vladimir/Documentos/SOFTWARE/arduino/BluePill/primeros_ejemplos/Thermocouple/build/core/wirish/boards.cpp.o
 .data          0x0000000000000000        0x0 /home/vladimir/Documentos/SOFTWARE/arduino/BluePill/primeros_ejemplos/Thermocouple/build/core/wirish/boards.cpp.o
 .bss           0x0000000000000000        0x0 /home/vladimir/Documentos/SOFTWARE/arduino/BluePill/primeros_ejemplos/Thermocouple/build/core/wirish/boards.cpp.o
 .text._Z9boardInitv
                0x0000000000000000        0x2 /home/vladimir/Documentos/SOFTWARE/arduino/BluePill/primeros_ejemplos/Thermocouple/build/core/wirish/boards.cpp.o
 .text._Z12boardUsesPinh
                0x0000000000000000       0x1c /home/vladimir/Documentos/SOFTWARE/arduino/BluePill/primeros_ejemplos/Thermocouple/build/core/wirish/boards.cpp.o
 .text          0x0000000000000000        0x0 /home/vladimir/Documentos/SOFTWARE/arduino/BluePill/primeros_ejemplos/Thermocouple/build/core/wirish/boards_setup.cpp.o
 .data          0x0000000000000000        0x0 /home/vladimir/Documentos/SOFTWARE/arduino/BluePill/primeros_ejemplos/Thermocouple/build/core/wirish/boards_setup.cpp.o
 .bss           0x0000000000000000        0x0 /home/vladimir/Documentos/SOFTWARE/arduino/BluePill/primeros_ejemplos/Thermocouple/build/core/wirish/boards_setup.cpp.o
 .data          0x0000000000000000        0x0 /home/vladimir/Documentos/SOFTWARE/arduino/BluePill/primeros_ejemplos/Thermocouple/build/core/core.a(exc.S.o)
 .bss           0x0000000000000000        0x0 /home/vladimir/Documentos/SOFTWARE/arduino/BluePill/primeros_ejemplos/Thermocouple/build/core/core.a(exc.S.o)
 .data          0x0000000000000000        0x0 /home/vladimir/Documentos/SOFTWARE/arduino/BluePill/primeros_ejemplos/Thermocouple/build/core/core.a(isrs.S.o)
 .bss           0x0000000000000000        0x0 /home/vladimir/Documentos/SOFTWARE/arduino/BluePill/primeros_ejemplos/Thermocouple/build/core/core.a(isrs.S.o)
 .text          0x0000000000000000        0x0 /home/vladimir/Documentos/SOFTWARE/arduino/BluePill/primeros_ejemplos/Thermocouple/build/core/core.a(vector_table.S.o)
 .data          0x0000000000000000        0x0 /home/vladimir/Documentos/SOFTWARE/arduino/BluePill/primeros_ejemplos/Thermocouple/build/core/core.a(vector_table.S.o)
 .bss           0x0000000000000000        0x0 /home/vladimir/Documentos/SOFTWARE/arduino/BluePill/primeros_ejemplos/Thermocouple/build/core/core.a(vector_table.S.o)
 .text          0x0000000000000000        0x0 /home/vladimir/Documentos/SOFTWARE/arduino/BluePill/primeros_ejemplos/Thermocouple/build/core/core.a(adc.c.o)
 .data          0x0000000000000000        0x0 /home/vladimir/Documentos/SOFTWARE/arduino/BluePill/primeros_ejemplos/Thermocouple/build/core/core.a(adc.c.o)
 .bss           0x0000000000000000        0x0 /home/vladimir/Documentos/SOFTWARE/arduino/BluePill/primeros_ejemplos/Thermocouple/build/core/core.a(adc.c.o)
 .text.adc_read
                0x0000000000000000       0x20 /home/vladimir/Documentos/SOFTWARE/arduino/BluePill/primeros_ejemplos/Thermocouple/build/core/core.a(adc.c.o)
 .text          0x0000000000000000        0x0 /home/vladimir/Documentos/SOFTWARE/arduino/BluePill/primeros_ejemplos/Thermocouple/build/core/core.a(adc_f1.c.o)
 .data          0x0000000000000000        0x0 /home/vladimir/Documentos/SOFTWARE/arduino/BluePill/primeros_ejemplos/Thermocouple/build/core/core.a(adc_f1.c.o)
 .bss           0x0000000000000000        0x0 /home/vladimir/Documentos/SOFTWARE/arduino/BluePill/primeros_ejemplos/Thermocouple/build/core/core.a(adc_f1.c.o)
 .text.adc_enable_irq
                0x0000000000000000       0x30 /home/vladimir/Documentos/SOFTWARE/arduino/BluePill/primeros_ejemplos/Thermocouple/build/core/core.a(adc_f1.c.o)
 .text.adc_attach_interrupt
                0x0000000000000000        0xa /home/vladimir/Documentos/SOFTWARE/arduino/BluePill/primeros_ejemplos/Thermocouple/build/core/core.a(adc_f1.c.o)
 .text.adc_config_gpio
                0x0000000000000000        0xa /home/vladimir/Documentos/SOFTWARE/arduino/BluePill/primeros_ejemplos/Thermocouple/build/core/core.a(adc_f1.c.o)
 .text          0x0000000000000000        0x0 /home/vladimir/Documentos/SOFTWARE/arduino/BluePill/primeros_ejemplos/Thermocouple/build/core/core.a(dma_f1.c.o)
 .data          0x0000000000000000        0x0 /home/vladimir/Documentos/SOFTWARE/arduino/BluePill/primeros_ejemplos/Thermocouple/build/core/core.a(dma_f1.c.o)
 .bss           0x0000000000000000        0x0 /home/vladimir/Documentos/SOFTWARE/arduino/BluePill/primeros_ejemplos/Thermocouple/build/core/core.a(dma_f1.c.o)
 .text.dma_set_priority
                0x0000000000000000       0x18 /home/vladimir/Documentos/SOFTWARE/arduino/BluePill/primeros_ejemplos/Thermocouple/build/core/core.a(dma_f1.c.o)
 .text.dma_set_num_transfers
                0x0000000000000000       0x10 /home/vladimir/Documentos/SOFTWARE/arduino/BluePill/primeros_ejemplos/Thermocouple/build/core/core.a(dma_f1.c.o)
 .text.dma_attach_interrupt
                0x0000000000000000       0x28 /home/vladimir/Documentos/SOFTWARE/arduino/BluePill/primeros_ejemplos/Thermocouple/build/core/core.a(dma_f1.c.o)
 .text.dma_detach_interrupt
                0x0000000000000000       0x1c /home/vladimir/Documentos/SOFTWARE/arduino/BluePill/primeros_ejemplos/Thermocouple/build/core/core.a(dma_f1.c.o)
 .text.dma_enable
                0x0000000000000000       0x18 /home/vladimir/Documentos/SOFTWARE/arduino/BluePill/primeros_ejemplos/Thermocouple/build/core/core.a(dma_f1.c.o)
 .text.dma_disable
                0x0000000000000000       0x18 /home/vladimir/Documentos/SOFTWARE/arduino/BluePill/primeros_ejemplos/Thermocouple/build/core/core.a(dma_f1.c.o)
 .text.dma_tube_cfg
                0x0000000000000000      0x15c /home/vladimir/Documentos/SOFTWARE/arduino/BluePill/primeros_ejemplos/Thermocouple/build/core/core.a(dma_f1.c.o)
 .text.dma_get_irq_cause
                0x0000000000000000       0x3c /home/vladimir/Documentos/SOFTWARE/arduino/BluePill/primeros_ejemplos/Thermocouple/build/core/core.a(dma_f1.c.o)
 .text.dma_set_mem_addr
                0x0000000000000000       0x10 /home/vladimir/Documentos/SOFTWARE/arduino/BluePill/primeros_ejemplos/Thermocouple/build/core/core.a(dma_f1.c.o)
 .text.dma_set_per_addr
                0x0000000000000000       0x10 /home/vladimir/Documentos/SOFTWARE/arduino/BluePill/primeros_ejemplos/Thermocouple/build/core/core.a(dma_f1.c.o)
 .text.dma_setup_transfer
                0x0000000000000000       0x36 /home/vladimir/Documentos/SOFTWARE/arduino/BluePill/primeros_ejemplos/Thermocouple/build/core/core.a(dma_f1.c.o)
 .text          0x0000000000000000        0x0 /home/vladimir/Documentos/SOFTWARE/arduino/BluePill/primeros_ejemplos/Thermocouple/build/core/core.a(exti.c.o)
 .data          0x0000000000000000        0x0 /home/vladimir/Documentos/SOFTWARE/arduino/BluePill/primeros_ejemplos/Thermocouple/build/core/core.a(exti.c.o)
 .bss           0x0000000000000000        0x0 /home/vladimir/Documentos/SOFTWARE/arduino/BluePill/primeros_ejemplos/Thermocouple/build/core/core.a(exti.c.o)
 .text.exti_attach_callback
                0x0000000000000000       0xac /home/vladimir/Documentos/SOFTWARE/arduino/BluePill/primeros_ejemplos/Thermocouple/build/core/core.a(exti.c.o)
 .text.exti_attach_interrupt
                0x0000000000000000       0x10 /home/vladimir/Documentos/SOFTWARE/arduino/BluePill/primeros_ejemplos/Thermocouple/build/core/core.a(exti.c.o)
 .text.exti_detach_interrupt
                0x0000000000000000       0x28 /home/vladimir/Documentos/SOFTWARE/arduino/BluePill/primeros_ejemplos/Thermocouple/build/core/core.a(exti.c.o)
 .text.exti_do_select
                0x0000000000000000       0x1a /home/vladimir/Documentos/SOFTWARE/arduino/BluePill/primeros_ejemplos/Thermocouple/build/core/core.a(exti.c.o)
 .text          0x0000000000000000        0x0 /home/vladimir/Documentos/SOFTWARE/arduino/BluePill/primeros_ejemplos/Thermocouple/build/core/core.a(exti_f1.c.o)
 .data          0x0000000000000000        0x0 /home/vladimir/Documentos/SOFTWARE/arduino/BluePill/primeros_ejemplos/Thermocouple/build/core/core.a(exti_f1.c.o)
 .bss           0x0000000000000000        0x0 /home/vladimir/Documentos/SOFTWARE/arduino/BluePill/primeros_ejemplos/Thermocouple/build/core/core.a(exti_f1.c.o)
 .text.exti_select
                0x0000000000000000       0x18 /home/vladimir/Documentos/SOFTWARE/arduino/BluePill/primeros_ejemplos/Thermocouple/build/core/core.a(exti_f1.c.o)
 .text          0x0000000000000000        0x0 /home/vladimir/Documentos/SOFTWARE/arduino/BluePill/primeros_ejemplos/Thermocouple/build/core/core.a(flash.c.o)
 .data          0x0000000000000000        0x0 /home/vladimir/Documentos/SOFTWARE/arduino/BluePill/primeros_ejemplos/Thermocouple/build/core/core.a(flash.c.o)
 .bss           0x0000000000000000        0x0 /home/vladimir/Documentos/SOFTWARE/arduino/BluePill/primeros_ejemplos/Thermocouple/build/core/core.a(flash.c.o)
 .text          0x0000000000000000        0x0 /home/vladimir/Documentos/SOFTWARE/arduino/BluePill/primeros_ejemplos/Thermocouple/build/core/core.a(gpio_f1.c.o)
 .data          0x0000000000000000        0x0 /home/vladimir/Documentos/SOFTWARE/arduino/BluePill/primeros_ejemplos/Thermocouple/build/core/core.a(gpio_f1.c.o)
 .bss           0x0000000000000000        0x0 /home/vladimir/Documentos/SOFTWARE/arduino/BluePill/primeros_ejemplos/Thermocouple/build/core/core.a(gpio_f1.c.o)
 .text.gpio_get_mode
                0x0000000000000000       0x2a /home/vladimir/Documentos/SOFTWARE/arduino/BluePill/primeros_ejemplos/Thermocouple/build/core/core.a(gpio_f1.c.o)
 .text.afio_remap
                0x0000000000000000       0x20 /home/vladimir/Documentos/SOFTWARE/arduino/BluePill/primeros_ejemplos/Thermocouple/build/core/core.a(gpio_f1.c.o)
 .rodata.GPIOA  0x0000000000000000        0x4 /home/vladimir/Documentos/SOFTWARE/arduino/BluePill/primeros_ejemplos/Thermocouple/build/core/core.a(gpio_f1.c.o)
 .rodata.GPIOB  0x0000000000000000        0x4 /home/vladimir/Documentos/SOFTWARE/arduino/BluePill/primeros_ejemplos/Thermocouple/build/core/core.a(gpio_f1.c.o)
 .rodata.GPIOD  0x0000000000000000        0x4 /home/vladimir/Documentos/SOFTWARE/arduino/BluePill/primeros_ejemplos/Thermocouple/build/core/core.a(gpio_f1.c.o)
 .text          0x0000000000000000        0x0 /home/vladimir/Documentos/SOFTWARE/arduino/BluePill/primeros_ejemplos/Thermocouple/build/core/core.a(i2c_f1.c.o)
 .data          0x0000000000000000        0x0 /home/vladimir/Documentos/SOFTWARE/arduino/BluePill/primeros_ejemplos/Thermocouple/build/core/core.a(i2c_f1.c.o)
 .bss           0x0000000000000000        0x0 /home/vladimir/Documentos/SOFTWARE/arduino/BluePill/primeros_ejemplos/Thermocouple/build/core/core.a(i2c_f1.c.o)
 .text.i2c_config_gpios
                0x0000000000000000       0x58 /home/vladimir/Documentos/SOFTWARE/arduino/BluePill/primeros_ejemplos/Thermocouple/build/core/core.a(i2c_f1.c.o)
 .text.i2c_master_release_bus
                0x0000000000000000       0x4c /home/vladimir/Documentos/SOFTWARE/arduino/BluePill/primeros_ejemplos/Thermocouple/build/core/core.a(i2c_f1.c.o)
 .rodata.I2C1   0x0000000000000000        0x4 /home/vladimir/Documentos/SOFTWARE/arduino/BluePill/primeros_ejemplos/Thermocouple/build/core/core.a(i2c_f1.c.o)
 .rodata.I2C2   0x0000000000000000        0x4 /home/vladimir/Documentos/SOFTWARE/arduino/BluePill/primeros_ejemplos/Thermocouple/build/core/core.a(i2c_f1.c.o)
 .text          0x0000000000000000        0x0 /home/vladimir/Documentos/SOFTWARE/arduino/BluePill/primeros_ejemplos/Thermocouple/build/core/core.a(nvic.c.o)
 .data          0x0000000000000000        0x0 /home/vladimir/Documentos/SOFTWARE/arduino/BluePill/primeros_ejemplos/Thermocouple/build/core/core.a(nvic.c.o)
 .bss           0x0000000000000000        0x0 /home/vladimir/Documentos/SOFTWARE/arduino/BluePill/primeros_ejemplos/Thermocouple/build/core/core.a(nvic.c.o)
 .text.nvic_set_vector_table
                0x0000000000000000       0x14 /home/vladimir/Documentos/SOFTWARE/arduino/BluePill/primeros_ejemplos/Thermocouple/build/core/core.a(nvic.c.o)
 .text          0x0000000000000000        0x0 /home/vladimir/Documentos/SOFTWARE/arduino/BluePill/primeros_ejemplos/Thermocouple/build/core/core.a(rcc.c.o)
 .data          0x0000000000000000        0x0 /home/vladimir/Documentos/SOFTWARE/arduino/BluePill/primeros_ejemplos/Thermocouple/build/core/core.a(rcc.c.o)
 .bss           0x0000000000000000        0x0 /home/vladimir/Documentos/SOFTWARE/arduino/BluePill/primeros_ejemplos/Thermocouple/build/core/core.a(rcc.c.o)
 .text.rcc_is_clk_on
                0x0000000000000000       0x1e /home/vladimir/Documentos/SOFTWARE/arduino/BluePill/primeros_ejemplos/Thermocouple/build/core/core.a(rcc.c.o)
 .text          0x0000000000000000        0x0 /home/vladimir/Documentos/SOFTWARE/arduino/BluePill/primeros_ejemplos/Thermocouple/build/core/core.a(rcc_f1.c.o)
 .data          0x0000000000000000        0x0 /home/vladimir/Documentos/SOFTWARE/arduino/BluePill/primeros_ejemplos/Thermocouple/build/core/core.a(rcc_f1.c.o)
 .bss           0x0000000000000000        0x0 /home/vladimir/Documentos/SOFTWARE/arduino/BluePill/primeros_ejemplos/Thermocouple/build/core/core.a(rcc_f1.c.o)
 .text.rcc_clk_init
                0x0000000000000000       0x3c /home/vladimir/Documentos/SOFTWARE/arduino/BluePill/primeros_ejemplos/Thermocouple/build/core/core.a(rcc_f1.c.o)
 .text          0x0000000000000000        0x0 /home/vladimir/Documentos/SOFTWARE/arduino/BluePill/primeros_ejemplos/Thermocouple/build/core/core.a(systick.c.o)
 .data          0x0000000000000000        0x0 /home/vladimir/Documentos/SOFTWARE/arduino/BluePill/primeros_ejemplos/Thermocouple/build/core/core.a(systick.c.o)
 .bss           0x0000000000000000        0x0 /home/vladimir/Documentos/SOFTWARE/arduino/BluePill/primeros_ejemplos/Thermocouple/build/core/core.a(systick.c.o)
 .text.systick_disable
                0x0000000000000000        0xc /home/vladimir/Documentos/SOFTWARE/arduino/BluePill/primeros_ejemplos/Thermocouple/build/core/core.a(systick.c.o)
 .text.systick_enable
                0x0000000000000000        0xc /home/vladimir/Documentos/SOFTWARE/arduino/BluePill/primeros_ejemplos/Thermocouple/build/core/core.a(systick.c.o)
 .text.systick_attach_callback
                0x0000000000000000        0xc /home/vladimir/Documentos/SOFTWARE/arduino/BluePill/primeros_ejemplos/Thermocouple/build/core/core.a(systick.c.o)
 .text          0x0000000000000000        0x0 /home/vladimir/Documentos/SOFTWARE/arduino/BluePill/primeros_ejemplos/Thermocouple/build/core/core.a(timer.c.o)
 .data          0x0000000000000000        0x0 /home/vladimir/Documentos/SOFTWARE/arduino/BluePill/primeros_ejemplos/Thermocouple/build/core/core.a(timer.c.o)
 .bss           0x0000000000000000        0x0 /home/vladimir/Documentos/SOFTWARE/arduino/BluePill/primeros_ejemplos/Thermocouple/build/core/core.a(timer.c.o)
 .text.timer_disable
                0x0000000000000000       0x12 /home/vladimir/Documentos/SOFTWARE/arduino/BluePill/primeros_ejemplos/Thermocouple/build/core/core.a(timer.c.o)
 .text.timer_attach_interrupt
                0x0000000000000000       0xe0 /home/vladimir/Documentos/SOFTWARE/arduino/BluePill/primeros_ejemplos/Thermocouple/build/core/core.a(timer.c.o)
 .text.get_direction
                0x0000000000000000        0xe /home/vladimir/Documentos/SOFTWARE/arduino/BluePill/primeros_ejemplos/Thermocouple/build/core/core.a(timer.c.o)
 .rodata.TIMER1
                0x0000000000000000        0x4 /home/vladimir/Documentos/SOFTWARE/arduino/BluePill/primeros_ejemplos/Thermocouple/build/core/core.a(timer.c.o)
 .rodata.TIMER2
                0x0000000000000000        0x4 /home/vladimir/Documentos/SOFTWARE/arduino/BluePill/primeros_ejemplos/Thermocouple/build/core/core.a(timer.c.o)
 .rodata.TIMER3
                0x0000000000000000        0x4 /home/vladimir/Documentos/SOFTWARE/arduino/BluePill/primeros_ejemplos/Thermocouple/build/core/core.a(timer.c.o)
 .rodata.TIMER4
                0x0000000000000000        0x4 /home/vladimir/Documentos/SOFTWARE/arduino/BluePill/primeros_ejemplos/Thermocouple/build/core/core.a(timer.c.o)
 .text          0x0000000000000000        0x0 /home/vladimir/Documentos/SOFTWARE/arduino/BluePill/primeros_ejemplos/Thermocouple/build/core/core.a(usart_f1.c.o)
 .data          0x0000000000000000        0x0 /home/vladimir/Documentos/SOFTWARE/arduino/BluePill/primeros_ejemplos/Thermocouple/build/core/core.a(usart_f1.c.o)
 .bss           0x0000000000000000        0x0 /home/vladimir/Documentos/SOFTWARE/arduino/BluePill/primeros_ejemplos/Thermocouple/build/core/core.a(usart_f1.c.o)
 .text.usart_config_gpios_async
                0x0000000000000000       0x4a /home/vladimir/Documentos/SOFTWARE/arduino/BluePill/primeros_ejemplos/Thermocouple/build/core/core.a(usart_f1.c.o)
 .text.usart_set_baud_rate
                0x0000000000000000       0x3c /home/vladimir/Documentos/SOFTWARE/arduino/BluePill/primeros_ejemplos/Thermocouple/build/core/core.a(usart_f1.c.o)
 .text.usart_foreach
                0x0000000000000000       0x24 /home/vladimir/Documentos/SOFTWARE/arduino/BluePill/primeros_ejemplos/Thermocouple/build/core/core.a(usart_f1.c.o)
 .text          0x0000000000000000        0x0 /home/vladimir/Documentos/SOFTWARE/arduino/BluePill/primeros_ejemplos/Thermocouple/build/core/core.a(usart_private.c.o)
 .data          0x0000000000000000        0x0 /home/vladimir/Documentos/SOFTWARE/arduino/BluePill/primeros_ejemplos/Thermocouple/build/core/core.a(usart_private.c.o)
 .bss           0x0000000000000000        0x0 /home/vladimir/Documentos/SOFTWARE/arduino/BluePill/primeros_ejemplos/Thermocouple/build/core/core.a(usart_private.c.o)
 .text._usart_clock_freq
                0x0000000000000000       0x24 /home/vladimir/Documentos/SOFTWARE/arduino/BluePill/primeros_ejemplos/Thermocouple/build/core/core.a(usart_private.c.o)
 .text          0x0000000000000000        0x0 /home/vladimir/Documentos/SOFTWARE/arduino/BluePill/primeros_ejemplos/Thermocouple/build/core/core.a(util.c.o)
 .data          0x0000000000000000        0x0 /home/vladimir/Documentos/SOFTWARE/arduino/BluePill/primeros_ejemplos/Thermocouple/build/core/core.a(util.c.o)
 .bss           0x0000000000000000        0x0 /home/vladimir/Documentos/SOFTWARE/arduino/BluePill/primeros_ejemplos/Thermocouple/build/core/core.a(util.c.o)
 .text.usart_putc
                0x0000000000000000       0x1c /home/vladimir/Documentos/SOFTWARE/arduino/BluePill/primeros_ejemplos/Thermocouple/build/core/core.a(util.c.o)
 .text.usart_putstr
                0x0000000000000000       0x16 /home/vladimir/Documentos/SOFTWARE/arduino/BluePill/primeros_ejemplos/Thermocouple/build/core/core.a(util.c.o)
 .text._fail    0x0000000000000000       0x64 /home/vladimir/Documentos/SOFTWARE/arduino/BluePill/primeros_ejemplos/Thermocouple/build/core/core.a(util.c.o)
 .text.__assert_func
                0x0000000000000000        0x8 /home/vladimir/Documentos/SOFTWARE/arduino/BluePill/primeros_ejemplos/Thermocouple/build/core/core.a(util.c.o)
 .text.abort    0x0000000000000000       0x1c /home/vladimir/Documentos/SOFTWARE/arduino/BluePill/primeros_ejemplos/Thermocouple/build/core/core.a(util.c.o)
 .rodata.str1.1
                0x0000000000000000       0x42 /home/vladimir/Documentos/SOFTWARE/arduino/BluePill/primeros_ejemplos/Thermocouple/build/core/core.a(util.c.o)
 .text          0x0000000000000000        0x0 /home/vladimir/Documentos/SOFTWARE/arduino/BluePill/primeros_ejemplos/Thermocouple/build/core/core.a(usb.c.o)
 .data          0x0000000000000000        0x0 /home/vladimir/Documentos/SOFTWARE/arduino/BluePill/primeros_ejemplos/Thermocouple/build/core/core.a(usb.c.o)
 .bss           0x0000000000000000        0x0 /home/vladimir/Documentos/SOFTWARE/arduino/BluePill/primeros_ejemplos/Thermocouple/build/core/core.a(usb.c.o)
 .text.usb_power_off
                0x0000000000000000       0x14 /home/vladimir/Documentos/SOFTWARE/arduino/BluePill/primeros_ejemplos/Thermocouple/build/core/core.a(usb.c.o)
 .text          0x0000000000000000        0x0 /home/vladimir/Documentos/SOFTWARE/arduino/BluePill/primeros_ejemplos/Thermocouple/build/core/core.a(usb_cdcacm.c.o)
 .data          0x0000000000000000        0x0 /home/vladimir/Documentos/SOFTWARE/arduino/BluePill/primeros_ejemplos/Thermocouple/build/core/core.a(usb_cdcacm.c.o)
 .bss           0x0000000000000000        0x0 /home/vladimir/Documentos/SOFTWARE/arduino/BluePill/primeros_ejemplos/Thermocouple/build/core/core.a(usb_cdcacm.c.o)
 .text.usb_cdcacm_disable
                0x0000000000000000       0x20 /home/vladimir/Documentos/SOFTWARE/arduino/BluePill/primeros_ejemplos/Thermocouple/build/core/core.a(usb_cdcacm.c.o)
 .text.usb_cdcacm_putc
                0x0000000000000000       0x1a /home/vladimir/Documentos/SOFTWARE/arduino/BluePill/primeros_ejemplos/Thermocouple/build/core/core.a(usb_cdcacm.c.o)
 .text.usb_cdcacm_is_transmitting
                0x0000000000000000       0x14 /home/vladimir/Documentos/SOFTWARE/arduino/BluePill/primeros_ejemplos/Thermocouple/build/core/core.a(usb_cdcacm.c.o)
 .text.usb_cdcacm_get_pending
                0x0000000000000000       0x18 /home/vladimir/Documentos/SOFTWARE/arduino/BluePill/primeros_ejemplos/Thermocouple/build/core/core.a(usb_cdcacm.c.o)
 .text.usb_cdcacm_tx_available
                0x0000000000000000        0xc /home/vladimir/Documentos/SOFTWARE/arduino/BluePill/primeros_ejemplos/Thermocouple/build/core/core.a(usb_cdcacm.c.o)
 .text.usb_cdcacm_peek_char
                0x0000000000000000       0x24 /home/vladimir/Documentos/SOFTWARE/arduino/BluePill/primeros_ejemplos/Thermocouple/build/core/core.a(usb_cdcacm.c.o)
 .text.usb_cdcacm_get_rts
                0x0000000000000000       0x10 /home/vladimir/Documentos/SOFTWARE/arduino/BluePill/primeros_ejemplos/Thermocouple/build/core/core.a(usb_cdcacm.c.o)
 .text.usb_cdcacm_get_line_coding
                0x0000000000000000       0x18 /home/vladimir/Documentos/SOFTWARE/arduino/BluePill/primeros_ejemplos/Thermocouple/build/core/core.a(usb_cdcacm.c.o)
 .text.usb_cdcacm_get_baud
                0x0000000000000000        0xc /home/vladimir/Documentos/SOFTWARE/arduino/BluePill/primeros_ejemplos/Thermocouple/build/core/core.a(usb_cdcacm.c.o)
 .text.usb_cdcacm_get_stop_bits
                0x0000000000000000        0xc /home/vladimir/Documentos/SOFTWARE/arduino/BluePill/primeros_ejemplos/Thermocouple/build/core/core.a(usb_cdcacm.c.o)
 .text.usb_cdcacm_get_parity
                0x0000000000000000        0xc /home/vladimir/Documentos/SOFTWARE/arduino/BluePill/primeros_ejemplos/Thermocouple/build/core/core.a(usb_cdcacm.c.o)
 .text.usb_cdcacm_get_n_data_bits
                0x0000000000000000        0xc /home/vladimir/Documentos/SOFTWARE/arduino/BluePill/primeros_ejemplos/Thermocouple/build/core/core.a(usb_cdcacm.c.o)
 .text          0x0000000000000000        0x0 /home/vladimir/Documentos/SOFTWARE/arduino/BluePill/primeros_ejemplos/Thermocouple/build/core/core.a(usb_reg_map.c.o)
 .data          0x0000000000000000        0x0 /home/vladimir/Documentos/SOFTWARE/arduino/BluePill/primeros_ejemplos/Thermocouple/build/core/core.a(usb_reg_map.c.o)
 .bss           0x0000000000000000        0x0 /home/vladimir/Documentos/SOFTWARE/arduino/BluePill/primeros_ejemplos/Thermocouple/build/core/core.a(usb_reg_map.c.o)
 .text          0x0000000000000000        0x0 /home/vladimir/Documentos/SOFTWARE/arduino/BluePill/primeros_ejemplos/Thermocouple/build/core/core.a(usb_core.c.o)
 .data          0x0000000000000000        0x0 /home/vladimir/Documentos/SOFTWARE/arduino/BluePill/primeros_ejemplos/Thermocouple/build/core/core.a(usb_core.c.o)
 .bss           0x0000000000000000        0x0 /home/vladimir/Documentos/SOFTWARE/arduino/BluePill/primeros_ejemplos/Thermocouple/build/core/core.a(usb_core.c.o)
 .text          0x0000000000000000        0x0 /home/vladimir/Documentos/SOFTWARE/arduino/BluePill/primeros_ejemplos/Thermocouple/build/core/core.a(usb_init.c.o)
 .data          0x0000000000000000        0x0 /home/vladimir/Documentos/SOFTWARE/arduino/BluePill/primeros_ejemplos/Thermocouple/build/core/core.a(usb_init.c.o)
 .bss           0x0000000000000000        0x0 /home/vladimir/Documentos/SOFTWARE/arduino/BluePill/primeros_ejemplos/Thermocouple/build/core/core.a(usb_init.c.o)
 .text.USB_Init
                0x0000000000000000       0x38 /home/vladimir/Documentos/SOFTWARE/arduino/BluePill/primeros_ejemplos/Thermocouple/build/core/core.a(usb_init.c.o)
 .text          0x0000000000000000        0x0 /home/vladimir/Documentos/SOFTWARE/arduino/BluePill/primeros_ejemplos/Thermocouple/build/core/core.a(usb_mem.c.o)
 .data          0x0000000000000000        0x0 /home/vladimir/Documentos/SOFTWARE/arduino/BluePill/primeros_ejemplos/Thermocouple/build/core/core.a(usb_mem.c.o)
 .bss           0x0000000000000000        0x0 /home/vladimir/Documentos/SOFTWARE/arduino/BluePill/primeros_ejemplos/Thermocouple/build/core/core.a(usb_mem.c.o)
 .text          0x0000000000000000        0x0 /home/vladimir/Documentos/SOFTWARE/arduino/BluePill/primeros_ejemplos/Thermocouple/build/core/core.a(usb_regs.c.o)
 .data          0x0000000000000000        0x0 /home/vladimir/Documentos/SOFTWARE/arduino/BluePill/primeros_ejemplos/Thermocouple/build/core/core.a(usb_regs.c.o)
 .bss           0x0000000000000000        0x0 /home/vladimir/Documentos/SOFTWARE/arduino/BluePill/primeros_ejemplos/Thermocouple/build/core/core.a(usb_regs.c.o)
 .text.SetCNTR  0x0000000000000000        0xc /home/vladimir/Documentos/SOFTWARE/arduino/BluePill/primeros_ejemplos/Thermocouple/build/core/core.a(usb_regs.c.o)
 .text.GetCNTR  0x0000000000000000        0xc /home/vladimir/Documentos/SOFTWARE/arduino/BluePill/primeros_ejemplos/Thermocouple/build/core/core.a(usb_regs.c.o)
 .text.SetISTR  0x0000000000000000        0xc /home/vladimir/Documentos/SOFTWARE/arduino/BluePill/primeros_ejemplos/Thermocouple/build/core/core.a(usb_regs.c.o)
 .text.GetISTR  0x0000000000000000        0xc /home/vladimir/Documentos/SOFTWARE/arduino/BluePill/primeros_ejemplos/Thermocouple/build/core/core.a(usb_regs.c.o)
 .text.GetFNR   0x0000000000000000        0xc /home/vladimir/Documentos/SOFTWARE/arduino/BluePill/primeros_ejemplos/Thermocouple/build/core/core.a(usb_regs.c.o)
 .text.SetDADDR
                0x0000000000000000        0xc /home/vladimir/Documentos/SOFTWARE/arduino/BluePill/primeros_ejemplos/Thermocouple/build/core/core.a(usb_regs.c.o)
 .text.GetDADDR
                0x0000000000000000        0xc /home/vladimir/Documentos/SOFTWARE/arduino/BluePill/primeros_ejemplos/Thermocouple/build/core/core.a(usb_regs.c.o)
 .text.SetBTABLE
                0x0000000000000000       0x10 /home/vladimir/Documentos/SOFTWARE/arduino/BluePill/primeros_ejemplos/Thermocouple/build/core/core.a(usb_regs.c.o)
 .text.GetBTABLE
                0x0000000000000000        0xc /home/vladimir/Documentos/SOFTWARE/arduino/BluePill/primeros_ejemplos/Thermocouple/build/core/core.a(usb_regs.c.o)
 .text.SetENDPOINT
                0x0000000000000000        0xe /home/vladimir/Documentos/SOFTWARE/arduino/BluePill/primeros_ejemplos/Thermocouple/build/core/core.a(usb_regs.c.o)
 .text.GetENDPOINT
                0x0000000000000000       0x10 /home/vladimir/Documentos/SOFTWARE/arduino/BluePill/primeros_ejemplos/Thermocouple/build/core/core.a(usb_regs.c.o)
 .text.SetEPType
                0x0000000000000000       0x1c /home/vladimir/Documentos/SOFTWARE/arduino/BluePill/primeros_ejemplos/Thermocouple/build/core/core.a(usb_regs.c.o)
 .text.GetEPType
                0x0000000000000000       0x12 /home/vladimir/Documentos/SOFTWARE/arduino/BluePill/primeros_ejemplos/Thermocouple/build/core/core.a(usb_regs.c.o)
 .text.SetEPRxStatus
                0x0000000000000000       0x2a /home/vladimir/Documentos/SOFTWARE/arduino/BluePill/primeros_ejemplos/Thermocouple/build/core/core.a(usb_regs.c.o)
 .text.SetDouBleBuffEPStall
                0x0000000000000000       0x24 /home/vladimir/Documentos/SOFTWARE/arduino/BluePill/primeros_ejemplos/Thermocouple/build/core/core.a(usb_regs.c.o)
 .text.GetEPTxStatus
                0x0000000000000000       0x12 /home/vladimir/Documentos/SOFTWARE/arduino/BluePill/primeros_ejemplos/Thermocouple/build/core/core.a(usb_regs.c.o)
 .text.GetEPRxStatus
                0x0000000000000000       0x12 /home/vladimir/Documentos/SOFTWARE/arduino/BluePill/primeros_ejemplos/Thermocouple/build/core/core.a(usb_regs.c.o)
 .text.SetEPTxValid
                0x0000000000000000       0x1e /home/vladimir/Documentos/SOFTWARE/arduino/BluePill/primeros_ejemplos/Thermocouple/build/core/core.a(usb_regs.c.o)
 .text.SetEPRxValid
                0x0000000000000000       0x1e /home/vladimir/Documentos/SOFTWARE/arduino/BluePill/primeros_ejemplos/Thermocouple/build/core/core.a(usb_regs.c.o)
 .text.SetEP_KIND
                0x0000000000000000       0x1e /home/vladimir/Documentos/SOFTWARE/arduino/BluePill/primeros_ejemplos/Thermocouple/build/core/core.a(usb_regs.c.o)
 .text.ClearEP_KIND
                0x0000000000000000       0x1c /home/vladimir/Documentos/SOFTWARE/arduino/BluePill/primeros_ejemplos/Thermocouple/build/core/core.a(usb_regs.c.o)
 .text.Clear_Status_Out
                0x0000000000000000       0x1c /home/vladimir/Documentos/SOFTWARE/arduino/BluePill/primeros_ejemplos/Thermocouple/build/core/core.a(usb_regs.c.o)
 .text.Set_Status_Out
                0x0000000000000000       0x1e /home/vladimir/Documentos/SOFTWARE/arduino/BluePill/primeros_ejemplos/Thermocouple/build/core/core.a(usb_regs.c.o)
 .text.SetEPDoubleBuff
                0x0000000000000000       0x1e /home/vladimir/Documentos/SOFTWARE/arduino/BluePill/primeros_ejemplos/Thermocouple/build/core/core.a(usb_regs.c.o)
 .text.ClearEPDoubleBuff
                0x0000000000000000       0x1c /home/vladimir/Documentos/SOFTWARE/arduino/BluePill/primeros_ejemplos/Thermocouple/build/core/core.a(usb_regs.c.o)
 .text.GetTxStallStatus
                0x0000000000000000       0x1a /home/vladimir/Documentos/SOFTWARE/arduino/BluePill/primeros_ejemplos/Thermocouple/build/core/core.a(usb_regs.c.o)
 .text.GetRxStallStatus
                0x0000000000000000       0x1a /home/vladimir/Documentos/SOFTWARE/arduino/BluePill/primeros_ejemplos/Thermocouple/build/core/core.a(usb_regs.c.o)
 .text.ClearEP_CTR_RX
                0x0000000000000000       0x18 /home/vladimir/Documentos/SOFTWARE/arduino/BluePill/primeros_ejemplos/Thermocouple/build/core/core.a(usb_regs.c.o)
 .text.ClearEP_CTR_TX
                0x0000000000000000       0x1c /home/vladimir/Documentos/SOFTWARE/arduino/BluePill/primeros_ejemplos/Thermocouple/build/core/core.a(usb_regs.c.o)
 .text.ToggleDTOG_RX
                0x0000000000000000       0x20 /home/vladimir/Documentos/SOFTWARE/arduino/BluePill/primeros_ejemplos/Thermocouple/build/core/core.a(usb_regs.c.o)
 .text.ToggleDTOG_TX
                0x0000000000000000       0x20 /home/vladimir/Documentos/SOFTWARE/arduino/BluePill/primeros_ejemplos/Thermocouple/build/core/core.a(usb_regs.c.o)
 .text.SetEPAddress
                0x0000000000000000       0x1e /home/vladimir/Documentos/SOFTWARE/arduino/BluePill/primeros_ejemplos/Thermocouple/build/core/core.a(usb_regs.c.o)
 .text.GetEPAddress
                0x0000000000000000       0x12 /home/vladimir/Documentos/SOFTWARE/arduino/BluePill/primeros_ejemplos/Thermocouple/build/core/core.a(usb_regs.c.o)
 .text.SetEPTxAddr
                0x0000000000000000       0x20 /home/vladimir/Documentos/SOFTWARE/arduino/BluePill/primeros_ejemplos/Thermocouple/build/core/core.a(usb_regs.c.o)
 .text.SetEPRxAddr
                0x0000000000000000       0x20 /home/vladimir/Documentos/SOFTWARE/arduino/BluePill/primeros_ejemplos/Thermocouple/build/core/core.a(usb_regs.c.o)
 .text.SetEPCountRxReg
                0x0000000000000000       0x26 /home/vladimir/Documentos/SOFTWARE/arduino/BluePill/primeros_ejemplos/Thermocouple/build/core/core.a(usb_regs.c.o)
 .text.GetEPTxCount
                0x0000000000000000       0x20 /home/vladimir/Documentos/SOFTWARE/arduino/BluePill/primeros_ejemplos/Thermocouple/build/core/core.a(usb_regs.c.o)
 .text.GetEPRxCount
                0x0000000000000000       0x20 /home/vladimir/Documentos/SOFTWARE/arduino/BluePill/primeros_ejemplos/Thermocouple/build/core/core.a(usb_regs.c.o)
 .text.SetEPDblBuffAddr
                0x0000000000000000       0x38 /home/vladimir/Documentos/SOFTWARE/arduino/BluePill/primeros_ejemplos/Thermocouple/build/core/core.a(usb_regs.c.o)
 .text.SetEPDblBuf0Addr
                0x0000000000000000       0x20 /home/vladimir/Documentos/SOFTWARE/arduino/BluePill/primeros_ejemplos/Thermocouple/build/core/core.a(usb_regs.c.o)
 .text.SetEPDblBuf1Addr
                0x0000000000000000       0x20 /home/vladimir/Documentos/SOFTWARE/arduino/BluePill/primeros_ejemplos/Thermocouple/build/core/core.a(usb_regs.c.o)
 .text.GetEPDblBuf0Addr
                0x0000000000000000       0x1c /home/vladimir/Documentos/SOFTWARE/arduino/BluePill/primeros_ejemplos/Thermocouple/build/core/core.a(usb_regs.c.o)
 .text.GetEPDblBuf1Addr
                0x0000000000000000       0x1c /home/vladimir/Documentos/SOFTWARE/arduino/BluePill/primeros_ejemplos/Thermocouple/build/core/core.a(usb_regs.c.o)
 .text.SetEPDblBuffCount
                0x0000000000000000       0xa8 /home/vladimir/Documentos/SOFTWARE/arduino/BluePill/primeros_ejemplos/Thermocouple/build/core/core.a(usb_regs.c.o)
 .text.SetEPDblBuf0Count
                0x0000000000000000       0x5c /home/vladimir/Documentos/SOFTWARE/arduino/BluePill/primeros_ejemplos/Thermocouple/build/core/core.a(usb_regs.c.o)
 .text.SetEPDblBuf1Count
                0x0000000000000000       0x5c /home/vladimir/Documentos/SOFTWARE/arduino/BluePill/primeros_ejemplos/Thermocouple/build/core/core.a(usb_regs.c.o)
 .text.GetEPDblBuf0Count
                0x0000000000000000       0x20 /home/vladimir/Documentos/SOFTWARE/arduino/BluePill/primeros_ejemplos/Thermocouple/build/core/core.a(usb_regs.c.o)
 .text.GetEPDblBuf1Count
                0x0000000000000000       0x20 /home/vladimir/Documentos/SOFTWARE/arduino/BluePill/primeros_ejemplos/Thermocouple/build/core/core.a(usb_regs.c.o)
 .text.GetEPDblBufDir
                0x0000000000000000       0x44 /home/vladimir/Documentos/SOFTWARE/arduino/BluePill/primeros_ejemplos/Thermocouple/build/core/core.a(usb_regs.c.o)
 .text.FreeUserBuffer
                0x0000000000000000       0x3a /home/vladimir/Documentos/SOFTWARE/arduino/BluePill/primeros_ejemplos/Thermocouple/build/core/core.a(usb_regs.c.o)
 .text.ToWord   0x0000000000000000        0x6 /home/vladimir/Documentos/SOFTWARE/arduino/BluePill/primeros_ejemplos/Thermocouple/build/core/core.a(usb_regs.c.o)
 .text.ByteSwap
                0x0000000000000000        0xa /home/vladimir/Documentos/SOFTWARE/arduino/BluePill/primeros_ejemplos/Thermocouple/build/core/core.a(usb_regs.c.o)
 .group         0x0000000000000000        0x8 /home/vladimir/Documentos/SOFTWARE/arduino/BluePill/primeros_ejemplos/Thermocouple/build/core/core.a(HardwareSerial.cpp.o)
 .text          0x0000000000000000        0x0 /home/vladimir/Documentos/SOFTWARE/arduino/BluePill/primeros_ejemplos/Thermocouple/build/core/core.a(HardwareSerial.cpp.o)
 .data          0x0000000000000000        0x0 /home/vladimir/Documentos/SOFTWARE/arduino/BluePill/primeros_ejemplos/Thermocouple/build/core/core.a(HardwareSerial.cpp.o)
 .bss           0x0000000000000000        0x0 /home/vladimir/Documentos/SOFTWARE/arduino/BluePill/primeros_ejemplos/Thermocouple/build/core/core.a(HardwareSerial.cpp.o)
 .text._ZN14HardwareSerial5beginEmh
                0x0000000000000000       0x78 /home/vladimir/Documentos/SOFTWARE/arduino/BluePill/primeros_ejemplos/Thermocouple/build/core/core.a(HardwareSerial.cpp.o)
 .text._ZN14HardwareSerial5beginEm
                0x0000000000000000        0x6 /home/vladimir/Documentos/SOFTWARE/arduino/BluePill/primeros_ejemplos/Thermocouple/build/core/core.a(HardwareSerial.cpp.o)
 .text._ZN14HardwareSerial3endEv
                0x0000000000000000        0x6 /home/vladimir/Documentos/SOFTWARE/arduino/BluePill/primeros_ejemplos/Thermocouple/build/core/core.a(HardwareSerial.cpp.o)
 .text._ZN14HardwareSerial17availableForWriteEv
                0x0000000000000000       0x12 /home/vladimir/Documentos/SOFTWARE/arduino/BluePill/primeros_ejemplos/Thermocouple/build/core/core.a(HardwareSerial.cpp.o)
 .rodata._ZTV6Stream
                0x0000000000000000       0x28 /home/vladimir/Documentos/SOFTWARE/arduino/BluePill/primeros_ejemplos/Thermocouple/build/core/core.a(HardwareSerial.cpp.o)
 .text          0x0000000000000000        0x0 /home/vladimir/Documentos/SOFTWARE/arduino/BluePill/primeros_ejemplos/Thermocouple/build/core/core.a(Print.cpp.o)
 .data          0x0000000000000000        0x0 /home/vladimir/Documentos/SOFTWARE/arduino/BluePill/primeros_ejemplos/Thermocouple/build/core/core.a(Print.cpp.o)
 .bss           0x0000000000000000        0x0 /home/vladimir/Documentos/SOFTWARE/arduino/BluePill/primeros_ejemplos/Thermocouple/build/core/core.a(Print.cpp.o)
 .text._ZN5Print5printERK6String
                0x0000000000000000       0x10 /home/vladimir/Documentos/SOFTWARE/arduino/BluePill/primeros_ejemplos/Thermocouple/build/core/core.a(Print.cpp.o)
 .text._ZN5Print5printEPK19__FlashStringHelper
                0x0000000000000000        0x4 /home/vladimir/Documentos/SOFTWARE/arduino/BluePill/primeros_ejemplos/Thermocouple/build/core/core.a(Print.cpp.o)
 .text._ZN5Print5printERK9Printable
                0x0000000000000000       0x10 /home/vladimir/Documentos/SOFTWARE/arduino/BluePill/primeros_ejemplos/Thermocouple/build/core/core.a(Print.cpp.o)
 .text._ZN5Print7printlnERK6String
                0x0000000000000000       0x14 /home/vladimir/Documentos/SOFTWARE/arduino/BluePill/primeros_ejemplos/Thermocouple/build/core/core.a(Print.cpp.o)
 .text._ZN5Print7printlnEc
                0x0000000000000000       0x14 /home/vladimir/Documentos/SOFTWARE/arduino/BluePill/primeros_ejemplos/Thermocouple/build/core/core.a(Print.cpp.o)
 .text._ZN5Print7printlnEPK19__FlashStringHelper
                0x0000000000000000       0x14 /home/vladimir/Documentos/SOFTWARE/arduino/BluePill/primeros_ejemplos/Thermocouple/build/core/core.a(Print.cpp.o)
 .text._ZN5Print7printlnERK9Printable
                0x0000000000000000       0x14 /home/vladimir/Documentos/SOFTWARE/arduino/BluePill/primeros_ejemplos/Thermocouple/build/core/core.a(Print.cpp.o)
 .text._ZN5Print11printNumberEyh
                0x0000000000000000       0x84 /home/vladimir/Documentos/SOFTWARE/arduino/BluePill/primeros_ejemplos/Thermocouple/build/core/core.a(Print.cpp.o)
 .text._ZN5Print5printExi
                0x0000000000000000       0x32 /home/vladimir/Documentos/SOFTWARE/arduino/BluePill/primeros_ejemplos/Thermocouple/build/core/core.a(Print.cpp.o)
 .text._ZN5Print5printEii
                0x0000000000000000       0x12 /home/vladimir/Documentos/SOFTWARE/arduino/BluePill/primeros_ejemplos/Thermocouple/build/core/core.a(Print.cpp.o)
 .text._ZN5Print7printlnEii
                0x0000000000000000       0x14 /home/vladimir/Documentos/SOFTWARE/arduino/BluePill/primeros_ejemplos/Thermocouple/build/core/core.a(Print.cpp.o)
 .text._ZN5Print5printEli
                0x0000000000000000       0x12 /home/vladimir/Documentos/SOFTWARE/arduino/BluePill/primeros_ejemplos/Thermocouple/build/core/core.a(Print.cpp.o)
 .text._ZN5Print7printlnEli
                0x0000000000000000       0x1c /home/vladimir/Documentos/SOFTWARE/arduino/BluePill/primeros_ejemplos/Thermocouple/build/core/core.a(Print.cpp.o)
 .text._ZN5Print7printlnExi
                0x0000000000000000       0x1a /home/vladimir/Documentos/SOFTWARE/arduino/BluePill/primeros_ejemplos/Thermocouple/build/core/core.a(Print.cpp.o)
 .text._ZN5Print5printEyi
                0x0000000000000000        0xa /home/vladimir/Documentos/SOFTWARE/arduino/BluePill/primeros_ejemplos/Thermocouple/build/core/core.a(Print.cpp.o)
 .text._ZN5Print5printEhi
                0x0000000000000000       0x14 /home/vladimir/Documentos/SOFTWARE/arduino/BluePill/primeros_ejemplos/Thermocouple/build/core/core.a(Print.cpp.o)
 .text._ZN5Print7printlnEhi
                0x0000000000000000       0x14 /home/vladimir/Documentos/SOFTWARE/arduino/BluePill/primeros_ejemplos/Thermocouple/build/core/core.a(Print.cpp.o)
 .text._ZN5Print5printEji
                0x0000000000000000       0x14 /home/vladimir/Documentos/SOFTWARE/arduino/BluePill/primeros_ejemplos/Thermocouple/build/core/core.a(Print.cpp.o)
 .text._ZN5Print7printlnEji
                0x0000000000000000       0x14 /home/vladimir/Documentos/SOFTWARE/arduino/BluePill/primeros_ejemplos/Thermocouple/build/core/core.a(Print.cpp.o)
 .text._ZN5Print5printEmi
                0x0000000000000000       0x14 /home/vladimir/Documentos/SOFTWARE/arduino/BluePill/primeros_ejemplos/Thermocouple/build/core/core.a(Print.cpp.o)
 .text._ZN5Print7printlnEmi
                0x0000000000000000       0x1e /home/vladimir/Documentos/SOFTWARE/arduino/BluePill/primeros_ejemplos/Thermocouple/build/core/core.a(Print.cpp.o)
 .text._ZN5Print7printlnEyi
                0x0000000000000000       0x1c /home/vladimir/Documentos/SOFTWARE/arduino/BluePill/primeros_ejemplos/Thermocouple/build/core/core.a(Print.cpp.o)
 .text._ZN5Print10printFloatEdh
                0x0000000000000000      0x158 /home/vladimir/Documentos/SOFTWARE/arduino/BluePill/primeros_ejemplos/Thermocouple/build/core/core.a(Print.cpp.o)
 .text._ZN5Print5printEdi
                0x0000000000000000        0xa /home/vladimir/Documentos/SOFTWARE/arduino/BluePill/primeros_ejemplos/Thermocouple/build/core/core.a(Print.cpp.o)
 .text._ZN5Print7printlnEdi
                0x0000000000000000       0x1c /home/vladimir/Documentos/SOFTWARE/arduino/BluePill/primeros_ejemplos/Thermocouple/build/core/core.a(Print.cpp.o)
 .rodata._ZTV5Print
                0x0000000000000000       0x18 /home/vladimir/Documentos/SOFTWARE/arduino/BluePill/primeros_ejemplos/Thermocouple/build/core/core.a(Print.cpp.o)
 .rodata.str1.1
                0x0000000000000000       0x11 /home/vladimir/Documentos/SOFTWARE/arduino/BluePill/primeros_ejemplos/Thermocouple/build/core/core.a(Print.cpp.o)
 .text          0x0000000000000000        0x0 /home/vladimir/Documentos/SOFTWARE/arduino/BluePill/primeros_ejemplos/Thermocouple/build/core/core.a(cxxabi-compat.cpp.o)
 .data          0x0000000000000000        0x0 /home/vladimir/Documentos/SOFTWARE/arduino/BluePill/primeros_ejemplos/Thermocouple/build/core/core.a(cxxabi-compat.cpp.o)
 .bss           0x0000000000000000        0x0 /home/vladimir/Documentos/SOFTWARE/arduino/BluePill/primeros_ejemplos/Thermocouple/build/core/core.a(cxxabi-compat.cpp.o)
 .text.__cxa_pure_virtual
                0x0000000000000000        0x2 /home/vladimir/Documentos/SOFTWARE/arduino/BluePill/primeros_ejemplos/Thermocouple/build/core/core.a(cxxabi-compat.cpp.o)
 .text          0x0000000000000000        0x0 /home/vladimir/Documentos/SOFTWARE/arduino/BluePill/primeros_ejemplos/Thermocouple/build/core/core.a(main.cpp.o)
 .data          0x0000000000000000        0x0 /home/vladimir/Documentos/SOFTWARE/arduino/BluePill/primeros_ejemplos/Thermocouple/build/core/core.a(main.cpp.o)
 .bss           0x0000000000000000        0x0 /home/vladimir/Documentos/SOFTWARE/arduino/BluePill/primeros_ejemplos/Thermocouple/build/core/core.a(main.cpp.o)
 .group         0x0000000000000000        0x8 /home/vladimir/Documentos/SOFTWARE/arduino/BluePill/primeros_ejemplos/Thermocouple/build/core/core.a(usb_serial.cpp.o)
 .text          0x0000000000000000        0x0 /home/vladimir/Documentos/SOFTWARE/arduino/BluePill/primeros_ejemplos/Thermocouple/build/core/core.a(usb_serial.cpp.o)
 .data          0x0000000000000000        0x0 /home/vladimir/Documentos/SOFTWARE/arduino/BluePill/primeros_ejemplos/Thermocouple/build/core/core.a(usb_serial.cpp.o)
 .bss           0x0000000000000000        0x0 /home/vladimir/Documentos/SOFTWARE/arduino/BluePill/primeros_ejemplos/Thermocouple/build/core/core.a(usb_serial.cpp.o)
 .text._ZN9USBSerial5beginEm
                0x0000000000000000       0x10 /home/vladimir/Documentos/SOFTWARE/arduino/BluePill/primeros_ejemplos/Thermocouple/build/core/core.a(usb_serial.cpp.o)
 .text._ZN9USBSerial5beginEmh
                0x0000000000000000       0x18 /home/vladimir/Documentos/SOFTWARE/arduino/BluePill/primeros_ejemplos/Thermocouple/build/core/core.a(usb_serial.cpp.o)
 .text._ZN9USBSerial3endEv
                0x0000000000000000       0x20 /home/vladimir/Documentos/SOFTWARE/arduino/BluePill/primeros_ejemplos/Thermocouple/build/core/core.a(usb_serial.cpp.o)
 .text._ZN9USBSerial17availableForWriteEv
                0x0000000000000000        0x4 /home/vladimir/Documentos/SOFTWARE/arduino/BluePill/primeros_ejemplos/Thermocouple/build/core/core.a(usb_serial.cpp.o)
 .text._ZN9USBSerial9readBytesEPcRKj
                0x0000000000000000       0x40 /home/vladimir/Documentos/SOFTWARE/arduino/BluePill/primeros_ejemplos/Thermocouple/build/core/core.a(usb_serial.cpp.o)
 .text._ZN9USBSerial7pendingEv
                0x0000000000000000        0xa /home/vladimir/Documentos/SOFTWARE/arduino/BluePill/primeros_ejemplos/Thermocouple/build/core/core.a(usb_serial.cpp.o)
 .text._ZN9USBSerial6getDTREv
                0x0000000000000000        0x4 /home/vladimir/Documentos/SOFTWARE/arduino/BluePill/primeros_ejemplos/Thermocouple/build/core/core.a(usb_serial.cpp.o)
 .text._ZN9USBSerial6getRTSEv
                0x0000000000000000        0x4 /home/vladimir/Documentos/SOFTWARE/arduino/BluePill/primeros_ejemplos/Thermocouple/build/core/core.a(usb_serial.cpp.o)
 .text._ZN9USBSerialcvbEv
                0x0000000000000000       0x20 /home/vladimir/Documentos/SOFTWARE/arduino/BluePill/primeros_ejemplos/Thermocouple/build/core/core.a(usb_serial.cpp.o)
 .text._ZN9USBSerial16enableBlockingTxEv
                0x0000000000000000        0xc /home/vladimir/Documentos/SOFTWARE/arduino/BluePill/primeros_ejemplos/Thermocouple/build/core/core.a(usb_serial.cpp.o)
 .text._ZN9USBSerial17disableBlockingTxEv
                0x0000000000000000        0xc /home/vladimir/Documentos/SOFTWARE/arduino/BluePill/primeros_ejemplos/Thermocouple/build/core/core.a(usb_serial.cpp.o)
 .rodata._ZTV6Stream
                0x0000000000000000       0x28 /home/vladimir/Documentos/SOFTWARE/arduino/BluePill/primeros_ejemplos/Thermocouple/build/core/core.a(usb_serial.cpp.o)
 .text          0x0000000000000000        0x0 /home/vladimir/Documentos/SOFTWARE/arduino/BluePill/primeros_ejemplos/Thermocouple/build/core/core.a(wirish_digital.cpp.o)
 .data          0x0000000000000000        0x0 /home/vladimir/Documentos/SOFTWARE/arduino/BluePill/primeros_ejemplos/Thermocouple/build/core/core.a(wirish_digital.cpp.o)
 .bss           0x0000000000000000        0x0 /home/vladimir/Documentos/SOFTWARE/arduino/BluePill/primeros_ejemplos/Thermocouple/build/core/core.a(wirish_digital.cpp.o)
 .text          0x0000000000000000        0x0 /home/vladimir/Documentos/SOFTWARE/arduino/BluePill/primeros_ejemplos/Thermocouple/build/core/core.a(wirish_time.cpp.o)
 .data          0x0000000000000000        0x0 /home/vladimir/Documentos/SOFTWARE/arduino/BluePill/primeros_ejemplos/Thermocouple/build/core/core.a(wirish_time.cpp.o)
 .bss           0x0000000000000000        0x0 /home/vladimir/Documentos/SOFTWARE/arduino/BluePill/primeros_ejemplos/Thermocouple/build/core/core.a(wirish_time.cpp.o)
 .text._Z17delayMicrosecondsm
                0x0000000000000000       0x10 /home/vladimir/Documentos/SOFTWARE/arduino/BluePill/primeros_ejemplos/Thermocouple/build/core/core.a(wirish_time.cpp.o)
 .text          0x0000000000000000        0x0 /home/vladimir/Documentos/SOFTWARE/arduino/BluePill/primeros_ejemplos/Thermocouple/build/core/core.a(wirish_digital_f1.cpp.o)
 .data          0x0000000000000000        0x0 /home/vladimir/Documentos/SOFTWARE/arduino/BluePill/primeros_ejemplos/Thermocouple/build/core/core.a(wirish_digital_f1.cpp.o)
 .bss           0x0000000000000000        0x0 /home/vladimir/Documentos/SOFTWARE/arduino/BluePill/primeros_ejemplos/Thermocouple/build/core/core.a(wirish_digital_f1.cpp.o)
 .text          0x0000000000000000        0x0 /home/vladimir/Documentos/SOFTWARE/arduino/BluePill/primeros_ejemplos/Thermocouple/build/core/core.a(hooks.c.o)
 .data          0x0000000000000000        0x0 /home/vladimir/Documentos/SOFTWARE/arduino/BluePill/primeros_ejemplos/Thermocouple/build/core/core.a(hooks.c.o)
 .bss           0x0000000000000000        0x0 /home/vladimir/Documentos/SOFTWARE/arduino/BluePill/primeros_ejemplos/Thermocouple/build/core/core.a(hooks.c.o)
 .text          0x0000000000000000        0x0 /home/vladimir/Documentos/SOFTWARE/arduino/BluePill/primeros_ejemplos/Thermocouple/build/core/core.a(bkp_f1.c.o)
 .data          0x0000000000000000        0x0 /home/vladimir/Documentos/SOFTWARE/arduino/BluePill/primeros_ejemplos/Thermocouple/build/core/core.a(bkp_f1.c.o)
 .bss           0x0000000000000000        0x0 /home/vladimir/Documentos/SOFTWARE/arduino/BluePill/primeros_ejemplos/Thermocouple/build/core/core.a(bkp_f1.c.o)
 .text.bkp_read
                0x0000000000000000       0x1c /home/vladimir/Documentos/SOFTWARE/arduino/BluePill/primeros_ejemplos/Thermocouple/build/core/core.a(bkp_f1.c.o)
 .data.bkp      0x0000000000000000        0x4 /home/vladimir/Documentos/SOFTWARE/arduino/BluePill/primeros_ejemplos/Thermocouple/build/core/core.a(bkp_f1.c.o)
 .data.BKP      0x0000000000000000        0x4 /home/vladimir/Documentos/SOFTWARE/arduino/BluePill/primeros_ejemplos/Thermocouple/build/core/core.a(bkp_f1.c.o)
 .text          0x0000000000000000        0x0 /home/vladimir/Documentos/SOFTWARE/arduino/BluePill/primeros_ejemplos/Thermocouple/build/core/core.a(dma.c.o)
 .data          0x0000000000000000        0x0 /home/vladimir/Documentos/SOFTWARE/arduino/BluePill/primeros_ejemplos/Thermocouple/build/core/core.a(dma.c.o)
 .bss           0x0000000000000000        0x0 /home/vladimir/Documentos/SOFTWARE/arduino/BluePill/primeros_ejemplos/Thermocouple/build/core/core.a(dma.c.o)
 .text.dma_init
                0x0000000000000000        0x6 /home/vladimir/Documentos/SOFTWARE/arduino/BluePill/primeros_ejemplos/Thermocouple/build/core/core.a(dma.c.o)
 .text._dma_addr_type
                0x0000000000000000       0x28 /home/vladimir/Documentos/SOFTWARE/arduino/BluePill/primeros_ejemplos/Thermocouple/build/core/core.a(dma.c.o)
 .text          0x0000000000000000        0x0 /home/vladimir/Documentos/SOFTWARE/arduino/BluePill/primeros_ejemplos/Thermocouple/build/core/core.a(gpio.c.o)
 .data          0x0000000000000000        0x0 /home/vladimir/Documentos/SOFTWARE/arduino/BluePill/primeros_ejemplos/Thermocouple/build/core/core.a(gpio.c.o)
 .bss           0x0000000000000000        0x0 /home/vladimir/Documentos/SOFTWARE/arduino/BluePill/primeros_ejemplos/Thermocouple/build/core/core.a(gpio.c.o)
 .text          0x0000000000000000        0x0 /home/vladimir/Documentos/SOFTWARE/arduino/BluePill/primeros_ejemplos/Thermocouple/build/core/core.a(i2c.c.o)
 .data          0x0000000000000000        0x0 /home/vladimir/Documentos/SOFTWARE/arduino/BluePill/primeros_ejemplos/Thermocouple/build/core/core.a(i2c.c.o)
 .bss           0x0000000000000000        0x0 /home/vladimir/Documentos/SOFTWARE/arduino/BluePill/primeros_ejemplos/Thermocouple/build/core/core.a(i2c.c.o)
 .text.delay_us.part.0.constprop.6
                0x0000000000000000        0xa /home/vladimir/Documentos/SOFTWARE/arduino/BluePill/primeros_ejemplos/Thermocouple/build/core/core.a(i2c.c.o)
 .text.i2c_bus_reset
                0x0000000000000000       0xb2 /home/vladimir/Documentos/SOFTWARE/arduino/BluePill/primeros_ejemplos/Thermocouple/build/core/core.a(i2c.c.o)
 .text.i2c_init
                0x0000000000000000       0x18 /home/vladimir/Documentos/SOFTWARE/arduino/BluePill/primeros_ejemplos/Thermocouple/build/core/core.a(i2c.c.o)
 .text.i2c_master_enable
                0x0000000000000000       0xe0 /home/vladimir/Documentos/SOFTWARE/arduino/BluePill/primeros_ejemplos/Thermocouple/build/core/core.a(i2c.c.o)
 .text.i2c_master_xfer
                0x0000000000000000       0x5c /home/vladimir/Documentos/SOFTWARE/arduino/BluePill/primeros_ejemplos/Thermocouple/build/core/core.a(i2c.c.o)
 .text          0x0000000000000000        0x0 /home/vladimir/Documentos/SOFTWARE/arduino/BluePill/primeros_ejemplos/Thermocouple/build/core/core.a(usart.c.o)
 .data          0x0000000000000000        0x0 /home/vladimir/Documentos/SOFTWARE/arduino/BluePill/primeros_ejemplos/Thermocouple/build/core/core.a(usart.c.o)
 .bss           0x0000000000000000        0x0 /home/vladimir/Documentos/SOFTWARE/arduino/BluePill/primeros_ejemplos/Thermocouple/build/core/core.a(usart.c.o)
 .text.usart_init
                0x0000000000000000       0x4c /home/vladimir/Documentos/SOFTWARE/arduino/BluePill/primeros_ejemplos/Thermocouple/build/core/core.a(usart.c.o)
 .text.usart_enable
                0x0000000000000000       0x14 /home/vladimir/Documentos/SOFTWARE/arduino/BluePill/primeros_ejemplos/Thermocouple/build/core/core.a(usart.c.o)
 .text.usart_disable
                0x0000000000000000       0x38 /home/vladimir/Documentos/SOFTWARE/arduino/BluePill/primeros_ejemplos/Thermocouple/build/core/core.a(usart.c.o)
 .text.usart_rx
                0x0000000000000000       0x58 /home/vladimir/Documentos/SOFTWARE/arduino/BluePill/primeros_ejemplos/Thermocouple/build/core/core.a(usart.c.o)
 .text.usart_putudec
                0x0000000000000000       0x44 /home/vladimir/Documentos/SOFTWARE/arduino/BluePill/primeros_ejemplos/Thermocouple/build/core/core.a(usart.c.o)
 .data          0x0000000000000000        0x0 /home/vladimir/.arduino15/packages/arduino/tools/arm-none-eabi-gcc/4.8.3-2014q1/bin/../lib/gcc/arm-none-eabi/4.8.3/armv7-m/libgcc.a(_arm_addsubdf3.o)
 .bss           0x0000000000000000        0x0 /home/vladimir/.arduino15/packages/arduino/tools/arm-none-eabi-gcc/4.8.3-2014q1/bin/../lib/gcc/arm-none-eabi/4.8.3/armv7-m/libgcc.a(_arm_addsubdf3.o)
 .data          0x0000000000000000        0x0 /home/vladimir/.arduino15/packages/arduino/tools/arm-none-eabi-gcc/4.8.3-2014q1/bin/../lib/gcc/arm-none-eabi/4.8.3/armv7-m/libgcc.a(_arm_muldivdf3.o)
 .bss           0x0000000000000000        0x0 /home/vladimir/.arduino15/packages/arduino/tools/arm-none-eabi-gcc/4.8.3-2014q1/bin/../lib/gcc/arm-none-eabi/4.8.3/armv7-m/libgcc.a(_arm_muldivdf3.o)
 .text          0x0000000000000000      0x110 /home/vladimir/.arduino15/packages/arduino/tools/arm-none-eabi-gcc/4.8.3-2014q1/bin/../lib/gcc/arm-none-eabi/4.8.3/armv7-m/libgcc.a(_arm_cmpdf2.o)
 .data          0x0000000000000000        0x0 /home/vladimir/.arduino15/packages/arduino/tools/arm-none-eabi-gcc/4.8.3-2014q1/bin/../lib/gcc/arm-none-eabi/4.8.3/armv7-m/libgcc.a(_arm_cmpdf2.o)
 .bss           0x0000000000000000        0x0 /home/vladimir/.arduino15/packages/arduino/tools/arm-none-eabi-gcc/4.8.3-2014q1/bin/../lib/gcc/arm-none-eabi/4.8.3/armv7-m/libgcc.a(_arm_cmpdf2.o)
 .text          0x0000000000000000       0x50 /home/vladimir/.arduino15/packages/arduino/tools/arm-none-eabi-gcc/4.8.3-2014q1/bin/../lib/gcc/arm-none-eabi/4.8.3/armv7-m/libgcc.a(_arm_fixdfsi.o)
 .data          0x0000000000000000        0x0 /home/vladimir/.arduino15/packages/arduino/tools/arm-none-eabi-gcc/4.8.3-2014q1/bin/../lib/gcc/arm-none-eabi/4.8.3/armv7-m/libgcc.a(_arm_fixdfsi.o)
 .bss           0x0000000000000000        0x0 /home/vladimir/.arduino15/packages/arduino/tools/arm-none-eabi-gcc/4.8.3-2014q1/bin/../lib/gcc/arm-none-eabi/4.8.3/armv7-m/libgcc.a(_arm_fixdfsi.o)
 .data          0x0000000000000000        0x0 /home/vladimir/.arduino15/packages/arduino/tools/arm-none-eabi-gcc/4.8.3-2014q1/bin/../lib/gcc/arm-none-eabi/4.8.3/armv7-m/libgcc.a(_arm_truncdfsf2.o)
 .bss           0x0000000000000000        0x0 /home/vladimir/.arduino15/packages/arduino/tools/arm-none-eabi-gcc/4.8.3-2014q1/bin/../lib/gcc/arm-none-eabi/4.8.3/armv7-m/libgcc.a(_arm_truncdfsf2.o)
 .data          0x0000000000000000        0x0 /home/vladimir/.arduino15/packages/arduino/tools/arm-none-eabi-gcc/4.8.3-2014q1/bin/../lib/gcc/arm-none-eabi/4.8.3/armv7-m/libgcc.a(_arm_muldivsf3.o)
 .bss           0x0000000000000000        0x0 /home/vladimir/.arduino15/packages/arduino/tools/arm-none-eabi-gcc/4.8.3-2014q1/bin/../lib/gcc/arm-none-eabi/4.8.3/armv7-m/libgcc.a(_arm_muldivsf3.o)
 .text          0x0000000000000000       0x2c /home/vladimir/.arduino15/packages/arduino/tools/arm-none-eabi-gcc/4.8.3-2014q1/bin/../lib/gcc/arm-none-eabi/4.8.3/armv7-m/libgcc.a(_aeabi_uldivmod.o)
 .data          0x0000000000000000        0x0 /home/vladimir/.arduino15/packages/arduino/tools/arm-none-eabi-gcc/4.8.3-2014q1/bin/../lib/gcc/arm-none-eabi/4.8.3/armv7-m/libgcc.a(_aeabi_uldivmod.o)
 .bss           0x0000000000000000        0x0 /home/vladimir/.arduino15/packages/arduino/tools/arm-none-eabi-gcc/4.8.3-2014q1/bin/../lib/gcc/arm-none-eabi/4.8.3/armv7-m/libgcc.a(_aeabi_uldivmod.o)
 .text          0x0000000000000000       0x30 /home/vladimir/.arduino15/packages/arduino/tools/arm-none-eabi-gcc/4.8.3-2014q1/bin/../lib/gcc/arm-none-eabi/4.8.3/armv7-m/libgcc.a(_fixdfdi.o)
 .data          0x0000000000000000        0x0 /home/vladimir/.arduino15/packages/arduino/tools/arm-none-eabi-gcc/4.8.3-2014q1/bin/../lib/gcc/arm-none-eabi/4.8.3/armv7-m/libgcc.a(_fixdfdi.o)
 .bss           0x0000000000000000        0x0 /home/vladimir/.arduino15/packages/arduino/tools/arm-none-eabi-gcc/4.8.3-2014q1/bin/../lib/gcc/arm-none-eabi/4.8.3/armv7-m/libgcc.a(_fixdfdi.o)
 .text          0x0000000000000000       0x44 /home/vladimir/.arduino15/packages/arduino/tools/arm-none-eabi-gcc/4.8.3-2014q1/bin/../lib/gcc/arm-none-eabi/4.8.3/armv7-m/libgcc.a(_fixunsdfdi.o)
 .data          0x0000000000000000        0x0 /home/vladimir/.arduino15/packages/arduino/tools/arm-none-eabi-gcc/4.8.3-2014q1/bin/../lib/gcc/arm-none-eabi/4.8.3/armv7-m/libgcc.a(_fixunsdfdi.o)
 .bss           0x0000000000000000        0x0 /home/vladimir/.arduino15/packages/arduino/tools/arm-none-eabi-gcc/4.8.3-2014q1/bin/../lib/gcc/arm-none-eabi/4.8.3/armv7-m/libgcc.a(_fixunsdfdi.o)
 .text          0x0000000000000000       0x60 /home/vladimir/.arduino15/packages/arduino/tools/arm-none-eabi-gcc/4.8.3-2014q1/bin/../lib/gcc/arm-none-eabi/4.8.3/armv7-m/libgcc.a(bpabi.o)
 .data          0x0000000000000000        0x0 /home/vladimir/.arduino15/packages/arduino/tools/arm-none-eabi-gcc/4.8.3-2014q1/bin/../lib/gcc/arm-none-eabi/4.8.3/armv7-m/libgcc.a(bpabi.o)
 .bss           0x0000000000000000        0x0 /home/vladimir/.arduino15/packages/arduino/tools/arm-none-eabi-gcc/4.8.3-2014q1/bin/../lib/gcc/arm-none-eabi/4.8.3/armv7-m/libgcc.a(bpabi.o)
 .text          0x0000000000000000        0x4 /home/vladimir/.arduino15/packages/arduino/tools/arm-none-eabi-gcc/4.8.3-2014q1/bin/../lib/gcc/arm-none-eabi/4.8.3/armv7-m/libgcc.a(_dvmd_tls.o)
 .data          0x0000000000000000        0x0 /home/vladimir/.arduino15/packages/arduino/tools/arm-none-eabi-gcc/4.8.3-2014q1/bin/../lib/gcc/arm-none-eabi/4.8.3/armv7-m/libgcc.a(_dvmd_tls.o)
 .bss           0x0000000000000000        0x0 /home/vladimir/.arduino15/packages/arduino/tools/arm-none-eabi-gcc/4.8.3-2014q1/bin/../lib/gcc/arm-none-eabi/4.8.3/armv7-m/libgcc.a(_dvmd_tls.o)
 .text          0x0000000000000000       0x40 /home/vladimir/.arduino15/packages/arduino/tools/arm-none-eabi-gcc/4.8.3-2014q1/bin/../lib/gcc/arm-none-eabi/4.8.3/armv7-m/libgcc.a(_arm_fixunsdfsi.o)
 .data          0x0000000000000000        0x0 /home/vladimir/.arduino15/packages/arduino/tools/arm-none-eabi-gcc/4.8.3-2014q1/bin/../lib/gcc/arm-none-eabi/4.8.3/armv7-m/libgcc.a(_arm_fixunsdfsi.o)
 .bss           0x0000000000000000        0x0 /home/vladimir/.arduino15/packages/arduino/tools/arm-none-eabi-gcc/4.8.3-2014q1/bin/../lib/gcc/arm-none-eabi/4.8.3/armv7-m/libgcc.a(_arm_fixunsdfsi.o)
 .text          0x0000000000000000      0x2a0 /home/vladimir/.arduino15/packages/arduino/tools/arm-none-eabi-gcc/4.8.3-2014q1/bin/../lib/gcc/arm-none-eabi/4.8.3/armv7-m/libgcc.a(_divdi3.o)
 .data          0x0000000000000000        0x0 /home/vladimir/.arduino15/packages/arduino/tools/arm-none-eabi-gcc/4.8.3-2014q1/bin/../lib/gcc/arm-none-eabi/4.8.3/armv7-m/libgcc.a(_divdi3.o)
 .bss           0x0000000000000000        0x0 /home/vladimir/.arduino15/packages/arduino/tools/arm-none-eabi-gcc/4.8.3-2014q1/bin/../lib/gcc/arm-none-eabi/4.8.3/armv7-m/libgcc.a(_divdi3.o)
 .ARM.extab     0x0000000000000000        0x0 /home/vladimir/.arduino15/packages/arduino/tools/arm-none-eabi-gcc/4.8.3-2014q1/bin/../lib/gcc/arm-none-eabi/4.8.3/armv7-m/libgcc.a(_divdi3.o)
 .ARM.exidx     0x0000000000000000        0x8 /home/vladimir/.arduino15/packages/arduino/tools/arm-none-eabi-gcc/4.8.3-2014q1/bin/../lib/gcc/arm-none-eabi/4.8.3/armv7-m/libgcc.a(_divdi3.o)
 .text          0x0000000000000000      0x290 /home/vladimir/.arduino15/packages/arduino/tools/arm-none-eabi-gcc/4.8.3-2014q1/bin/../lib/gcc/arm-none-eabi/4.8.3/armv7-m/libgcc.a(_udivdi3.o)
 .data          0x0000000000000000        0x0 /home/vladimir/.arduino15/packages/arduino/tools/arm-none-eabi-gcc/4.8.3-2014q1/bin/../lib/gcc/arm-none-eabi/4.8.3/armv7-m/libgcc.a(_udivdi3.o)
 .bss           0x0000000000000000        0x0 /home/vladimir/.arduino15/packages/arduino/tools/arm-none-eabi-gcc/4.8.3-2014q1/bin/../lib/gcc/arm-none-eabi/4.8.3/armv7-m/libgcc.a(_udivdi3.o)
 .ARM.extab     0x0000000000000000        0x0 /home/vladimir/.arduino15/packages/arduino/tools/arm-none-eabi-gcc/4.8.3-2014q1/bin/../lib/gcc/arm-none-eabi/4.8.3/armv7-m/libgcc.a(_udivdi3.o)
 .ARM.exidx     0x0000000000000000        0x8 /home/vladimir/.arduino15/packages/arduino/tools/arm-none-eabi-gcc/4.8.3-2014q1/bin/../lib/gcc/arm-none-eabi/4.8.3/armv7-m/libgcc.a(_udivdi3.o)
 .text          0x0000000000000000        0x0 /home/vladimir/.arduino15/packages/arduino/tools/arm-none-eabi-gcc/4.8.3-2014q1/bin/../lib/gcc/arm-none-eabi/4.8.3/../../../../arm-none-eabi/lib/armv7-m/libc.a(lib_a-errno.o)
 .data          0x0000000000000000        0x0 /home/vladimir/.arduino15/packages/arduino/tools/arm-none-eabi-gcc/4.8.3-2014q1/bin/../lib/gcc/arm-none-eabi/4.8.3/../../../../arm-none-eabi/lib/armv7-m/libc.a(lib_a-errno.o)
 .bss           0x0000000000000000        0x0 /home/vladimir/.arduino15/packages/arduino/tools/arm-none-eabi-gcc/4.8.3-2014q1/bin/../lib/gcc/arm-none-eabi/4.8.3/../../../../arm-none-eabi/lib/armv7-m/libc.a(lib_a-errno.o)
 .text.__errno  0x0000000000000000        0xc /home/vladimir/.arduino15/packages/arduino/tools/arm-none-eabi-gcc/4.8.3-2014q1/bin/../lib/gcc/arm-none-eabi/4.8.3/../../../../arm-none-eabi/lib/armv7-m/libc.a(lib_a-errno.o)
 .text          0x0000000000000000        0x0 /home/vladimir/.arduino15/packages/arduino/tools/arm-none-eabi-gcc/4.8.3-2014q1/bin/../lib/gcc/arm-none-eabi/4.8.3/../../../../arm-none-eabi/lib/armv7-m/libc.a(lib_a-exit.o)
 .data          0x0000000000000000        0x0 /home/vladimir/.arduino15/packages/arduino/tools/arm-none-eabi-gcc/4.8.3-2014q1/bin/../lib/gcc/arm-none-eabi/4.8.3/../../../../arm-none-eabi/lib/armv7-m/libc.a(lib_a-exit.o)
 .bss           0x0000000000000000        0x0 /home/vladimir/.arduino15/packages/arduino/tools/arm-none-eabi-gcc/4.8.3-2014q1/bin/../lib/gcc/arm-none-eabi/4.8.3/../../../../arm-none-eabi/lib/armv7-m/libc.a(lib_a-exit.o)
 .text          0x0000000000000000        0x0 /home/vladimir/.arduino15/packages/arduino/tools/arm-none-eabi-gcc/4.8.3-2014q1/bin/../lib/gcc/arm-none-eabi/4.8.3/../../../../arm-none-eabi/lib/armv7-m/libc.a(lib_a-impure.o)
 .data          0x0000000000000000        0x0 /home/vladimir/.arduino15/packages/arduino/tools/arm-none-eabi-gcc/4.8.3-2014q1/bin/../lib/gcc/arm-none-eabi/4.8.3/../../../../arm-none-eabi/lib/armv7-m/libc.a(lib_a-impure.o)
 .bss           0x0000000000000000        0x0 /home/vladimir/.arduino15/packages/arduino/tools/arm-none-eabi-gcc/4.8.3-2014q1/bin/../lib/gcc/arm-none-eabi/4.8.3/../../../../arm-none-eabi/lib/armv7-m/libc.a(lib_a-impure.o)
 .data._impure_ptr
                0x0000000000000000        0x4 /home/vladimir/.arduino15/packages/arduino/tools/arm-none-eabi-gcc/4.8.3-2014q1/bin/../lib/gcc/arm-none-eabi/4.8.3/../../../../arm-none-eabi/lib/armv7-m/libc.a(lib_a-impure.o)
 .text          0x0000000000000000        0x0 /home/vladimir/.arduino15/packages/arduino/tools/arm-none-eabi-gcc/4.8.3-2014q1/bin/../lib/gcc/arm-none-eabi/4.8.3/../../../../arm-none-eabi/lib/armv7-m/libc.a(lib_a-init.o)
 .data          0x0000000000000000        0x0 /home/vladimir/.arduino15/packages/arduino/tools/arm-none-eabi-gcc/4.8.3-2014q1/bin/../lib/gcc/arm-none-eabi/4.8.3/../../../../arm-none-eabi/lib/armv7-m/libc.a(lib_a-init.o)
 .bss           0x0000000000000000        0x0 /home/vladimir/.arduino15/packages/arduino/tools/arm-none-eabi-gcc/4.8.3-2014q1/bin/../lib/gcc/arm-none-eabi/4.8.3/../../../../arm-none-eabi/lib/armv7-m/libc.a(lib_a-init.o)
 .text          0x0000000000000000        0x0 /home/vladimir/.arduino15/packages/arduino/tools/arm-none-eabi-gcc/4.8.3-2014q1/bin/../lib/gcc/arm-none-eabi/4.8.3/../../../../arm-none-eabi/lib/armv7-m/libc.a(lib_a-memset.o)
 .data          0x0000000000000000        0x0 /home/vladimir/.arduino15/packages/arduino/tools/arm-none-eabi-gcc/4.8.3-2014q1/bin/../lib/gcc/arm-none-eabi/4.8.3/../../../../arm-none-eabi/lib/armv7-m/libc.a(lib_a-memset.o)
 .bss           0x0000000000000000        0x0 /home/vladimir/.arduino15/packages/arduino/tools/arm-none-eabi-gcc/4.8.3-2014q1/bin/../lib/gcc/arm-none-eabi/4.8.3/../../../../arm-none-eabi/lib/armv7-m/libc.a(lib_a-memset.o)
 .text.memset   0x0000000000000000       0x94 /home/vladimir/.arduino15/packages/arduino/tools/arm-none-eabi-gcc/4.8.3-2014q1/bin/../lib/gcc/arm-none-eabi/4.8.3/../../../../arm-none-eabi/lib/armv7-m/libc.a(lib_a-memset.o)
 .text          0x0000000000000000        0x0 /home/vladimir/.arduino15/packages/arduino/tools/arm-none-eabi-gcc/4.8.3-2014q1/bin/../lib/gcc/arm-none-eabi/4.8.3/../../../../arm-none-eabi/lib/armv7-m/libc.a(lib_a-strlen.o)
 .data          0x0000000000000000        0x0 /home/vladimir/.arduino15/packages/arduino/tools/arm-none-eabi-gcc/4.8.3-2014q1/bin/../lib/gcc/arm-none-eabi/4.8.3/../../../../arm-none-eabi/lib/armv7-m/libc.a(lib_a-strlen.o)
 .bss           0x0000000000000000        0x0 /home/vladimir/.arduino15/packages/arduino/tools/arm-none-eabi-gcc/4.8.3-2014q1/bin/../lib/gcc/arm-none-eabi/4.8.3/../../../../arm-none-eabi/lib/armv7-m/libc.a(lib_a-strlen.o)
 .text          0x0000000000000000        0x0 /home/vladimir/.arduino15/packages/arduino/tools/arm-none-eabi-gcc/4.8.3-2014q1/bin/../lib/gcc/arm-none-eabi/4.8.3/../../../../arm-none-eabi/lib/armv7-m/libc.a(lib_a-__call_atexit.o)
 .data          0x0000000000000000        0x0 /home/vladimir/.arduino15/packages/arduino/tools/arm-none-eabi-gcc/4.8.3-2014q1/bin/../lib/gcc/arm-none-eabi/4.8.3/../../../../arm-none-eabi/lib/armv7-m/libc.a(lib_a-__call_atexit.o)
 .bss           0x0000000000000000        0x0 /home/vladimir/.arduino15/packages/arduino/tools/arm-none-eabi-gcc/4.8.3-2014q1/bin/../lib/gcc/arm-none-eabi/4.8.3/../../../../arm-none-eabi/lib/armv7-m/libc.a(lib_a-__call_atexit.o)
 .text          0x0000000000000000        0x0 /home/vladimir/.arduino15/packages/arduino/tools/arm-none-eabi-gcc/4.8.3-2014q1/bin/../lib/gcc/arm-none-eabi/4.8.3/../../../../arm-none-eabi/lib/armv7-m/libc.a(lib_a-atexit.o)
 .data          0x0000000000000000        0x0 /home/vladimir/.arduino15/packages/arduino/tools/arm-none-eabi-gcc/4.8.3-2014q1/bin/../lib/gcc/arm-none-eabi/4.8.3/../../../../arm-none-eabi/lib/armv7-m/libc.a(lib_a-atexit.o)
 .bss           0x0000000000000000        0x0 /home/vladimir/.arduino15/packages/arduino/tools/arm-none-eabi-gcc/4.8.3-2014q1/bin/../lib/gcc/arm-none-eabi/4.8.3/../../../../arm-none-eabi/lib/armv7-m/libc.a(lib_a-atexit.o)
 .text          0x0000000000000000        0x0 /home/vladimir/.arduino15/packages/arduino/tools/arm-none-eabi-gcc/4.8.3-2014q1/bin/../lib/gcc/arm-none-eabi/4.8.3/../../../../arm-none-eabi/lib/armv7-m/libc.a(lib_a-fini.o)
 .data          0x0000000000000000        0x0 /home/vladimir/.arduino15/packages/arduino/tools/arm-none-eabi-gcc/4.8.3-2014q1/bin/../lib/gcc/arm-none-eabi/4.8.3/../../../../arm-none-eabi/lib/armv7-m/libc.a(lib_a-fini.o)
 .bss           0x0000000000000000        0x0 /home/vladimir/.arduino15/packages/arduino/tools/arm-none-eabi-gcc/4.8.3-2014q1/bin/../lib/gcc/arm-none-eabi/4.8.3/../../../../arm-none-eabi/lib/armv7-m/libc.a(lib_a-fini.o)
 .text          0x0000000000000000        0x0 /home/vladimir/.arduino15/packages/arduino/tools/arm-none-eabi-gcc/4.8.3-2014q1/bin/../lib/gcc/arm-none-eabi/4.8.3/../../../../arm-none-eabi/lib/armv7-m/libc.a(lib_a-__atexit.o)
 .data          0x0000000000000000        0x0 /home/vladimir/.arduino15/packages/arduino/tools/arm-none-eabi-gcc/4.8.3-2014q1/bin/../lib/gcc/arm-none-eabi/4.8.3/../../../../arm-none-eabi/lib/armv7-m/libc.a(lib_a-__atexit.o)
 .bss           0x0000000000000000        0x0 /home/vladimir/.arduino15/packages/arduino/tools/arm-none-eabi-gcc/4.8.3-2014q1/bin/../lib/gcc/arm-none-eabi/4.8.3/../../../../arm-none-eabi/lib/armv7-m/libc.a(lib_a-__atexit.o)
 .text          0x0000000000000000        0x0 /home/vladimir/.arduino15/packages/arduino/tools/arm-none-eabi-gcc/4.8.3-2014q1/bin/../lib/gcc/arm-none-eabi/4.8.3/armv7-m/crtend.o
 .data          0x0000000000000000        0x0 /home/vladimir/.arduino15/packages/arduino/tools/arm-none-eabi-gcc/4.8.3-2014q1/bin/../lib/gcc/arm-none-eabi/4.8.3/armv7-m/crtend.o
 .bss           0x0000000000000000        0x0 /home/vladimir/.arduino15/packages/arduino/tools/arm-none-eabi-gcc/4.8.3-2014q1/bin/../lib/gcc/arm-none-eabi/4.8.3/armv7-m/crtend.o
 .eh_frame      0x0000000000000000        0x4 /home/vladimir/.arduino15/packages/arduino/tools/arm-none-eabi-gcc/4.8.3-2014q1/bin/../lib/gcc/arm-none-eabi/4.8.3/armv7-m/crtend.o
 .jcr           0x0000000000000000        0x4 /home/vladimir/.arduino15/packages/arduino/tools/arm-none-eabi-gcc/4.8.3-2014q1/bin/../lib/gcc/arm-none-eabi/4.8.3/armv7-m/crtend.o
 .text          0x0000000000000000        0x0 /home/vladimir/.arduino15/packages/arduino/tools/arm-none-eabi-gcc/4.8.3-2014q1/bin/../lib/gcc/arm-none-eabi/4.8.3/armv7-m/crtn.o
 .data          0x0000000000000000        0x0 /home/vladimir/.arduino15/packages/arduino/tools/arm-none-eabi-gcc/4.8.3-2014q1/bin/../lib/gcc/arm-none-eabi/4.8.3/armv7-m/crtn.o
 .bss           0x0000000000000000        0x0 /home/vladimir/.arduino15/packages/arduino/tools/arm-none-eabi-gcc/4.8.3-2014q1/bin/../lib/gcc/arm-none-eabi/4.8.3/armv7-m/crtn.o

Memory Configuration

Name             Origin             Length             Attributes
ram              0x0000000020000000 0x0000000000005000 xrw
rom              0x0000000008000000 0x0000000000020000 xr
*default*        0x0000000000000000 0xffffffffffffffff

Linker script and memory map

LOAD /home/vladimir/.arduino15/packages/arduino/tools/arm-none-eabi-gcc/4.8.3-2014q1/bin/../lib/gcc/arm-none-eabi/4.8.3/armv7-m/crti.o
LOAD /home/vladimir/.arduino15/packages/arduino/tools/arm-none-eabi-gcc/4.8.3-2014q1/bin/../lib/gcc/arm-none-eabi/4.8.3/armv7-m/crtbegin.o
LOAD /home/vladimir/.arduino15/packages/arduino/tools/arm-none-eabi-gcc/4.8.3-2014q1/bin/../lib/gcc/arm-none-eabi/4.8.3/../../../../arm-none-eabi/lib/armv7-m/crt0.o
LOAD /home/vladimir/.arduino15/packages/arduino/tools/arm-none-eabi-gcc/4.8.3-2014q1/bin/../lib/gcc/arm-none-eabi/4.8.3/armv7-m/libgcc.a
START GROUP
LOAD /home/vladimir/Documentos/SOFTWARE/arduino/BluePill/primeros_ejemplos/Thermocouple/build/sketch/Thermocouple.ino.cpp.o
LOAD /home/vladimir/Documentos/SOFTWARE/arduino/BluePill/primeros_ejemplos/Thermocouple/build/libraries/MAX6675_library-1.0.1/max6675.cpp.o
LOAD /home/vladimir/Documentos/SOFTWARE/arduino/BluePill/primeros_ejemplos/Thermocouple/build/core/wirish/start.S.o
LOAD /home/vladimir/Documentos/SOFTWARE/arduino/BluePill/primeros_ejemplos/Thermocouple/build/core/wirish/start_c.c.o
LOAD /home/vladimir/Documentos/SOFTWARE/arduino/BluePill/primeros_ejemplos/Thermocouple/build/core/wirish/syscalls.c.o
LOAD /home/vladimir/Documentos/SOFTWARE/arduino/BluePill/primeros_ejemplos/Thermocouple/build/core/board.cpp.o
LOAD /home/vladimir/Documentos/SOFTWARE/arduino/BluePill/primeros_ejemplos/Thermocouple/build/core/wirish/boards.cpp.o
LOAD /home/vladimir/Documentos/SOFTWARE/arduino/BluePill/primeros_ejemplos/Thermocouple/build/core/wirish/boards_setup.cpp.o
LOAD /home/vladimir/Documentos/SOFTWARE/arduino/BluePill/primeros_ejemplos/Thermocouple/build/core/core.a
END GROUP
LOAD /home/vladimir/.arduino15/packages/arduino/tools/arm-none-eabi-gcc/4.8.3-2014q1/bin/../lib/gcc/arm-none-eabi/4.8.3/../../../../arm-none-eabi/lib/armv7-m/libstdc++.a
LOAD /home/vladimir/.arduino15/packages/arduino/tools/arm-none-eabi-gcc/4.8.3-2014q1/bin/../lib/gcc/arm-none-eabi/4.8.3/../../../../arm-none-eabi/lib/armv7-m/libm.a
START GROUP
LOAD /home/vladimir/.arduino15/packages/arduino/tools/arm-none-eabi-gcc/4.8.3-2014q1/bin/../lib/gcc/arm-none-eabi/4.8.3/armv7-m/libgcc.a
LOAD /home/vladimir/.arduino15/packages/arduino/tools/arm-none-eabi-gcc/4.8.3-2014q1/bin/../lib/gcc/arm-none-eabi/4.8.3/../../../../arm-none-eabi/lib/armv7-m/libc.a
END GROUP
LOAD /home/vladimir/.arduino15/packages/arduino/tools/arm-none-eabi-gcc/4.8.3-2014q1/bin/../lib/gcc/arm-none-eabi/4.8.3/armv7-m/crtend.o
LOAD /home/vladimir/.arduino15/packages/arduino/tools/arm-none-eabi-gcc/4.8.3-2014q1/bin/../lib/gcc/arm-none-eabi/4.8.3/armv7-m/crtn.o
START GROUP
LOAD /home/vladimir/.arduino15/packages/arduino/tools/arm-none-eabi-gcc/4.8.3-2014q1/bin/../lib/gcc/arm-none-eabi/4.8.3/armv7-m/libgcc.a
LOAD /home/vladimir/.arduino15/packages/arduino/tools/arm-none-eabi-gcc/4.8.3-2014q1/bin/../lib/gcc/arm-none-eabi/4.8.3/../../../../arm-none-eabi/lib/armv7-m/libc.a
LOAD /home/vladimir/.arduino15/packages/arduino/tools/arm-none-eabi-gcc/4.8.3-2014q1/bin/../lib/gcc/arm-none-eabi/4.8.3/../../../../arm-none-eabi/lib/armv7-m/libm.a
END GROUP
START GROUP
LOAD /home/vladimir/.arduino15/packages/arduino/tools/arm-none-eabi-gcc/4.8.3-2014q1/bin/../lib/gcc/arm-none-eabi/4.8.3/../../../../arm-none-eabi/lib/armv7-m/libnosys.a
END GROUP
                0x0000000020005000                PROVIDE (__msp_init, (ORIGIN (ram) + 0x5000))
                0x0000000008000294                PROVIDE (__exc_reset, __start__)

.text           0x0000000008000000     0x387c
                0x0000000008000000                __text_start__ = .
 *(.stm32.interrupt_vector)
 .stm32.interrupt_vector
                0x0000000008000000       0xec /home/vladimir/Documentos/SOFTWARE/arduino/BluePill/primeros_ejemplos/Thermocouple/build/core/core.a(vector_table.S.o)
                0x0000000008000000                __stm32_vector_table
 *(.text .text.* .gnu.linkonce.t.*)
 .text          0x00000000080000ec       0x54 /home/vladimir/.arduino15/packages/arduino/tools/arm-none-eabi-gcc/4.8.3-2014q1/bin/../lib/gcc/arm-none-eabi/4.8.3/armv7-m/crtbegin.o
 .text._Z5setupv
                0x0000000008000140       0x20 /home/vladimir/Documentos/SOFTWARE/arduino/BluePill/primeros_ejemplos/Thermocouple/build/sketch/Thermocouple.ino.cpp.o
                0x0000000008000140                setup()
 .text._Z4loopv
                0x0000000008000160       0x50 /home/vladimir/Documentos/SOFTWARE/arduino/BluePill/primeros_ejemplos/Thermocouple/build/sketch/Thermocouple.ino.cpp.o
                0x0000000008000160                loop()
 .text.startup._GLOBAL__sub_I_thermoDO
                0x00000000080001b0       0x28 /home/vladimir/Documentos/SOFTWARE/arduino/BluePill/primeros_ejemplos/Thermocouple/build/sketch/Thermocouple.ino.cpp.o
 .text._ZN7MAX6675C2Eaaa
                0x00000000080001d8       0x2e /home/vladimir/Documentos/SOFTWARE/arduino/BluePill/primeros_ejemplos/Thermocouple/build/libraries/MAX6675_library-1.0.1/max6675.cpp.o
                0x00000000080001d8                MAX6675::MAX6675(signed char, signed char, signed char)
                0x00000000080001d8                MAX6675::MAX6675(signed char, signed char, signed char)
 .text._ZN7MAX66757spireadEv
                0x0000000008000206       0x3e /home/vladimir/Documentos/SOFTWARE/arduino/BluePill/primeros_ejemplos/Thermocouple/build/libraries/MAX6675_library-1.0.1/max6675.cpp.o
                0x0000000008000206                MAX6675::spiread()
 .text._ZN7MAX667511readCelsiusEv
                0x0000000008000244       0x50 /home/vladimir/Documentos/SOFTWARE/arduino/BluePill/primeros_ejemplos/Thermocouple/build/libraries/MAX6675_library-1.0.1/max6675.cpp.o
                0x0000000008000244                MAX6675::readCelsius()
 .text          0x0000000008000294       0x10 /home/vladimir/Documentos/SOFTWARE/arduino/BluePill/primeros_ejemplos/Thermocouple/build/core/wirish/start.S.o
                0x0000000008000294                __start__
 .text.start_c  0x00000000080002a4       0x64 /home/vladimir/Documentos/SOFTWARE/arduino/BluePill/primeros_ejemplos/Thermocouple/build/core/wirish/start_c.c.o
                0x00000000080002a4                start_c
 .text._exit    0x0000000008000308        0x2 /home/vladimir/Documentos/SOFTWARE/arduino/BluePill/primeros_ejemplos/Thermocouple/build/core/wirish/syscalls.c.o
                0x0000000008000308                _exit
 .text._Z9boardInitv
                0x000000000800030a        0x2 /home/vladimir/Documentos/SOFTWARE/arduino/BluePill/primeros_ejemplos/Thermocouple/build/core/board.cpp.o
                0x000000000800030a                boardInit()
 .text.startup._GLOBAL__sub_I__Z9boardInitv
                0x000000000800030c       0x48 /home/vladimir/Documentos/SOFTWARE/arduino/BluePill/primeros_ejemplos/Thermocouple/build/core/board.cpp.o
 .text._ZL18adc_default_configP7adc_dev
                0x0000000008000354       0x1c /home/vladimir/Documentos/SOFTWARE/arduino/BluePill/primeros_ejemplos/Thermocouple/build/core/wirish/boards.cpp.o
 .text._ZL20timer_default_configP9timer_dev
                0x0000000008000370       0x9e /home/vladimir/Documentos/SOFTWARE/arduino/BluePill/primeros_ejemplos/Thermocouple/build/core/wirish/boards.cpp.o
 *fill*         0x000000000800040e        0x2 
 .text._Z4initv
                0x0000000008000410       0xbc /home/vladimir/Documentos/SOFTWARE/arduino/BluePill/primeros_ejemplos/Thermocouple/build/core/wirish/boards.cpp.o
                0x0000000008000410                init()
 .text._ZN6wirish4priv15board_reset_pllEv
                0x00000000080004cc        0x2 /home/vladimir/Documentos/SOFTWARE/arduino/BluePill/primeros_ejemplos/Thermocouple/build/core/wirish/boards_setup.cpp.o
                0x00000000080004cc                wirish::priv::board_reset_pll()
 .text._ZN6wirish4priv28board_setup_clock_prescalersEv
                0x00000000080004ce       0x2e /home/vladimir/Documentos/SOFTWARE/arduino/BluePill/primeros_ejemplos/Thermocouple/build/core/wirish/boards_setup.cpp.o
                0x00000000080004ce                wirish::priv::board_setup_clock_prescalers()
 .text._ZN6wirish4priv16board_setup_gpioEv
                0x00000000080004fc        0x4 /home/vladimir/Documentos/SOFTWARE/arduino/BluePill/primeros_ejemplos/Thermocouple/build/core/wirish/boards_setup.cpp.o
                0x00000000080004fc                wirish::priv::board_setup_gpio()
 .text._ZN6wirish4priv15board_setup_usbEv
                0x0000000008000500       0x54 /home/vladimir/Documentos/SOFTWARE/arduino/BluePill/primeros_ejemplos/Thermocouple/build/core/wirish/boards_setup.cpp.o
                0x0000000008000500                wirish::priv::board_setup_usb()
 .text._ZN6wirish4priv11series_initEv
                0x0000000008000554        0x4 /home/vladimir/Documentos/SOFTWARE/arduino/BluePill/primeros_ejemplos/Thermocouple/build/core/wirish/boards_setup.cpp.o
                0x0000000008000554                wirish::priv::series_init()
 *fill*         0x0000000008000558        0x8 
 .text          0x0000000008000560       0x60 /home/vladimir/Documentos/SOFTWARE/arduino/BluePill/primeros_ejemplos/Thermocouple/build/core/core.a(exc.S.o)
                0x0000000008000560                __exc_nmi
                0x0000000008000564                __exc_hardfault
                0x0000000008000568                __exc_memmanage
                0x000000000800056c                __exc_busfault
                0x0000000008000570                __exc_usagefault
 .text          0x00000000080005c0        0x2 /home/vladimir/Documentos/SOFTWARE/arduino/BluePill/primeros_ejemplos/Thermocouple/build/core/core.a(isrs.S.o)
                0x00000000080005c0                __stm32reservedexception9
                0x00000000080005c0                __exc_debug_monitor
                0x00000000080005c0                __exc_svc
                0x00000000080005c0                __irq_can_rx1
                0x00000000080005c0                __irq_spi2
                0x00000000080005c0                __irq_can_sce
                0x00000000080005c0                __irq_pvd
                0x00000000080005c0                __irq_tamper
                0x00000000080005c0                __default_handler
                0x00000000080005c0                __irq_wwdg
                0x00000000080005c0                __stm32reservedexception10
                0x00000000080005c0                __irq_flash
                0x00000000080005c0                __stm32reservedexception13
                0x00000000080005c0                __irq_rtc
                0x00000000080005c0                __irq_spi1
                0x00000000080005c0                __stm32reservedexception7
                0x00000000080005c0                __irq_usb_hp_can_tx
                0x00000000080005c0                __irq_rtcalarm
                0x00000000080005c0                __stm32reservedexception8
                0x00000000080005c0                __exc_pendsv
                0x00000000080005c0                __irq_usbwakeup
                0x00000000080005c0                __irq_rcc
 .text.adc_init
                0x00000000080005c2       0x14 /home/vladimir/Documentos/SOFTWARE/arduino/BluePill/primeros_ejemplos/Thermocouple/build/core/core.a(adc.c.o)
                0x00000000080005c2                adc_init
 .text.adc_set_extsel
                0x00000000080005d6       0x12 /home/vladimir/Documentos/SOFTWARE/arduino/BluePill/primeros_ejemplos/Thermocouple/build/core/core.a(adc.c.o)
                0x00000000080005d6                adc_set_extsel
 .text.adc_set_sample_rate
                0x00000000080005e8       0x30 /home/vladimir/Documentos/SOFTWARE/arduino/BluePill/primeros_ejemplos/Thermocouple/build/core/core.a(adc.c.o)
                0x00000000080005e8                adc_set_sample_rate
 .text.__irq_adc
                0x0000000008000618       0x50 /home/vladimir/Documentos/SOFTWARE/arduino/BluePill/primeros_ejemplos/Thermocouple/build/core/core.a(adc_f1.c.o)
                0x0000000008000618                __irq_adc
 .text.adc_calibrate
                0x0000000008000668       0x24 /home/vladimir/Documentos/SOFTWARE/arduino/BluePill/primeros_ejemplos/Thermocouple/build/core/core.a(adc_f1.c.o)
                0x0000000008000668                adc_calibrate
 .text.adc_set_prescaler
                0x000000000800068c        0x8 /home/vladimir/Documentos/SOFTWARE/arduino/BluePill/primeros_ejemplos/Thermocouple/build/core/core.a(adc_f1.c.o)
                0x000000000800068c                adc_set_prescaler
 .text.adc_foreach
                0x0000000008000694       0x1c /home/vladimir/Documentos/SOFTWARE/arduino/BluePill/primeros_ejemplos/Thermocouple/build/core/core.a(adc_f1.c.o)
                0x0000000008000694                adc_foreach
 .text.adc_enable_single_swstart
                0x00000000080006b0       0x36 /home/vladimir/Documentos/SOFTWARE/arduino/BluePill/primeros_ejemplos/Thermocouple/build/core/core.a(adc_f1.c.o)
                0x00000000080006b0                adc_enable_single_swstart
 *fill*         0x00000000080006e6        0x2 
 .text.__irq_dma1_channel1
                0x00000000080006e8       0x18 /home/vladimir/Documentos/SOFTWARE/arduino/BluePill/primeros_ejemplos/Thermocouple/build/core/core.a(dma_f1.c.o)
                0x00000000080006e8                __irq_dma1_channel1
 .text.__irq_dma1_channel2
                0x0000000008000700       0x18 /home/vladimir/Documentos/SOFTWARE/arduino/BluePill/primeros_ejemplos/Thermocouple/build/core/core.a(dma_f1.c.o)
                0x0000000008000700                __irq_dma1_channel2
 .text.__irq_dma1_channel3
                0x0000000008000718       0x1c /home/vladimir/Documentos/SOFTWARE/arduino/BluePill/primeros_ejemplos/Thermocouple/build/core/core.a(dma_f1.c.o)
                0x0000000008000718                __irq_dma1_channel3
 .text.__irq_dma1_channel4
                0x0000000008000734       0x1c /home/vladimir/Documentos/SOFTWARE/arduino/BluePill/primeros_ejemplos/Thermocouple/build/core/core.a(dma_f1.c.o)
                0x0000000008000734                __irq_dma1_channel4
 .text.__irq_dma1_channel5
                0x0000000008000750       0x1c /home/vladimir/Documentos/SOFTWARE/arduino/BluePill/primeros_ejemplos/Thermocouple/build/core/core.a(dma_f1.c.o)
                0x0000000008000750                __irq_dma1_channel5
 .text.__irq_dma1_channel6
                0x000000000800076c       0x1c /home/vladimir/Documentos/SOFTWARE/arduino/BluePill/primeros_ejemplos/Thermocouple/build/core/core.a(dma_f1.c.o)
                0x000000000800076c                __irq_dma1_channel6
 .text.__irq_dma1_channel7
                0x0000000008000788       0x1c /home/vladimir/Documentos/SOFTWARE/arduino/BluePill/primeros_ejemplos/Thermocouple/build/core/core.a(dma_f1.c.o)
                0x0000000008000788                __irq_dma1_channel7
 .text.__irq_exti0
                0x00000000080007a4       0x20 /home/vladimir/Documentos/SOFTWARE/arduino/BluePill/primeros_ejemplos/Thermocouple/build/core/core.a(exti.c.o)
                0x00000000080007a4                __irq_exti0
 .text.__irq_exti1
                0x00000000080007c4       0x20 /home/vladimir/Documentos/SOFTWARE/arduino/BluePill/primeros_ejemplos/Thermocouple/build/core/core.a(exti.c.o)
                0x00000000080007c4                __irq_exti1
 .text.__irq_exti2
                0x00000000080007e4       0x20 /home/vladimir/Documentos/SOFTWARE/arduino/BluePill/primeros_ejemplos/Thermocouple/build/core/core.a(exti.c.o)
                0x00000000080007e4                __irq_exti2
 .text.__irq_exti3
                0x0000000008000804       0x20 /home/vladimir/Documentos/SOFTWARE/arduino/BluePill/primeros_ejemplos/Thermocouple/build/core/core.a(exti.c.o)
                0x0000000008000804                __irq_exti3
 .text.__irq_exti4
                0x0000000008000824       0x20 /home/vladimir/Documentos/SOFTWARE/arduino/BluePill/primeros_ejemplos/Thermocouple/build/core/core.a(exti.c.o)
                0x0000000008000824                __irq_exti4
 .text.__irq_exti9_5
                0x0000000008000844       0x44 /home/vladimir/Documentos/SOFTWARE/arduino/BluePill/primeros_ejemplos/Thermocouple/build/core/core.a(exti.c.o)
                0x0000000008000844                __irq_exti9_5
 .text.__irq_exti15_10
                0x0000000008000888       0x44 /home/vladimir/Documentos/SOFTWARE/arduino/BluePill/primeros_ejemplos/Thermocouple/build/core/core.a(exti.c.o)
                0x0000000008000888                __irq_exti15_10
 .text.flash_set_latency
                0x00000000080008cc       0x14 /home/vladimir/Documentos/SOFTWARE/arduino/BluePill/primeros_ejemplos/Thermocouple/build/core/core.a(flash.c.o)
                0x00000000080008cc                flash_set_latency
 .text.gpio_init_all
                0x00000000080008e0       0x30 /home/vladimir/Documentos/SOFTWARE/arduino/BluePill/primeros_ejemplos/Thermocouple/build/core/core.a(gpio_f1.c.o)
                0x00000000080008e0                gpio_init_all
 .text.gpio_set_mode
                0x0000000008000910       0x50 /home/vladimir/Documentos/SOFTWARE/arduino/BluePill/primeros_ejemplos/Thermocouple/build/core/core.a(gpio_f1.c.o)
                0x0000000008000910                gpio_set_mode
 .text.afio_init
                0x0000000008000960       0x12 /home/vladimir/Documentos/SOFTWARE/arduino/BluePill/primeros_ejemplos/Thermocouple/build/core/core.a(gpio_f1.c.o)
                0x0000000008000960                afio_init
 *fill*         0x0000000008000972        0x2 
 .text.__irq_i2c1_ev
                0x0000000008000974        0xc /home/vladimir/Documentos/SOFTWARE/arduino/BluePill/primeros_ejemplos/Thermocouple/build/core/core.a(i2c_f1.c.o)
                0x0000000008000974                __irq_i2c1_ev
 .text.__irq_i2c2_ev
                0x0000000008000980        0xc /home/vladimir/Documentos/SOFTWARE/arduino/BluePill/primeros_ejemplos/Thermocouple/build/core/core.a(i2c_f1.c.o)
                0x0000000008000980                __irq_i2c2_ev
 .text.__irq_i2c1_er
                0x000000000800098c        0xc /home/vladimir/Documentos/SOFTWARE/arduino/BluePill/primeros_ejemplos/Thermocouple/build/core/core.a(i2c_f1.c.o)
                0x000000000800098c                __irq_i2c1_er
 .text.__irq_i2c2_er
                0x0000000008000998        0xc /home/vladimir/Documentos/SOFTWARE/arduino/BluePill/primeros_ejemplos/Thermocouple/build/core/core.a(i2c_f1.c.o)
                0x0000000008000998                __irq_i2c2_er
 .text._i2c_irq_priority_fixup
                0x00000000080009a4       0x1c /home/vladimir/Documentos/SOFTWARE/arduino/BluePill/primeros_ejemplos/Thermocouple/build/core/core.a(i2c_f1.c.o)
                0x00000000080009a4                _i2c_irq_priority_fixup
 .text.nvic_irq_set_priority
                0x00000000080009c0       0x28 /home/vladimir/Documentos/SOFTWARE/arduino/BluePill/primeros_ejemplos/Thermocouple/build/core/core.a(nvic.c.o)
                0x00000000080009c0                nvic_irq_set_priority
 .text.nvic_init
                0x00000000080009e8       0x30 /home/vladimir/Documentos/SOFTWARE/arduino/BluePill/primeros_ejemplos/Thermocouple/build/core/core.a(nvic.c.o)
                0x00000000080009e8                nvic_init
 .text.nvic_sys_reset
                0x0000000008000a18       0x1c /home/vladimir/Documentos/SOFTWARE/arduino/BluePill/primeros_ejemplos/Thermocouple/build/core/core.a(nvic.c.o)
                0x0000000008000a18                nvic_sys_reset
 .text.rcc_dev_clk
                0x0000000008000a34        0xc /home/vladimir/Documentos/SOFTWARE/arduino/BluePill/primeros_ejemplos/Thermocouple/build/core/core.a(rcc.c.o)
                0x0000000008000a34                rcc_dev_clk
 .text.rcc_switch_sysclk
                0x0000000008000a40       0x20 /home/vladimir/Documentos/SOFTWARE/arduino/BluePill/primeros_ejemplos/Thermocouple/build/core/core.a(rcc.c.o)
                0x0000000008000a40                rcc_switch_sysclk
 .text.rcc_turn_on_clk
                0x0000000008000a60       0x1a /home/vladimir/Documentos/SOFTWARE/arduino/BluePill/primeros_ejemplos/Thermocouple/build/core/core.a(rcc.c.o)
                0x0000000008000a60                rcc_turn_on_clk
 .text.rcc_turn_off_clk
                0x0000000008000a7a       0x1c /home/vladimir/Documentos/SOFTWARE/arduino/BluePill/primeros_ejemplos/Thermocouple/build/core/core.a(rcc.c.o)
                0x0000000008000a7a                rcc_turn_off_clk
 .text.rcc_is_clk_ready
                0x0000000008000a96       0x18 /home/vladimir/Documentos/SOFTWARE/arduino/BluePill/primeros_ejemplos/Thermocouple/build/core/core.a(rcc.c.o)
                0x0000000008000a96                rcc_is_clk_ready
 *fill*         0x0000000008000aae        0x2 
 .text.rcc_configure_pll
                0x0000000008000ab0       0x18 /home/vladimir/Documentos/SOFTWARE/arduino/BluePill/primeros_ejemplos/Thermocouple/build/core/core.a(rcc_f1.c.o)
                0x0000000008000ab0                rcc_configure_pll
 .text.rcc_clk_enable
                0x0000000008000ac8       0x30 /home/vladimir/Documentos/SOFTWARE/arduino/BluePill/primeros_ejemplos/Thermocouple/build/core/core.a(rcc_f1.c.o)
                0x0000000008000ac8                rcc_clk_enable
 .text.rcc_reset_dev
                0x0000000008000af8       0x34 /home/vladimir/Documentos/SOFTWARE/arduino/BluePill/primeros_ejemplos/Thermocouple/build/core/core.a(rcc_f1.c.o)
                0x0000000008000af8                rcc_reset_dev
 .text.rcc_set_prescaler
                0x0000000008000b2c       0x20 /home/vladimir/Documentos/SOFTWARE/arduino/BluePill/primeros_ejemplos/Thermocouple/build/core/core.a(rcc_f1.c.o)
                0x0000000008000b2c                rcc_set_prescaler
 .text.rcc_clk_disable
                0x0000000008000b4c       0x30 /home/vladimir/Documentos/SOFTWARE/arduino/BluePill/primeros_ejemplos/Thermocouple/build/core/core.a(rcc_f1.c.o)
                0x0000000008000b4c                rcc_clk_disable
 .text.systick_init
                0x0000000008000b7c       0x10 /home/vladimir/Documentos/SOFTWARE/arduino/BluePill/primeros_ejemplos/Thermocouple/build/core/core.a(systick.c.o)
                0x0000000008000b7c                systick_init
 .text.__exc_systick
                0x0000000008000b8c       0x1c /home/vladimir/Documentos/SOFTWARE/arduino/BluePill/primeros_ejemplos/Thermocouple/build/core/core.a(systick.c.o)
                0x0000000008000b8c                __exc_systick
 .text.timer_oc_set_mode
                0x0000000008000ba8       0x3a /home/vladimir/Documentos/SOFTWARE/arduino/BluePill/primeros_ejemplos/Thermocouple/build/core/core.a(timer.c.o)
 .text.timer_cc_enable
                0x0000000008000be2       0x1c /home/vladimir/Documentos/SOFTWARE/arduino/BluePill/primeros_ejemplos/Thermocouple/build/core/core.a(timer.c.o)
 *fill*         0x0000000008000bfe        0x2 
 .text.timer_foreach
                0x0000000008000c00       0x28 /home/vladimir/Documentos/SOFTWARE/arduino/BluePill/primeros_ejemplos/Thermocouple/build/core/core.a(timer.c.o)
                0x0000000008000c00                timer_foreach
 .text.timer_init
                0x0000000008000c28       0x14 /home/vladimir/Documentos/SOFTWARE/arduino/BluePill/primeros_ejemplos/Thermocouple/build/core/core.a(timer.c.o)
                0x0000000008000c28                timer_init
 .text.timer_has_cc_channel
                0x0000000008000c3c       0x30 /home/vladimir/Documentos/SOFTWARE/arduino/BluePill/primeros_ejemplos/Thermocouple/build/core/core.a(timer.c.o)
                0x0000000008000c3c                timer_has_cc_channel
 .text.timer_detach_interrupt
                0x0000000008000c6c       0x1e /home/vladimir/Documentos/SOFTWARE/arduino/BluePill/primeros_ejemplos/Thermocouple/build/core/core.a(timer.c.o)
                0x0000000008000c6c                timer_detach_interrupt
 .text.input_capture_mode
                0x0000000008000c8a       0x1a /home/vladimir/Documentos/SOFTWARE/arduino/BluePill/primeros_ejemplos/Thermocouple/build/core/core.a(timer.c.o)
                0x0000000008000c8a                input_capture_mode
 .text.timer_set_mode
                0x0000000008000ca4       0x8c /home/vladimir/Documentos/SOFTWARE/arduino/BluePill/primeros_ejemplos/Thermocouple/build/core/core.a(timer.c.o)
                0x0000000008000ca4                timer_set_mode
 .text.__irq_tim1_brk
                0x0000000008000d30       0x24 /home/vladimir/Documentos/SOFTWARE/arduino/BluePill/primeros_ejemplos/Thermocouple/build/core/core.a(timer.c.o)
                0x0000000008000d30                __irq_tim1_brk
 .text.__irq_tim1_up
                0x0000000008000d54       0x24 /home/vladimir/Documentos/SOFTWARE/arduino/BluePill/primeros_ejemplos/Thermocouple/build/core/core.a(timer.c.o)
                0x0000000008000d54                __irq_tim1_up
 .text.__irq_tim1_trg_com
                0x0000000008000d78       0x38 /home/vladimir/Documentos/SOFTWARE/arduino/BluePill/primeros_ejemplos/Thermocouple/build/core/core.a(timer.c.o)
                0x0000000008000d78                __irq_tim1_trg_com
 .text.__irq_tim1_cc
                0x0000000008000db0       0x54 /home/vladimir/Documentos/SOFTWARE/arduino/BluePill/primeros_ejemplos/Thermocouple/build/core/core.a(timer.c.o)
                0x0000000008000db0                __irq_tim1_cc
 .text.__irq_tim2
                0x0000000008000e04       0x70 /home/vladimir/Documentos/SOFTWARE/arduino/BluePill/primeros_ejemplos/Thermocouple/build/core/core.a(timer.c.o)
                0x0000000008000e04                __irq_tim2
 .text.__irq_tim3
                0x0000000008000e74       0x70 /home/vladimir/Documentos/SOFTWARE/arduino/BluePill/primeros_ejemplos/Thermocouple/build/core/core.a(timer.c.o)
                0x0000000008000e74                __irq_tim3
 .text.__irq_tim4
                0x0000000008000ee4       0x70 /home/vladimir/Documentos/SOFTWARE/arduino/BluePill/primeros_ejemplos/Thermocouple/build/core/core.a(timer.c.o)
                0x0000000008000ee4                __irq_tim4
 .text.rb_remove
                0x0000000008000f54       0x24 /home/vladimir/Documentos/SOFTWARE/arduino/BluePill/primeros_ejemplos/Thermocouple/build/core/core.a(usart_f1.c.o)
 .text.rb_push_insert
                0x0000000008000f78       0x52 /home/vladimir/Documentos/SOFTWARE/arduino/BluePill/primeros_ejemplos/Thermocouple/build/core/core.a(usart_f1.c.o)
 *fill*         0x0000000008000fca        0x2 
 .text.__irq_usart1
                0x0000000008000fcc       0x54 /home/vladimir/Documentos/SOFTWARE/arduino/BluePill/primeros_ejemplos/Thermocouple/build/core/core.a(usart_f1.c.o)
                0x0000000008000fcc                __irq_usart1
 .text.__irq_usart2
                0x0000000008001020       0x54 /home/vladimir/Documentos/SOFTWARE/arduino/BluePill/primeros_ejemplos/Thermocouple/build/core/core.a(usart_f1.c.o)
                0x0000000008001020                __irq_usart2
 .text.__irq_usart3
                0x0000000008001074       0x54 /home/vladimir/Documentos/SOFTWARE/arduino/BluePill/primeros_ejemplos/Thermocouple/build/core/core.a(usart_f1.c.o)
                0x0000000008001074                __irq_usart3
 .text.throb    0x00000000080010c8       0x4c /home/vladimir/Documentos/SOFTWARE/arduino/BluePill/primeros_ejemplos/Thermocouple/build/core/core.a(util.c.o)
                0x00000000080010c8                throb
 .text.__error  0x0000000008001114       0x14 /home/vladimir/Documentos/SOFTWARE/arduino/BluePill/primeros_ejemplos/Thermocouple/build/core/core.a(util.c.o)
                0x0000000008001114                __error
 .text.usb_resume
                0x0000000008001128       0xb4 /home/vladimir/Documentos/SOFTWARE/arduino/BluePill/primeros_ejemplos/Thermocouple/build/core/core.a(usb.c.o)
 .text.usb_init_usblib
                0x00000000080011dc       0x48 /home/vladimir/Documentos/SOFTWARE/arduino/BluePill/primeros_ejemplos/Thermocouple/build/core/core.a(usb.c.o)
                0x00000000080011dc                usb_init_usblib
 .text.__irq_usb_lp_can_rx0
                0x0000000008001224      0x1c8 /home/vladimir/Documentos/SOFTWARE/arduino/BluePill/primeros_ejemplos/Thermocouple/build/core/core.a(usb.c.o)
                0x0000000008001224                __irq_usb_lp_can_rx0
 .text.usb_set_ep_rx_stat
                0x00000000080013ec       0x22 /home/vladimir/Documentos/SOFTWARE/arduino/BluePill/primeros_ejemplos/Thermocouple/build/core/core.a(usb_cdcacm.c.o)
 *fill*         0x000000000800140e        0x2 
 .text.vcomGetSetLineCoding
                0x0000000008001410       0x18 /home/vladimir/Documentos/SOFTWARE/arduino/BluePill/primeros_ejemplos/Thermocouple/build/core/core.a(usb_cdcacm.c.o)
 .text.usbDataSetup
                0x0000000008001428       0x54 /home/vladimir/Documentos/SOFTWARE/arduino/BluePill/primeros_ejemplos/Thermocouple/build/core/core.a(usb_cdcacm.c.o)
 .text.usbNoDataSetup
                0x000000000800147c       0x50 /home/vladimir/Documentos/SOFTWARE/arduino/BluePill/primeros_ejemplos/Thermocouple/build/core/core.a(usb_cdcacm.c.o)
 .text.usbGetInterfaceSetting
                0x00000000080014cc       0x10 /home/vladimir/Documentos/SOFTWARE/arduino/BluePill/primeros_ejemplos/Thermocouple/build/core/core.a(usb_cdcacm.c.o)
 .text.usbSetConfiguration
                0x00000000080014dc       0x1c /home/vladimir/Documentos/SOFTWARE/arduino/BluePill/primeros_ejemplos/Thermocouple/build/core/core.a(usb_cdcacm.c.o)
 .text.usbSetDeviceAddress
                0x00000000080014f8       0x10 /home/vladimir/Documentos/SOFTWARE/arduino/BluePill/primeros_ejemplos/Thermocouple/build/core/core.a(usb_cdcacm.c.o)
 .text.usbGetStringDescriptor
                0x0000000008001508       0x20 /home/vladimir/Documentos/SOFTWARE/arduino/BluePill/primeros_ejemplos/Thermocouple/build/core/core.a(usb_cdcacm.c.o)
 .text.usbGetConfigDescriptor
                0x0000000008001528        0xc /home/vladimir/Documentos/SOFTWARE/arduino/BluePill/primeros_ejemplos/Thermocouple/build/core/core.a(usb_cdcacm.c.o)
 .text.usbGetDeviceDescriptor
                0x0000000008001534        0xc /home/vladimir/Documentos/SOFTWARE/arduino/BluePill/primeros_ejemplos/Thermocouple/build/core/core.a(usb_cdcacm.c.o)
 .text.usbInit  0x0000000008001540       0x44 /home/vladimir/Documentos/SOFTWARE/arduino/BluePill/primeros_ejemplos/Thermocouple/build/core/core.a(usb_cdcacm.c.o)
 .text.vcomDataTxCb
                0x0000000008001584       0xa0 /home/vladimir/Documentos/SOFTWARE/arduino/BluePill/primeros_ejemplos/Thermocouple/build/core/core.a(usb_cdcacm.c.o)
 .text.usbReset
                0x0000000008001624      0x160 /home/vladimir/Documentos/SOFTWARE/arduino/BluePill/primeros_ejemplos/Thermocouple/build/core/core.a(usb_cdcacm.c.o)
 .text.vcomDataRxCb
                0x0000000008001784       0x7c /home/vladimir/Documentos/SOFTWARE/arduino/BluePill/primeros_ejemplos/Thermocouple/build/core/core.a(usb_cdcacm.c.o)
 .text.usb_cdcacm_set_hooks
                0x0000000008001800       0x1c /home/vladimir/Documentos/SOFTWARE/arduino/BluePill/primeros_ejemplos/Thermocouple/build/core/core.a(usb_cdcacm.c.o)
                0x0000000008001800                usb_cdcacm_set_hooks
 .text.usb_cdcacm_enable
                0x000000000800181c       0x38 /home/vladimir/Documentos/SOFTWARE/arduino/BluePill/primeros_ejemplos/Thermocouple/build/core/core.a(usb_cdcacm.c.o)
                0x000000000800181c                usb_cdcacm_enable
 .text.usb_cdcacm_tx
                0x0000000008001854       0x60 /home/vladimir/Documentos/SOFTWARE/arduino/BluePill/primeros_ejemplos/Thermocouple/build/core/core.a(usb_cdcacm.c.o)
                0x0000000008001854                usb_cdcacm_tx
 .text.usb_cdcacm_data_available
                0x00000000080018b4       0x18 /home/vladimir/Documentos/SOFTWARE/arduino/BluePill/primeros_ejemplos/Thermocouple/build/core/core.a(usb_cdcacm.c.o)
                0x00000000080018b4                usb_cdcacm_data_available
 .text.usb_cdcacm_peek
                0x00000000080018cc       0x38 /home/vladimir/Documentos/SOFTWARE/arduino/BluePill/primeros_ejemplos/Thermocouple/build/core/core.a(usb_cdcacm.c.o)
                0x00000000080018cc                usb_cdcacm_peek
 .text.usb_cdcacm_rx
                0x0000000008001904       0x34 /home/vladimir/Documentos/SOFTWARE/arduino/BluePill/primeros_ejemplos/Thermocouple/build/core/core.a(usb_cdcacm.c.o)
                0x0000000008001904                usb_cdcacm_rx
 .text.usb_cdcacm_peek_ex
                0x0000000008001938       0x40 /home/vladimir/Documentos/SOFTWARE/arduino/BluePill/primeros_ejemplos/Thermocouple/build/core/core.a(usb_cdcacm.c.o)
                0x0000000008001938                usb_cdcacm_peek_ex
 .text.usb_cdcacm_get_dtr
                0x0000000008001978       0x10 /home/vladimir/Documentos/SOFTWARE/arduino/BluePill/primeros_ejemplos/Thermocouple/build/core/core.a(usb_cdcacm.c.o)
                0x0000000008001978                usb_cdcacm_get_dtr
 .text.usb_set_ep_rx_count
                0x0000000008001988       0x40 /home/vladimir/Documentos/SOFTWARE/arduino/BluePill/primeros_ejemplos/Thermocouple/build/core/core.a(usb_reg_map.c.o)
                0x0000000008001988                usb_set_ep_rx_count
 .text.Standard_GetConfiguration
                0x00000000080019c8       0x24 /home/vladimir/Documentos/SOFTWARE/arduino/BluePill/primeros_ejemplos/Thermocouple/build/core/core.a(usb_core.c.o)
                0x00000000080019c8                Standard_GetConfiguration
 .text.Standard_GetInterface
                0x00000000080019ec       0x24 /home/vladimir/Documentos/SOFTWARE/arduino/BluePill/primeros_ejemplos/Thermocouple/build/core/core.a(usb_core.c.o)
                0x00000000080019ec                Standard_GetInterface
 .text.Standard_GetStatus
                0x0000000008001a10       0x90 /home/vladimir/Documentos/SOFTWARE/arduino/BluePill/primeros_ejemplos/Thermocouple/build/core/core.a(usb_core.c.o)
                0x0000000008001a10                Standard_GetStatus
 .text.DataStageIn
                0x0000000008001aa0       0xa8 /home/vladimir/Documentos/SOFTWARE/arduino/BluePill/primeros_ejemplos/Thermocouple/build/core/core.a(usb_core.c.o)
 .text.Standard_SetConfiguration
                0x0000000008001b48       0x38 /home/vladimir/Documentos/SOFTWARE/arduino/BluePill/primeros_ejemplos/Thermocouple/build/core/core.a(usb_core.c.o)
                0x0000000008001b48                Standard_SetConfiguration
 .text.Standard_SetInterface
                0x0000000008001b80       0x48 /home/vladimir/Documentos/SOFTWARE/arduino/BluePill/primeros_ejemplos/Thermocouple/build/core/core.a(usb_core.c.o)
                0x0000000008001b80                Standard_SetInterface
 .text.Standard_ClearFeature
                0x0000000008001bc8       0xd0 /home/vladimir/Documentos/SOFTWARE/arduino/BluePill/primeros_ejemplos/Thermocouple/build/core/core.a(usb_core.c.o)
                0x0000000008001bc8                Standard_ClearFeature
 .text.Standard_SetEndPointFeature
                0x0000000008001c98       0x84 /home/vladimir/Documentos/SOFTWARE/arduino/BluePill/primeros_ejemplos/Thermocouple/build/core/core.a(usb_core.c.o)
                0x0000000008001c98                Standard_SetEndPointFeature
 .text.Standard_SetDeviceFeature
                0x0000000008001d1c       0x24 /home/vladimir/Documentos/SOFTWARE/arduino/BluePill/primeros_ejemplos/Thermocouple/build/core/core.a(usb_core.c.o)
                0x0000000008001d1c                Standard_SetDeviceFeature
 .text.Standard_GetDescriptorData
                0x0000000008001d40       0x1c /home/vladimir/Documentos/SOFTWARE/arduino/BluePill/primeros_ejemplos/Thermocouple/build/core/core.a(usb_core.c.o)
                0x0000000008001d40                Standard_GetDescriptorData
 .text.Post0_Process
                0x0000000008001d5c       0x40 /home/vladimir/Documentos/SOFTWARE/arduino/BluePill/primeros_ejemplos/Thermocouple/build/core/core.a(usb_core.c.o)
                0x0000000008001d5c                Post0_Process
 .text.Setup0_Process
                0x0000000008001d9c      0x2d0 /home/vladimir/Documentos/SOFTWARE/arduino/BluePill/primeros_ejemplos/Thermocouple/build/core/core.a(usb_core.c.o)
                0x0000000008001d9c                Setup0_Process
 .text.Out0_Process
                0x000000000800206c       0xc8 /home/vladimir/Documentos/SOFTWARE/arduino/BluePill/primeros_ejemplos/Thermocouple/build/core/core.a(usb_core.c.o)
                0x000000000800206c                Out0_Process
 .text.SetDeviceAddress
                0x0000000008002134       0x38 /home/vladimir/Documentos/SOFTWARE/arduino/BluePill/primeros_ejemplos/Thermocouple/build/core/core.a(usb_core.c.o)
                0x0000000008002134                SetDeviceAddress
 .text.In0_Process
                0x000000000800216c       0x5c /home/vladimir/Documentos/SOFTWARE/arduino/BluePill/primeros_ejemplos/Thermocouple/build/core/core.a(usb_core.c.o)
                0x000000000800216c                In0_Process
 .text.NOP_Process
                0x00000000080021c8        0x2 /home/vladimir/Documentos/SOFTWARE/arduino/BluePill/primeros_ejemplos/Thermocouple/build/core/core.a(usb_core.c.o)
                0x00000000080021c8                NOP_Process
 .text.UserToPMABufferCopy
                0x00000000080021ca       0x30 /home/vladimir/Documentos/SOFTWARE/arduino/BluePill/primeros_ejemplos/Thermocouple/build/core/core.a(usb_mem.c.o)
                0x00000000080021ca                UserToPMABufferCopy
 .text.PMAToUserBufferCopy
                0x00000000080021fa       0x24 /home/vladimir/Documentos/SOFTWARE/arduino/BluePill/primeros_ejemplos/Thermocouple/build/core/core.a(usb_mem.c.o)
                0x00000000080021fa                PMAToUserBufferCopy
 .text.SetEPTxStatus
                0x000000000800221e       0x2a /home/vladimir/Documentos/SOFTWARE/arduino/BluePill/primeros_ejemplos/Thermocouple/build/core/core.a(usb_regs.c.o)
                0x000000000800221e                SetEPTxStatus
 .text.ClearDTOG_RX
                0x0000000008002248       0x20 /home/vladimir/Documentos/SOFTWARE/arduino/BluePill/primeros_ejemplos/Thermocouple/build/core/core.a(usb_regs.c.o)
                0x0000000008002248                ClearDTOG_RX
 .text.ClearDTOG_TX
                0x0000000008002268       0x20 /home/vladimir/Documentos/SOFTWARE/arduino/BluePill/primeros_ejemplos/Thermocouple/build/core/core.a(usb_regs.c.o)
                0x0000000008002268                ClearDTOG_TX
 .text.GetEPTxAddr
                0x0000000008002288       0x1c /home/vladimir/Documentos/SOFTWARE/arduino/BluePill/primeros_ejemplos/Thermocouple/build/core/core.a(usb_regs.c.o)
                0x0000000008002288                GetEPTxAddr
 .text.GetEPRxAddr
                0x00000000080022a4       0x1c /home/vladimir/Documentos/SOFTWARE/arduino/BluePill/primeros_ejemplos/Thermocouple/build/core/core.a(usb_regs.c.o)
                0x00000000080022a4                GetEPRxAddr
 .text.SetEPTxCount
                0x00000000080022c0       0x1c /home/vladimir/Documentos/SOFTWARE/arduino/BluePill/primeros_ejemplos/Thermocouple/build/core/core.a(usb_regs.c.o)
                0x00000000080022c0                SetEPTxCount
 .text.SetEPRxCount
                0x00000000080022dc       0x40 /home/vladimir/Documentos/SOFTWARE/arduino/BluePill/primeros_ejemplos/Thermocouple/build/core/core.a(usb_regs.c.o)
                0x00000000080022dc                SetEPRxCount
 .text.rb_full_count
                0x000000000800231c       0x22 /home/vladimir/Documentos/SOFTWARE/arduino/BluePill/primeros_ejemplos/Thermocouple/build/core/core.a(HardwareSerial.cpp.o)
 .text._ZN14HardwareSerial4readEv
                0x000000000800233e       0x3a /home/vladimir/Documentos/SOFTWARE/arduino/BluePill/primeros_ejemplos/Thermocouple/build/core/core.a(HardwareSerial.cpp.o)
                0x000000000800233e                HardwareSerial::read()
 .text._ZN14HardwareSerial9availableEv
                0x0000000008002378        0xc /home/vladimir/Documentos/SOFTWARE/arduino/BluePill/primeros_ejemplos/Thermocouple/build/core/core.a(HardwareSerial.cpp.o)
                0x0000000008002378                HardwareSerial::available()
 .text._ZN14HardwareSerial4peekEv
                0x0000000008002384       0x22 /home/vladimir/Documentos/SOFTWARE/arduino/BluePill/primeros_ejemplos/Thermocouple/build/core/core.a(HardwareSerial.cpp.o)
                0x0000000008002384                HardwareSerial::peek()
 .text._ZN14HardwareSerial5flushEv
                0x00000000080023a6       0x1a /home/vladimir/Documentos/SOFTWARE/arduino/BluePill/primeros_ejemplos/Thermocouple/build/core/core.a(HardwareSerial.cpp.o)
                0x00000000080023a6                HardwareSerial::flush()
 .text._ZN14HardwareSerial5writeEh
                0x00000000080023c0       0x1e /home/vladimir/Documentos/SOFTWARE/arduino/BluePill/primeros_ejemplos/Thermocouple/build/core/core.a(HardwareSerial.cpp.o)
                0x00000000080023c0                HardwareSerial::write(unsigned char)
 *fill*         0x00000000080023de        0x2 
 .text._ZN14HardwareSerialC2EP9usart_devhh
                0x00000000080023e0       0x1c /home/vladimir/Documentos/SOFTWARE/arduino/BluePill/primeros_ejemplos/Thermocouple/build/core/core.a(HardwareSerial.cpp.o)
                0x00000000080023e0                HardwareSerial::HardwareSerial(usart_dev*, unsigned char, unsigned char)
                0x00000000080023e0                HardwareSerial::HardwareSerial(usart_dev*, unsigned char, unsigned char)
 .text._ZN5Print5writeEPKvm
                0x00000000080023fc       0x20 /home/vladimir/Documentos/SOFTWARE/arduino/BluePill/primeros_ejemplos/Thermocouple/build/core/core.a(Print.cpp.o)
                0x00000000080023fc                Print::write(void const*, unsigned long)
 .text._ZN5Print5writeEPKc
                0x000000000800241c       0x1e /home/vladimir/Documentos/SOFTWARE/arduino/BluePill/primeros_ejemplos/Thermocouple/build/core/core.a(Print.cpp.o)
                0x000000000800241c                Print::write(char const*)
 .text._ZN5Print5printEc
                0x000000000800243a        0xa /home/vladimir/Documentos/SOFTWARE/arduino/BluePill/primeros_ejemplos/Thermocouple/build/core/core.a(Print.cpp.o)
                0x000000000800243a                Print::print(char)
 .text._ZN5Print5printEPKc
                0x0000000008002444        0xa /home/vladimir/Documentos/SOFTWARE/arduino/BluePill/primeros_ejemplos/Thermocouple/build/core/core.a(Print.cpp.o)
                0x0000000008002444                Print::print(char const*)
 .text._ZN5Print7printlnEv
                0x000000000800244e       0x18 /home/vladimir/Documentos/SOFTWARE/arduino/BluePill/primeros_ejemplos/Thermocouple/build/core/core.a(Print.cpp.o)
                0x000000000800244e                Print::println()
 .text._ZN5Print7printlnEPKc
                0x0000000008002466       0x14 /home/vladimir/Documentos/SOFTWARE/arduino/BluePill/primeros_ejemplos/Thermocouple/build/core/core.a(Print.cpp.o)
                0x0000000008002466                Print::println(char const*)
 .text.startup._Z7premainv
                0x000000000800247a        0x4 /home/vladimir/Documentos/SOFTWARE/arduino/BluePill/primeros_ejemplos/Thermocouple/build/core/core.a(main.cpp.o)
                0x000000000800247a                premain()
 .text.startup.main
                0x000000000800247e        0xc /home/vladimir/Documentos/SOFTWARE/arduino/BluePill/primeros_ejemplos/Thermocouple/build/core/core.a(main.cpp.o)
                0x000000000800247e                main
 .text._ZN9USBSerial9availableEv
                0x000000000800248a        0x4 /home/vladimir/Documentos/SOFTWARE/arduino/BluePill/primeros_ejemplos/Thermocouple/build/core/core.a(usb_serial.cpp.o)
                0x000000000800248a                USBSerial::available()
 .text._ZN9USBSerial4peekEv
                0x000000000800248e       0x1e /home/vladimir/Documentos/SOFTWARE/arduino/BluePill/primeros_ejemplos/Thermocouple/build/core/core.a(usb_serial.cpp.o)
                0x000000000800248e                USBSerial::peek()
 .text._ZN9USBSerial4readEv
                0x00000000080024ac       0x1e /home/vladimir/Documentos/SOFTWARE/arduino/BluePill/primeros_ejemplos/Thermocouple/build/core/core.a(usb_serial.cpp.o)
                0x00000000080024ac                USBSerial::read()
 *fill*         0x00000000080024ca        0x2 
 .text._ZL14ifaceSetupHookjPv
                0x00000000080024cc       0x38 /home/vladimir/Documentos/SOFTWARE/arduino/BluePill/primeros_ejemplos/Thermocouple/build/core/core.a(usb_serial.cpp.o)
 .text._ZL6rxHookjPv
                0x0000000008002504       0xa0 /home/vladimir/Documentos/SOFTWARE/arduino/BluePill/primeros_ejemplos/Thermocouple/build/core/core.a(usb_serial.cpp.o)
 .text._ZL10wait_resetv
                0x00000000080025a4       0x10 /home/vladimir/Documentos/SOFTWARE/arduino/BluePill/primeros_ejemplos/Thermocouple/build/core/core.a(usb_serial.cpp.o)
 .text._ZN9USBSerialC2Ev
                0x00000000080025b4       0x14 /home/vladimir/Documentos/SOFTWARE/arduino/BluePill/primeros_ejemplos/Thermocouple/build/core/core.a(usb_serial.cpp.o)
                0x00000000080025b4                USBSerial::USBSerial()
                0x00000000080025b4                USBSerial::USBSerial()
 .text._ZN9USBSerial5beginEv
                0x00000000080025c8       0x34 /home/vladimir/Documentos/SOFTWARE/arduino/BluePill/primeros_ejemplos/Thermocouple/build/core/core.a(usb_serial.cpp.o)
                0x00000000080025c8                USBSerial::begin()
 .text._ZN9USBSerial5writeEPKhm
                0x00000000080025fc       0x4c /home/vladimir/Documentos/SOFTWARE/arduino/BluePill/primeros_ejemplos/Thermocouple/build/core/core.a(usb_serial.cpp.o)
                0x00000000080025fc                USBSerial::write(unsigned char const*, unsigned long)
 .text._ZN9USBSerial5writeEh
                0x0000000008002648       0x16 /home/vladimir/Documentos/SOFTWARE/arduino/BluePill/primeros_ejemplos/Thermocouple/build/core/core.a(usb_serial.cpp.o)
                0x0000000008002648                USBSerial::write(unsigned char)
 .text._ZN9USBSerial5writeEPKc
                0x000000000800265e       0x1a /home/vladimir/Documentos/SOFTWARE/arduino/BluePill/primeros_ejemplos/Thermocouple/build/core/core.a(usb_serial.cpp.o)
                0x000000000800265e                USBSerial::write(char const*)
 .text._ZN9USBSerial4readEPhm
                0x0000000008002678       0x1c /home/vladimir/Documentos/SOFTWARE/arduino/BluePill/primeros_ejemplos/Thermocouple/build/core/core.a(usb_serial.cpp.o)
                0x0000000008002678                USBSerial::read(unsigned char*, unsigned long)
 .text._ZN9USBSerial5flushEv
                0x0000000008002694       0x1c /home/vladimir/Documentos/SOFTWARE/arduino/BluePill/primeros_ejemplos/Thermocouple/build/core/core.a(usb_serial.cpp.o)
                0x0000000008002694                USBSerial::flush()
 .text.startup._GLOBAL__sub_I__ZN9USBSerial9_hasBegunE
                0x00000000080026b0        0xc /home/vladimir/Documentos/SOFTWARE/arduino/BluePill/primeros_ejemplos/Thermocouple/build/core/core.a(usb_serial.cpp.o)
 .text._Z11digitalReadh
                0x00000000080026bc       0x2c /home/vladimir/Documentos/SOFTWARE/arduino/BluePill/primeros_ejemplos/Thermocouple/build/core/core.a(wirish_digital.cpp.o)
                0x00000000080026bc                digitalRead(unsigned char)
 .text._Z12digitalWritehh
                0x00000000080026e8       0x2c /home/vladimir/Documentos/SOFTWARE/arduino/BluePill/primeros_ejemplos/Thermocouple/build/core/core.a(wirish_digital.cpp.o)
                0x00000000080026e8                digitalWrite(unsigned char, unsigned char)
 .text._ZL6microsv
                0x0000000008002714       0x34 /home/vladimir/Documentos/SOFTWARE/arduino/BluePill/primeros_ejemplos/Thermocouple/build/core/core.a(wirish_time.cpp.o)
 .text._Z5delaym
                0x0000000008002748       0x2a /home/vladimir/Documentos/SOFTWARE/arduino/BluePill/primeros_ejemplos/Thermocouple/build/core/core.a(wirish_time.cpp.o)
                0x0000000008002748                delay(unsigned long)
 *fill*         0x0000000008002772        0x2 
 .text._Z7pinModeh13WiringPinMode
                0x0000000008002774       0x84 /home/vladimir/Documentos/SOFTWARE/arduino/BluePill/primeros_ejemplos/Thermocouple/build/core/core.a(wirish_digital_f1.cpp.o)
                0x0000000008002774                pinMode(unsigned char, WiringPinMode)
 .text.__empty  0x00000000080027f8        0x2 /home/vladimir/Documentos/SOFTWARE/arduino/BluePill/primeros_ejemplos/Thermocouple/build/core/core.a(hooks.c.o)
                0x00000000080027f8                yield
 .text.bkp_init
                0x00000000080027fa       0x18 /home/vladimir/Documentos/SOFTWARE/arduino/BluePill/primeros_ejemplos/Thermocouple/build/core/core.a(bkp_f1.c.o)
                0x00000000080027fa                bkp_init
 *fill*         0x0000000008002812        0x2 
 .text.bkp_enable_writes
                0x0000000008002814        0xc /home/vladimir/Documentos/SOFTWARE/arduino/BluePill/primeros_ejemplos/Thermocouple/build/core/core.a(bkp_f1.c.o)
                0x0000000008002814                bkp_enable_writes
 .text.bkp_disable_writes
                0x0000000008002820        0xc /home/vladimir/Documentos/SOFTWARE/arduino/BluePill/primeros_ejemplos/Thermocouple/build/core/core.a(bkp_f1.c.o)
                0x0000000008002820                bkp_disable_writes
 .text.bkp_write
                0x000000000800282c       0x16 /home/vladimir/Documentos/SOFTWARE/arduino/BluePill/primeros_ejemplos/Thermocouple/build/core/core.a(bkp_f1.c.o)
                0x000000000800282c                bkp_write
 .text.gpio_init
                0x0000000008002842       0x14 /home/vladimir/Documentos/SOFTWARE/arduino/BluePill/primeros_ejemplos/Thermocouple/build/core/core.a(gpio.c.o)
                0x0000000008002842                gpio_init
 .text.i2c_start_condition
                0x0000000008002856       0x14 /home/vladimir/Documentos/SOFTWARE/arduino/BluePill/primeros_ejemplos/Thermocouple/build/core/core.a(i2c.c.o)
 .text.i2c_stop_condition
                0x000000000800286a       0x1c /home/vladimir/Documentos/SOFTWARE/arduino/BluePill/primeros_ejemplos/Thermocouple/build/core/core.a(i2c.c.o)
 *fill*         0x0000000008002886        0x2 
 .text._i2c_irq_handler
                0x0000000008002888      0x16c /home/vladimir/Documentos/SOFTWARE/arduino/BluePill/primeros_ejemplos/Thermocouple/build/core/core.a(i2c.c.o)
                0x0000000008002888                _i2c_irq_handler
 .text._i2c_irq_error_handler
                0x00000000080029f4       0x2a /home/vladimir/Documentos/SOFTWARE/arduino/BluePill/primeros_ejemplos/Thermocouple/build/core/core.a(i2c.c.o)
                0x00000000080029f4                _i2c_irq_error_handler
 .text.usart_tx
                0x0000000008002a1e       0x9c /home/vladimir/Documentos/SOFTWARE/arduino/BluePill/primeros_ejemplos/Thermocouple/build/core/core.a(usart.c.o)
                0x0000000008002a1e                usart_tx
 *fill*         0x0000000008002aba        0x2 
 .text          0x0000000008002abc      0x370 /home/vladimir/.arduino15/packages/arduino/tools/arm-none-eabi-gcc/4.8.3-2014q1/bin/../lib/gcc/arm-none-eabi/4.8.3/armv7-m/libgcc.a(_arm_addsubdf3.o)
                0x0000000008002abc                __aeabi_drsub
                0x0000000008002ac4                __aeabi_dsub
                0x0000000008002ac4                __subdf3
                0x0000000008002ac8                __adddf3
                0x0000000008002ac8                __aeabi_dadd
                0x0000000008002d40                __aeabi_ui2d
                0x0000000008002d40                __floatunsidf
                0x0000000008002d60                __floatsidf
                0x0000000008002d60                __aeabi_i2d
                0x0000000008002d84                __extendsfdf2
                0x0000000008002d84                __aeabi_f2d
                0x0000000008002dc0                __aeabi_ul2d
                0x0000000008002dc0                __floatundidf
                0x0000000008002dd0                __floatdidf
                0x0000000008002dd0                __aeabi_l2d
 .text          0x0000000008002e2c      0x424 /home/vladimir/.arduino15/packages/arduino/tools/arm-none-eabi-gcc/4.8.3-2014q1/bin/../lib/gcc/arm-none-eabi/4.8.3/armv7-m/libgcc.a(_arm_muldivdf3.o)
                0x0000000008002e2c                __aeabi_dmul
                0x0000000008002e2c                __muldf3
                0x0000000008003080                __aeabi_ddiv
                0x0000000008003080                __divdf3
 .text          0x0000000008003250       0xa0 /home/vladimir/.arduino15/packages/arduino/tools/arm-none-eabi-gcc/4.8.3-2014q1/bin/../lib/gcc/arm-none-eabi/4.8.3/armv7-m/libgcc.a(_arm_truncdfsf2.o)
                0x0000000008003250                __aeabi_d2f
                0x0000000008003250                __truncdfsf2
 .text          0x00000000080032f0      0x2a0 /home/vladimir/.arduino15/packages/arduino/tools/arm-none-eabi-gcc/4.8.3-2014q1/bin/../lib/gcc/arm-none-eabi/4.8.3/armv7-m/libgcc.a(_arm_muldivsf3.o)
                0x00000000080032f0                __mulsf3
                0x00000000080032f0                __aeabi_fmul
                0x0000000008003458                __divsf3
                0x0000000008003458                __aeabi_fdiv
 .text.exit     0x0000000008003590       0x20 /home/vladimir/.arduino15/packages/arduino/tools/arm-none-eabi-gcc/4.8.3-2014q1/bin/../lib/gcc/arm-none-eabi/4.8.3/../../../../arm-none-eabi/lib/armv7-m/libc.a(lib_a-exit.o)
                0x0000000008003590                exit
 .text.__libc_init_array
                0x00000000080035b0       0x50 /home/vladimir/.arduino15/packages/arduino/tools/arm-none-eabi-gcc/4.8.3-2014q1/bin/../lib/gcc/arm-none-eabi/4.8.3/../../../../arm-none-eabi/lib/armv7-m/libc.a(lib_a-init.o)
                0x00000000080035b0                __libc_init_array
 .text.strlen   0x0000000008003600       0x60 /home/vladimir/.arduino15/packages/arduino/tools/arm-none-eabi-gcc/4.8.3-2014q1/bin/../lib/gcc/arm-none-eabi/4.8.3/../../../../arm-none-eabi/lib/armv7-m/libc.a(lib_a-strlen.o)
                0x0000000008003600                strlen
 .text.startup.register_fini
                0x0000000008003660       0x14 /home/vladimir/.arduino15/packages/arduino/tools/arm-none-eabi-gcc/4.8.3-2014q1/bin/../lib/gcc/arm-none-eabi/4.8.3/../../../../arm-none-eabi/lib/armv7-m/libc.a(lib_a-__call_atexit.o)
 .text.__call_exitprocs
                0x0000000008003674       0xf0 /home/vladimir/.arduino15/packages/arduino/tools/arm-none-eabi-gcc/4.8.3-2014q1/bin/../lib/gcc/arm-none-eabi/4.8.3/../../../../arm-none-eabi/lib/armv7-m/libc.a(lib_a-__call_atexit.o)
                0x0000000008003674                __call_exitprocs
 .text.atexit   0x0000000008003764        0xc /home/vladimir/.arduino15/packages/arduino/tools/arm-none-eabi-gcc/4.8.3-2014q1/bin/../lib/gcc/arm-none-eabi/4.8.3/../../../../arm-none-eabi/lib/armv7-m/libc.a(lib_a-atexit.o)
                0x0000000008003764                atexit
 .text.__libc_fini_array
                0x0000000008003770       0x30 /home/vladimir/.arduino15/packages/arduino/tools/arm-none-eabi-gcc/4.8.3-2014q1/bin/../lib/gcc/arm-none-eabi/4.8.3/../../../../arm-none-eabi/lib/armv7-m/libc.a(lib_a-fini.o)
                0x0000000008003770                __libc_fini_array
 .text.__register_exitproc
                0x00000000080037a0       0xa8 /home/vladimir/.arduino15/packages/arduino/tools/arm-none-eabi-gcc/4.8.3-2014q1/bin/../lib/gcc/arm-none-eabi/4.8.3/../../../../arm-none-eabi/lib/armv7-m/libc.a(lib_a-__atexit.o)
                0x00000000080037a0                __register_exitproc
 *(.plt)
 *(.gnu.warning)
 *(.glue_7t)
 .glue_7t       0x0000000000000000        0x0 linker stubs
 *(.glue_7)
 .glue_7        0x0000000000000000        0x0 linker stubs
 *(.vfp11_veneer)
 .vfp11_veneer  0x0000000000000000        0x0 linker stubs
 *(.ARM.extab* .gnu.linkonce.armextab.*)
 *(.gcc_except_table)
 *(.eh_frame_hdr)
 *(.eh_frame)
 .eh_frame      0x0000000008003848        0x0 /home/vladimir/.arduino15/packages/arduino/tools/arm-none-eabi-gcc/4.8.3-2014q1/bin/../lib/gcc/arm-none-eabi/4.8.3/armv7-m/crtbegin.o
                0x0000000008003848                . = ALIGN (0x4)
 *(.init)
 .init          0x0000000008003848        0x4 /home/vladimir/.arduino15/packages/arduino/tools/arm-none-eabi-gcc/4.8.3-2014q1/bin/../lib/gcc/arm-none-eabi/4.8.3/armv7-m/crti.o
                0x0000000008003848                _init
 .init          0x000000000800384c        0x8 /home/vladimir/.arduino15/packages/arduino/tools/arm-none-eabi-gcc/4.8.3-2014q1/bin/../lib/gcc/arm-none-eabi/4.8.3/armv7-m/crtn.o
                0x0000000008003854                . = ALIGN (0x4)
                0x0000000008003854                __preinit_array_start = .
 *(.preinit_array)
                0x0000000008003854                __preinit_array_end = .
                0x0000000008003854                . = ALIGN (0x4)
                0x0000000008003854                __init_array_start = .
 *(SORT(.init_array.*))
 .init_array.00000
                0x0000000008003854        0x4 /home/vladimir/.arduino15/packages/arduino/tools/arm-none-eabi-gcc/4.8.3-2014q1/bin/../lib/gcc/arm-none-eabi/4.8.3/../../../../arm-none-eabi/lib/armv7-m/libc.a(lib_a-__call_atexit.o)
 .init_array.00101
                0x0000000008003858        0x4 /home/vladimir/Documentos/SOFTWARE/arduino/BluePill/primeros_ejemplos/Thermocouple/build/core/core.a(main.cpp.o)
 *(.init_array)
 .init_array    0x000000000800385c        0x4 /home/vladimir/.arduino15/packages/arduino/tools/arm-none-eabi-gcc/4.8.3-2014q1/bin/../lib/gcc/arm-none-eabi/4.8.3/armv7-m/crtbegin.o
 .init_array    0x0000000008003860        0x4 /home/vladimir/Documentos/SOFTWARE/arduino/BluePill/primeros_ejemplos/Thermocouple/build/sketch/Thermocouple.ino.cpp.o
 .init_array    0x0000000008003864        0x4 /home/vladimir/Documentos/SOFTWARE/arduino/BluePill/primeros_ejemplos/Thermocouple/build/core/board.cpp.o
 .init_array    0x0000000008003868        0x4 /home/vladimir/Documentos/SOFTWARE/arduino/BluePill/primeros_ejemplos/Thermocouple/build/core/core.a(usb_serial.cpp.o)
                0x000000000800386c                __init_array_end = .
                0x000000000800386c                . = ALIGN (0x4)
 *crtbegin.o(.ctors)
 *(EXCLUDE_FILE(*crtend.o) .ctors)
 *(SORT(.ctors.*))
 *crtend.o(.ctors)
                0x000000000800386c                . = ALIGN (0x4)
 *(.fini)
 .fini          0x000000000800386c        0x4 /home/vladimir/.arduino15/packages/arduino/tools/arm-none-eabi-gcc/4.8.3-2014q1/bin/../lib/gcc/arm-none-eabi/4.8.3/armv7-m/crti.o
                0x000000000800386c                _fini
 .fini          0x0000000008003870        0x8 /home/vladimir/.arduino15/packages/arduino/tools/arm-none-eabi-gcc/4.8.3-2014q1/bin/../lib/gcc/arm-none-eabi/4.8.3/armv7-m/crtn.o
                0x0000000008003878                . = ALIGN (0x4)
                0x0000000008003878                __fini_array_start = .
 *(.fini_array)
 .fini_array    0x0000000008003878        0x4 /home/vladimir/.arduino15/packages/arduino/tools/arm-none-eabi-gcc/4.8.3-2014q1/bin/../lib/gcc/arm-none-eabi/4.8.3/armv7-m/crtbegin.o
 *(SORT(.fini_array.*))
                0x000000000800387c                __fini_array_end = .
 *crtbegin.o(.dtors)
 *(EXCLUDE_FILE(*crtend.o) .dtors)
 *(SORT(.dtors.*))
 *crtend.o(.dtors)

.v4_bx          0x000000000800387c        0x0
 .v4_bx         0x0000000000000000        0x0 linker stubs

.iplt           0x000000000800387c        0x0
 .iplt          0x0000000000000000        0x0 /home/vladimir/.arduino15/packages/arduino/tools/arm-none-eabi-gcc/4.8.3-2014q1/bin/../lib/gcc/arm-none-eabi/4.8.3/armv7-m/crtbegin.o

.text.align     0x000000000800387c        0x4
                0x0000000008003880                . = ALIGN (0x8)
 *fill*         0x000000000800387c        0x4 
                0x0000000008003880                __text_end__ = .
                0x0000000008003880                __exidx_start = .

.ARM.exidx      0x0000000008003880        0x8
 *(.ARM.exidx* .gnu.linkonce.armexidx.*)
 .ARM.exidx     0x0000000008003880        0x8 /home/vladimir/Documentos/SOFTWARE/arduino/BluePill/primeros_ejemplos/Thermocouple/build/core/wirish/start.S.o
                0x0000000008003888                __exidx_end = .

.data           0x0000000020000000      0x870 load address 0x0000000008003888
                0x0000000020000000                __data_start__ = .
                0x0000000020000000        0x4 LONG 0x0
                0x0000000020000008                . = ALIGN (0x8)
 *fill*         0x0000000020000004        0x4 
 *(.got.plt)
 *(.got)
 *(.data .data.* .gnu.linkonce.d.*)
 .data.thermoCLK
                0x0000000020000008        0x4 /home/vladimir/Documentos/SOFTWARE/arduino/BluePill/primeros_ejemplos/Thermocouple/build/sketch/Thermocouple.ino.cpp.o
                0x0000000020000008                thermoCLK
 .data.thermoCS
                0x000000002000000c        0x4 /home/vladimir/Documentos/SOFTWARE/arduino/BluePill/primeros_ejemplos/Thermocouple/build/sketch/Thermocouple.ino.cpp.o
                0x000000002000000c                thermoCS
 .data.thermoDO
                0x0000000020000010        0x4 /home/vladimir/Documentos/SOFTWARE/arduino/BluePill/primeros_ejemplos/Thermocouple/build/sketch/Thermocouple.ino.cpp.o
                0x0000000020000010                thermoDO
 .data._ZN6wirish4privL8pll_dataE
                0x0000000020000014        0x4 /home/vladimir/Documentos/SOFTWARE/arduino/BluePill/primeros_ejemplos/Thermocouple/build/core/wirish/boards_setup.cpp.o
 .data._ZN6wirish4priv9w_adc_smpE
                0x0000000020000018        0x1 /home/vladimir/Documentos/SOFTWARE/arduino/BluePill/primeros_ejemplos/Thermocouple/build/core/wirish/boards_setup.cpp.o
                0x0000000020000018                wirish::priv::w_adc_smp
 *fill*         0x0000000020000019        0x1 
 .data._ZN6wirish4priv9w_adc_preE
                0x000000002000001a        0x2 /home/vladimir/Documentos/SOFTWARE/arduino/BluePill/primeros_ejemplos/Thermocouple/build/core/wirish/boards_setup.cpp.o
                0x000000002000001a                wirish::priv::w_adc_pre
 .data._ZN6wirish4priv15w_board_pll_cfgE
                0x000000002000001c        0x8 /home/vladimir/Documentos/SOFTWARE/arduino/BluePill/primeros_ejemplos/Thermocouple/build/core/wirish/boards_setup.cpp.o
                0x000000002000001c                wirish::priv::w_board_pll_cfg
 .data.adc2     0x0000000020000024        0x8 /home/vladimir/Documentos/SOFTWARE/arduino/BluePill/primeros_ejemplos/Thermocouple/build/core/core.a(adc_f1.c.o)
                0x0000000020000024                adc2
 .data.adc1     0x000000002000002c       0x18 /home/vladimir/Documentos/SOFTWARE/arduino/BluePill/primeros_ejemplos/Thermocouple/build/core/core.a(adc_f1.c.o)
                0x000000002000002c                adc1
 .data.ADC2     0x0000000020000044        0x4 /home/vladimir/Documentos/SOFTWARE/arduino/BluePill/primeros_ejemplos/Thermocouple/build/core/core.a(adc_f1.c.o)
                0x0000000020000044                ADC2
 .data.ADC1     0x0000000020000048        0x4 /home/vladimir/Documentos/SOFTWARE/arduino/BluePill/primeros_ejemplos/Thermocouple/build/core/core.a(adc_f1.c.o)
                0x0000000020000048                ADC1
 .data.dma1     0x000000002000004c       0x40 /home/vladimir/Documentos/SOFTWARE/arduino/BluePill/primeros_ejemplos/Thermocouple/build/core/core.a(dma_f1.c.o)
 .data.DMA1     0x000000002000008c        0x4 /home/vladimir/Documentos/SOFTWARE/arduino/BluePill/primeros_ejemplos/Thermocouple/build/core/core.a(dma_f1.c.o)
                0x000000002000008c                DMA1
 .data.gpioa    0x0000000020000090        0x8 /home/vladimir/Documentos/SOFTWARE/arduino/BluePill/primeros_ejemplos/Thermocouple/build/core/core.a(gpio_f1.c.o)
                0x0000000020000090                gpioa
 .data.gpiob    0x0000000020000098        0x8 /home/vladimir/Documentos/SOFTWARE/arduino/BluePill/primeros_ejemplos/Thermocouple/build/core/core.a(gpio_f1.c.o)
                0x0000000020000098                gpiob
 .data.gpioc    0x00000000200000a0        0x8 /home/vladimir/Documentos/SOFTWARE/arduino/BluePill/primeros_ejemplos/Thermocouple/build/core/core.a(gpio_f1.c.o)
                0x00000000200000a0                gpioc
 .data.gpiod    0x00000000200000a8        0x8 /home/vladimir/Documentos/SOFTWARE/arduino/BluePill/primeros_ejemplos/Thermocouple/build/core/core.a(gpio_f1.c.o)
                0x00000000200000a8                gpiod
 .data.i2c1     0x00000000200000b0       0x24 /home/vladimir/Documentos/SOFTWARE/arduino/BluePill/primeros_ejemplos/Thermocouple/build/core/core.a(i2c_f1.c.o)
 .data.i2c2     0x00000000200000d4       0x24 /home/vladimir/Documentos/SOFTWARE/arduino/BluePill/primeros_ejemplos/Thermocouple/build/core/core.a(i2c_f1.c.o)
 .data.enable_regs.4411
                0x00000000200000f8        0xc /home/vladimir/Documentos/SOFTWARE/arduino/BluePill/primeros_ejemplos/Thermocouple/build/core/core.a(rcc_f1.c.o)
 .data.reset_regs.4415
                0x0000000020000104        0x8 /home/vladimir/Documentos/SOFTWARE/arduino/BluePill/primeros_ejemplos/Thermocouple/build/core/core.a(rcc_f1.c.o)
 .data.enable_regs.4424
                0x000000002000010c        0xc /home/vladimir/Documentos/SOFTWARE/arduino/BluePill/primeros_ejemplos/Thermocouple/build/core/core.a(rcc_f1.c.o)
 .data.timer3   0x0000000020000118       0x24 /home/vladimir/Documentos/SOFTWARE/arduino/BluePill/primeros_ejemplos/Thermocouple/build/core/core.a(timer.c.o)
                0x0000000020000118                timer3
 .data.timer4   0x000000002000013c       0x24 /home/vladimir/Documentos/SOFTWARE/arduino/BluePill/primeros_ejemplos/Thermocouple/build/core/core.a(timer.c.o)
                0x000000002000013c                timer4
 .data.timer1   0x0000000020000160       0x28 /home/vladimir/Documentos/SOFTWARE/arduino/BluePill/primeros_ejemplos/Thermocouple/build/core/core.a(timer.c.o)
                0x0000000020000160                timer1
 .data.timer2   0x0000000020000188       0x24 /home/vladimir/Documentos/SOFTWARE/arduino/BluePill/primeros_ejemplos/Thermocouple/build/core/core.a(timer.c.o)
                0x0000000020000188                timer2
 .data.USART1   0x00000000200001ac        0x4 /home/vladimir/Documentos/SOFTWARE/arduino/BluePill/primeros_ejemplos/Thermocouple/build/core/core.a(usart_f1.c.o)
                0x00000000200001ac                USART1
 .data.USART2   0x00000000200001b0        0x4 /home/vladimir/Documentos/SOFTWARE/arduino/BluePill/primeros_ejemplos/Thermocouple/build/core/core.a(usart_f1.c.o)
                0x00000000200001b0                USART2
 .data.USART3   0x00000000200001b4        0x4 /home/vladimir/Documentos/SOFTWARE/arduino/BluePill/primeros_ejemplos/Thermocouple/build/core/core.a(usart_f1.c.o)
                0x00000000200001b4                USART3
 .data.usart1   0x00000000200001b8       0x94 /home/vladimir/Documentos/SOFTWARE/arduino/BluePill/primeros_ejemplos/Thermocouple/build/core/core.a(usart_f1.c.o)
 .data.usart2   0x000000002000024c       0x94 /home/vladimir/Documentos/SOFTWARE/arduino/BluePill/primeros_ejemplos/Thermocouple/build/core/core.a(usart_f1.c.o)
 .data.usart3   0x00000000200002e0       0x94 /home/vladimir/Documentos/SOFTWARE/arduino/BluePill/primeros_ejemplos/Thermocouple/build/core/core.a(usart_f1.c.o)
 .data.USBLIB   0x0000000020000374        0x4 /home/vladimir/Documentos/SOFTWARE/arduino/BluePill/primeros_ejemplos/Thermocouple/build/core/core.a(usb.c.o)
                0x0000000020000374                USBLIB
 .data.usblib   0x0000000020000378       0x10 /home/vladimir/Documentos/SOFTWARE/arduino/BluePill/primeros_ejemplos/Thermocouple/build/core/core.a(usb.c.o)
 .data.Config_Descriptor
                0x0000000020000388        0x8 /home/vladimir/Documentos/SOFTWARE/arduino/BluePill/primeros_ejemplos/Thermocouple/build/core/core.a(usb_cdcacm.c.o)
 .data.Device_Property
                0x0000000020000390       0x30 /home/vladimir/Documentos/SOFTWARE/arduino/BluePill/primeros_ejemplos/Thermocouple/build/core/core.a(usb_cdcacm.c.o)
                0x0000000020000390                Device_Property
 .data.ep_int_in
                0x00000000200003c0       0x1c /home/vladimir/Documentos/SOFTWARE/arduino/BluePill/primeros_ejemplos/Thermocouple/build/core/core.a(usb_cdcacm.c.o)
 .data.String_Descriptor
                0x00000000200003dc       0x18 /home/vladimir/Documentos/SOFTWARE/arduino/BluePill/primeros_ejemplos/Thermocouple/build/core/core.a(usb_cdcacm.c.o)
 .data.ep_int_out
                0x00000000200003f4       0x1c /home/vladimir/Documentos/SOFTWARE/arduino/BluePill/primeros_ejemplos/Thermocouple/build/core/core.a(usb_cdcacm.c.o)
 .data.line_coding
                0x0000000020000410        0x7 /home/vladimir/Documentos/SOFTWARE/arduino/BluePill/primeros_ejemplos/Thermocouple/build/core/core.a(usb_cdcacm.c.o)
 *fill*         0x0000000020000417        0x1 
 .data.User_Standard_Requests
                0x0000000020000418       0x24 /home/vladimir/Documentos/SOFTWARE/arduino/BluePill/primeros_ejemplos/Thermocouple/build/core/core.a(usb_cdcacm.c.o)
                0x0000000020000418                User_Standard_Requests
 .data.Device_Descriptor
                0x000000002000043c        0x8 /home/vladimir/Documentos/SOFTWARE/arduino/BluePill/primeros_ejemplos/Thermocouple/build/core/core.a(usb_cdcacm.c.o)
 .data.Device_Table
                0x0000000020000444        0x2 /home/vladimir/Documentos/SOFTWARE/arduino/BluePill/primeros_ejemplos/Thermocouple/build/core/core.a(usb_cdcacm.c.o)
                0x0000000020000444                Device_Table
 *fill*         0x0000000020000446        0x2 
 .data.impure_data
                0x0000000020000448      0x428 /home/vladimir/.arduino15/packages/arduino/tools/arm-none-eabi-gcc/4.8.3-2014q1/bin/../lib/gcc/arm-none-eabi/4.8.3/../../../../arm-none-eabi/lib/armv7-m/libc.a(lib_a-impure.o)
                0x0000000020000870                . = ALIGN (0x8)
                0x0000000020000870                __data_end__ = .

.jcr            0x0000000020000870        0x0 load address 0x00000000080040f8
 .jcr           0x0000000020000870        0x0 /home/vladimir/.arduino15/packages/arduino/tools/arm-none-eabi-gcc/4.8.3-2014q1/bin/../lib/gcc/arm-none-eabi/4.8.3/armv7-m/crtbegin.o

.igot.plt       0x0000000020000870        0x0 load address 0x00000000080040f8
 .igot.plt      0x0000000000000000        0x0 /home/vladimir/.arduino15/packages/arduino/tools/arm-none-eabi-gcc/4.8.3-2014q1/bin/../lib/gcc/arm-none-eabi/4.8.3/armv7-m/crtbegin.o

.rodata         0x00000000080040f8      0x38c
 *(.rodata .rodata.* .gnu.linkonce.r.*)
 .rodata.str1.1
                0x00000000080040f8        0xd /home/vladimir/Documentos/SOFTWARE/arduino/BluePill/primeros_ejemplos/Thermocouple/build/sketch/Thermocouple.ino.cpp.o
 *fill*         0x0000000008004105        0x3 
 .rodata.PIN_MAP
                0x0000000008004108      0x230 /home/vladimir/Documentos/SOFTWARE/arduino/BluePill/primeros_ejemplos/Thermocouple/build/core/board.cpp.o
                0x0000000008004108                PIN_MAP
 .rodata.GPIOC  0x0000000008004338        0x4 /home/vladimir/Documentos/SOFTWARE/arduino/BluePill/primeros_ejemplos/Thermocouple/build/core/core.a(gpio_f1.c.o)
                0x0000000008004338                GPIOC
 .rodata.rcc_dev_table
                0x000000000800433c       0x5c /home/vladimir/Documentos/SOFTWARE/arduino/BluePill/primeros_ejemplos/Thermocouple/build/core/core.a(rcc_f1.c.o)
                0x000000000800433c                rcc_dev_table
 .rodata.masks.4420
                0x0000000008004398       0x14 /home/vladimir/Documentos/SOFTWARE/arduino/BluePill/primeros_ejemplos/Thermocouple/build/core/core.a(rcc_f1.c.o)
 .rodata.usbVcomDescriptor_iProduct
                0x00000000080043ac        0xc /home/vladimir/Documentos/SOFTWARE/arduino/BluePill/primeros_ejemplos/Thermocouple/build/core/core.a(usb_cdcacm.c.o)
 .rodata.usbVcomDescriptor_iManufacturer
                0x00000000080043b8       0x12 /home/vladimir/Documentos/SOFTWARE/arduino/BluePill/primeros_ejemplos/Thermocouple/build/core/core.a(usb_cdcacm.c.o)
 .rodata.usbVcomDescriptor_Device
                0x00000000080043ca       0x12 /home/vladimir/Documentos/SOFTWARE/arduino/BluePill/primeros_ejemplos/Thermocouple/build/core/core.a(usb_cdcacm.c.o)
 .rodata.usbVcomDescriptor_Config
                0x00000000080043dc       0x43 /home/vladimir/Documentos/SOFTWARE/arduino/BluePill/primeros_ejemplos/Thermocouple/build/core/core.a(usb_cdcacm.c.o)
 .rodata.usbVcomDescriptor_LangID
                0x000000000800441f        0x4 /home/vladimir/Documentos/SOFTWARE/arduino/BluePill/primeros_ejemplos/Thermocouple/build/core/core.a(usb_cdcacm.c.o)
 *fill*         0x0000000008004423        0x5 
 .rodata._ZTV14HardwareSerial
                0x0000000008004428       0x28 /home/vladimir/Documentos/SOFTWARE/arduino/BluePill/primeros_ejemplos/Thermocouple/build/core/core.a(HardwareSerial.cpp.o)
                0x0000000008004428                vtable for HardwareSerial
 .rodata._ZTV9USBSerial
                0x0000000008004450       0x28 /home/vladimir/Documentos/SOFTWARE/arduino/BluePill/primeros_ejemplos/Thermocouple/build/core/core.a(usb_serial.cpp.o)
                0x0000000008004450                vtable for USBSerial
 .rodata.str1.4
                0x0000000008004478        0x4 /home/vladimir/.arduino15/packages/arduino/tools/arm-none-eabi-gcc/4.8.3-2014q1/bin/../lib/gcc/arm-none-eabi/4.8.3/../../../../arm-none-eabi/lib/armv7-m/libc.a(lib_a-impure.o)
 .rodata._global_impure_ptr
                0x000000000800447c        0x4 /home/vladimir/.arduino15/packages/arduino/tools/arm-none-eabi-gcc/4.8.3-2014q1/bin/../lib/gcc/arm-none-eabi/4.8.3/../../../../arm-none-eabi/lib/armv7-m/libc.a(lib_a-impure.o)
                0x000000000800447c                _global_impure_ptr
 *(.USER_FLASH)
                0x0000000008004480                . = ALIGN (0x4)
                0x0000000008004480                _lm_rom_img_cfgp = .
                0x0000000008004480        0x4 LONG 0x8003888 LOADADDR (.data)
                0x0000000020000c20                _lm_heap_start = DEFINED (_lm_heap_start)?_lm_heap_start:_end
                0x0000000020005000                _lm_heap_end = DEFINED (_lm_heap_end)?_lm_heap_end:__msp_init

.rel.dyn        0x0000000008004484        0x0
 .rel.iplt      0x0000000000000000        0x0 /home/vladimir/.arduino15/packages/arduino/tools/arm-none-eabi-gcc/4.8.3-2014q1/bin/../lib/gcc/arm-none-eabi/4.8.3/armv7-m/crtbegin.o

.bss            0x0000000020000870      0x3b0
                0x0000000020000870                . = ALIGN (0x8)
                0x0000000020000870                __bss_start__ = .
 *(.bss .bss.* .gnu.linkonce.b.*)
 .bss           0x0000000020000870       0x1c /home/vladimir/.arduino15/packages/arduino/tools/arm-none-eabi-gcc/4.8.3-2014q1/bin/../lib/gcc/arm-none-eabi/4.8.3/armv7-m/crtbegin.o
 .bss.thermocouple
                0x000000002000088c        0x3 /home/vladimir/Documentos/SOFTWARE/arduino/BluePill/primeros_ejemplos/Thermocouple/build/sketch/Thermocouple.ino.cpp.o
                0x000000002000088c                thermocouple
 *fill*         0x000000002000088f        0x1 
 .bss.temp      0x0000000020000890        0x4 /home/vladimir/Documentos/SOFTWARE/arduino/BluePill/primeros_ejemplos/Thermocouple/build/sketch/Thermocouple.ino.cpp.o
                0x0000000020000890                temp
 .bss.Serial1   0x0000000020000894       0x18 /home/vladimir/Documentos/SOFTWARE/arduino/BluePill/primeros_ejemplos/Thermocouple/build/core/board.cpp.o
                0x0000000020000894                Serial1
 .bss.Serial2   0x00000000200008ac       0x18 /home/vladimir/Documentos/SOFTWARE/arduino/BluePill/primeros_ejemplos/Thermocouple/build/core/board.cpp.o
                0x00000000200008ac                Serial2
 .bss.Serial3   0x00000000200008c4       0x18 /home/vladimir/Documentos/SOFTWARE/arduino/BluePill/primeros_ejemplos/Thermocouple/build/core/board.cpp.o
                0x00000000200008c4                Serial3
 .bss.exti_channels
                0x00000000200008dc       0x80 /home/vladimir/Documentos/SOFTWARE/arduino/BluePill/primeros_ejemplos/Thermocouple/build/core/core.a(exti.c.o)
 .bss.systick_user_callback
                0x000000002000095c        0x4 /home/vladimir/Documentos/SOFTWARE/arduino/BluePill/primeros_ejemplos/Thermocouple/build/core/core.a(systick.c.o)
 .bss.usart1_wb
                0x0000000020000960        0xc /home/vladimir/Documentos/SOFTWARE/arduino/BluePill/primeros_ejemplos/Thermocouple/build/core/core.a(usart_f1.c.o)
 .bss.usart1_rb
                0x000000002000096c        0xc /home/vladimir/Documentos/SOFTWARE/arduino/BluePill/primeros_ejemplos/Thermocouple/build/core/core.a(usart_f1.c.o)
 .bss.usart2_rb
                0x0000000020000978        0xc /home/vladimir/Documentos/SOFTWARE/arduino/BluePill/primeros_ejemplos/Thermocouple/build/core/core.a(usart_f1.c.o)
 .bss.usart3_rb
                0x0000000020000984        0xc /home/vladimir/Documentos/SOFTWARE/arduino/BluePill/primeros_ejemplos/Thermocouple/build/core/core.a(usart_f1.c.o)
 .bss.usart2_wb
                0x0000000020000990        0xc /home/vladimir/Documentos/SOFTWARE/arduino/BluePill/primeros_ejemplos/Thermocouple/build/core/core.a(usart_f1.c.o)
 .bss.usart3_wb
                0x000000002000099c        0xc /home/vladimir/Documentos/SOFTWARE/arduino/BluePill/primeros_ejemplos/Thermocouple/build/core/core.a(usart_f1.c.o)
 .bss.line_dtr_rts
                0x00000000200009a8        0x1 /home/vladimir/Documentos/SOFTWARE/arduino/BluePill/primeros_ejemplos/Thermocouple/build/core/core.a(usb_cdcacm.c.o)
 .bss.vcomBufferTx
                0x00000000200009a9      0x100 /home/vladimir/Documentos/SOFTWARE/arduino/BluePill/primeros_ejemplos/Thermocouple/build/core/core.a(usb_cdcacm.c.o)
 *fill*         0x0000000020000aa9        0x3 
 .bss.tx_head   0x0000000020000aac        0x4 /home/vladimir/Documentos/SOFTWARE/arduino/BluePill/primeros_ejemplos/Thermocouple/build/core/core.a(usb_cdcacm.c.o)
 .bss.rx_hook   0x0000000020000ab0        0x4 /home/vladimir/Documentos/SOFTWARE/arduino/BluePill/primeros_ejemplos/Thermocouple/build/core/core.a(usb_cdcacm.c.o)
 .bss.vcomBufferRx
                0x0000000020000ab4      0x100 /home/vladimir/Documentos/SOFTWARE/arduino/BluePill/primeros_ejemplos/Thermocouple/build/core/core.a(usb_cdcacm.c.o)
 .bss.transmitting
                0x0000000020000bb4        0x1 /home/vladimir/Documentos/SOFTWARE/arduino/BluePill/primeros_ejemplos/Thermocouple/build/core/core.a(usb_cdcacm.c.o)
 *fill*         0x0000000020000bb5        0x3 
 .bss.rx_tail   0x0000000020000bb8        0x4 /home/vladimir/Documentos/SOFTWARE/arduino/BluePill/primeros_ejemplos/Thermocouple/build/core/core.a(usb_cdcacm.c.o)
 .bss.iface_setup_hook
                0x0000000020000bbc        0x4 /home/vladimir/Documentos/SOFTWARE/arduino/BluePill/primeros_ejemplos/Thermocouple/build/core/core.a(usb_cdcacm.c.o)
 .bss.rx_head   0x0000000020000bc0        0x4 /home/vladimir/Documentos/SOFTWARE/arduino/BluePill/primeros_ejemplos/Thermocouple/build/core/core.a(usb_cdcacm.c.o)
 .bss.tx_tail   0x0000000020000bc4        0x4 /home/vladimir/Documentos/SOFTWARE/arduino/BluePill/primeros_ejemplos/Thermocouple/build/core/core.a(usb_cdcacm.c.o)
 .bss.Data_Mul_MaxPacketSize
                0x0000000020000bc8        0x1 /home/vladimir/Documentos/SOFTWARE/arduino/BluePill/primeros_ejemplos/Thermocouple/build/core/core.a(usb_core.c.o)
                0x0000000020000bc8                Data_Mul_MaxPacketSize
 .bss._ZN9USBSerial9_hasBegunE
                0x0000000020000bc9        0x1 /home/vladimir/Documentos/SOFTWARE/arduino/BluePill/primeros_ejemplos/Thermocouple/build/core/core.a(usb_serial.cpp.o)
                0x0000000020000bc9                USBSerial::_hasBegun
 *fill*         0x0000000020000bca        0x2 
 .bss.Serial    0x0000000020000bcc       0x10 /home/vladimir/Documentos/SOFTWARE/arduino/BluePill/primeros_ejemplos/Thermocouple/build/core/core.a(usb_serial.cpp.o)
                0x0000000020000bcc                Serial
 .bss._ZL11reset_state
                0x0000000020000bdc        0x1 /home/vladimir/Documentos/SOFTWARE/arduino/BluePill/primeros_ejemplos/Thermocouple/build/core/core.a(usb_serial.cpp.o)
 .bss._ZN9USBSerial11_isBlockingE
                0x0000000020000bdd        0x1 /home/vladimir/Documentos/SOFTWARE/arduino/BluePill/primeros_ejemplos/Thermocouple/build/core/core.a(usb_serial.cpp.o)
                0x0000000020000bdd                USBSerial::_isBlocking
 *(COMMON)
 *fill*         0x0000000020000bde        0x2 
 COMMON         0x0000000020000be0        0x4 /home/vladimir/Documentos/SOFTWARE/arduino/BluePill/primeros_ejemplos/Thermocouple/build/core/core.a(systick.c.o)
                0x0000000020000be0                systick_uptime_millis
 COMMON         0x0000000020000be4        0x6 /home/vladimir/Documentos/SOFTWARE/arduino/BluePill/primeros_ejemplos/Thermocouple/build/core/core.a(usb.c.o)
                0x0000000020000be4                SaveRState
                0x0000000020000be6                SaveTState
                0x0000000020000be8                ResumeS
 COMMON         0x0000000020000bea        0x2 /home/vladimir/Documentos/SOFTWARE/arduino/BluePill/primeros_ejemplos/Thermocouple/build/core/core.a(usb_core.c.o)
                0x0000000020000bea                StatusInfo
 COMMON         0x0000000020000bec       0x32 /home/vladimir/Documentos/SOFTWARE/arduino/BluePill/primeros_ejemplos/Thermocouple/build/core/core.a(usb_init.c.o)
                0x0000000020000bec                SaveState
                0x0000000020000bf0                pProperty
                0x0000000020000bf4                EPindex
                0x0000000020000bf8                Device_Info
                0x0000000020000c14                pUser_Standard_Requests
                0x0000000020000c18                pInformation
                0x0000000020000c1c                wInterrupt_Mask
                0x0000000020000c20                . = ALIGN (0x8)
 *fill*         0x0000000020000c1e        0x2 
                0x0000000020000c20                __bss_end__ = .
                0x0000000020000c20                _end = __bss_end__

.stab
 *(.stab)

.stabstr
 *(.stabstr)

.debug
 *(.debug)

.line
 *(.line)

.debug_srcinfo
 *(.debug_srcinfo)

.debug_sfnames
 *(.debug_sfnames)

.debug_aranges  0x0000000000000000      0xfc8
 *(.debug_aranges)
 .debug_aranges
                0x0000000000000000       0x30 /home/vladimir/Documentos/SOFTWARE/arduino/BluePill/primeros_ejemplos/Thermocouple/build/sketch/Thermocouple.ino.cpp.o
 .debug_aranges
                0x0000000000000030       0x38 /home/vladimir/Documentos/SOFTWARE/arduino/BluePill/primeros_ejemplos/Thermocouple/build/libraries/MAX6675_library-1.0.1/max6675.cpp.o
 .debug_aranges
                0x0000000000000068       0x20 /home/vladimir/Documentos/SOFTWARE/arduino/BluePill/primeros_ejemplos/Thermocouple/build/core/wirish/start.S.o
 .debug_aranges
                0x0000000000000088       0x20 /home/vladimir/Documentos/SOFTWARE/arduino/BluePill/primeros_ejemplos/Thermocouple/build/core/wirish/start_c.c.o
 .debug_aranges
                0x00000000000000a8       0x88 /home/vladimir/Documentos/SOFTWARE/arduino/BluePill/primeros_ejemplos/Thermocouple/build/core/wirish/syscalls.c.o
 .debug_aranges
                0x0000000000000130       0x28 /home/vladimir/Documentos/SOFTWARE/arduino/BluePill/primeros_ejemplos/Thermocouple/build/core/board.cpp.o
 .debug_aranges
                0x0000000000000158       0x40 /home/vladimir/Documentos/SOFTWARE/arduino/BluePill/primeros_ejemplos/Thermocouple/build/core/wirish/boards.cpp.o
 .debug_aranges
                0x0000000000000198       0x40 /home/vladimir/Documentos/SOFTWARE/arduino/BluePill/primeros_ejemplos/Thermocouple/build/core/wirish/boards_setup.cpp.o
 .debug_aranges
                0x00000000000001d8       0x20 /home/vladimir/Documentos/SOFTWARE/arduino/BluePill/primeros_ejemplos/Thermocouple/build/core/core.a(exc.S.o)
 .debug_aranges
                0x00000000000001f8       0x20 /home/vladimir/Documentos/SOFTWARE/arduino/BluePill/primeros_ejemplos/Thermocouple/build/core/core.a(isrs.S.o)
 .debug_aranges
                0x0000000000000218       0x38 /home/vladimir/Documentos/SOFTWARE/arduino/BluePill/primeros_ejemplos/Thermocouple/build/core/core.a(adc.c.o)
 .debug_aranges
                0x0000000000000250       0x58 /home/vladimir/Documentos/SOFTWARE/arduino/BluePill/primeros_ejemplos/Thermocouple/build/core/core.a(adc_f1.c.o)
 .debug_aranges
                0x00000000000002a8       0xa8 /home/vladimir/Documentos/SOFTWARE/arduino/BluePill/primeros_ejemplos/Thermocouple/build/core/core.a(dma_f1.c.o)
 .debug_aranges
                0x0000000000000350       0x70 /home/vladimir/Documentos/SOFTWARE/arduino/BluePill/primeros_ejemplos/Thermocouple/build/core/core.a(exti.c.o)
 .debug_aranges
                0x00000000000003c0       0x20 /home/vladimir/Documentos/SOFTWARE/arduino/BluePill/primeros_ejemplos/Thermocouple/build/core/core.a(exti_f1.c.o)
 .debug_aranges
                0x00000000000003e0       0x20 /home/vladimir/Documentos/SOFTWARE/arduino/BluePill/primeros_ejemplos/Thermocouple/build/core/core.a(flash.c.o)
 .debug_aranges
                0x0000000000000400       0x40 /home/vladimir/Documentos/SOFTWARE/arduino/BluePill/primeros_ejemplos/Thermocouple/build/core/core.a(gpio_f1.c.o)
 .debug_aranges
                0x0000000000000440       0x50 /home/vladimir/Documentos/SOFTWARE/arduino/BluePill/primeros_ejemplos/Thermocouple/build/core/core.a(i2c_f1.c.o)
 .debug_aranges
                0x0000000000000490       0x38 /home/vladimir/Documentos/SOFTWARE/arduino/BluePill/primeros_ejemplos/Thermocouple/build/core/core.a(nvic.c.o)
 .debug_aranges
                0x00000000000004c8       0x48 /home/vladimir/Documentos/SOFTWARE/arduino/BluePill/primeros_ejemplos/Thermocouple/build/core/core.a(rcc.c.o)
 .debug_aranges
                0x0000000000000510       0x48 /home/vladimir/Documentos/SOFTWARE/arduino/BluePill/primeros_ejemplos/Thermocouple/build/core/core.a(rcc_f1.c.o)
 .debug_aranges
                0x0000000000000558       0x40 /home/vladimir/Documentos/SOFTWARE/arduino/BluePill/primeros_ejemplos/Thermocouple/build/core/core.a(systick.c.o)
 .debug_aranges
                0x0000000000000598       0xa8 /home/vladimir/Documentos/SOFTWARE/arduino/BluePill/primeros_ejemplos/Thermocouple/build/core/core.a(timer.c.o)
 .debug_aranges
                0x0000000000000640       0x58 /home/vladimir/Documentos/SOFTWARE/arduino/BluePill/primeros_ejemplos/Thermocouple/build/core/core.a(usart_f1.c.o)
 .debug_aranges
                0x0000000000000698       0x20 /home/vladimir/Documentos/SOFTWARE/arduino/BluePill/primeros_ejemplos/Thermocouple/build/core/core.a(usart_private.c.o)
 .debug_aranges
                0x00000000000006b8       0x50 /home/vladimir/Documentos/SOFTWARE/arduino/BluePill/primeros_ejemplos/Thermocouple/build/core/core.a(util.c.o)
 .debug_aranges
                0x0000000000000708       0x38 /home/vladimir/Documentos/SOFTWARE/arduino/BluePill/primeros_ejemplos/Thermocouple/build/core/core.a(usb.c.o)
 .debug_aranges
                0x0000000000000740      0x128 /home/vladimir/Documentos/SOFTWARE/arduino/BluePill/primeros_ejemplos/Thermocouple/build/core/core.a(usb_cdcacm.c.o)
 .debug_aranges
                0x0000000000000868       0x20 /home/vladimir/Documentos/SOFTWARE/arduino/BluePill/primeros_ejemplos/Thermocouple/build/core/core.a(usb_reg_map.c.o)
 .debug_aranges
                0x0000000000000888       0x98 /home/vladimir/Documentos/SOFTWARE/arduino/BluePill/primeros_ejemplos/Thermocouple/build/core/core.a(usb_core.c.o)
 .debug_aranges
                0x0000000000000920       0x20 /home/vladimir/Documentos/SOFTWARE/arduino/BluePill/primeros_ejemplos/Thermocouple/build/core/core.a(usb_init.c.o)
 .debug_aranges
                0x0000000000000940       0x28 /home/vladimir/Documentos/SOFTWARE/arduino/BluePill/primeros_ejemplos/Thermocouple/build/core/core.a(usb_mem.c.o)
 .debug_aranges
                0x0000000000000968      0x1f0 /home/vladimir/Documentos/SOFTWARE/arduino/BluePill/primeros_ejemplos/Thermocouple/build/core/core.a(usb_regs.c.o)
 .debug_aranges
                0x0000000000000b58       0x70 /home/vladimir/Documentos/SOFTWARE/arduino/BluePill/primeros_ejemplos/Thermocouple/build/core/core.a(HardwareSerial.cpp.o)
 .debug_aranges
                0x0000000000000bc8      0x110 /home/vladimir/Documentos/SOFTWARE/arduino/BluePill/primeros_ejemplos/Thermocouple/build/core/core.a(Print.cpp.o)
 .debug_aranges
                0x0000000000000cd8       0x20 /home/vladimir/Documentos/SOFTWARE/arduino/BluePill/primeros_ejemplos/Thermocouple/build/core/core.a(cxxabi-compat.cpp.o)
 .debug_aranges
                0x0000000000000cf8       0x28 /home/vladimir/Documentos/SOFTWARE/arduino/BluePill/primeros_ejemplos/Thermocouple/build/core/core.a(main.cpp.o)
 .debug_aranges
                0x0000000000000d20       0xe0 /home/vladimir/Documentos/SOFTWARE/arduino/BluePill/primeros_ejemplos/Thermocouple/build/core/core.a(usb_serial.cpp.o)
 .debug_aranges
                0x0000000000000e00       0x28 /home/vladimir/Documentos/SOFTWARE/arduino/BluePill/primeros_ejemplos/Thermocouple/build/core/core.a(wirish_digital.cpp.o)
 .debug_aranges
                0x0000000000000e28       0x30 /home/vladimir/Documentos/SOFTWARE/arduino/BluePill/primeros_ejemplos/Thermocouple/build/core/core.a(wirish_time.cpp.o)
 .debug_aranges
                0x0000000000000e58       0x20 /home/vladimir/Documentos/SOFTWARE/arduino/BluePill/primeros_ejemplos/Thermocouple/build/core/core.a(wirish_digital_f1.cpp.o)
 .debug_aranges
                0x0000000000000e78       0x20 /home/vladimir/Documentos/SOFTWARE/arduino/BluePill/primeros_ejemplos/Thermocouple/build/core/core.a(hooks.c.o)
 .debug_aranges
                0x0000000000000e98       0x40 /home/vladimir/Documentos/SOFTWARE/arduino/BluePill/primeros_ejemplos/Thermocouple/build/core/core.a(bkp_f1.c.o)
 .debug_aranges
                0x0000000000000ed8       0x28 /home/vladimir/Documentos/SOFTWARE/arduino/BluePill/primeros_ejemplos/Thermocouple/build/core/core.a(dma.c.o)
 .debug_aranges
                0x0000000000000f00       0x20 /home/vladimir/Documentos/SOFTWARE/arduino/BluePill/primeros_ejemplos/Thermocouple/build/core/core.a(gpio.c.o)
 .debug_aranges
                0x0000000000000f20       0x60 /home/vladimir/Documentos/SOFTWARE/arduino/BluePill/primeros_ejemplos/Thermocouple/build/core/core.a(i2c.c.o)
 .debug_aranges
                0x0000000000000f80       0x48 /home/vladimir/Documentos/SOFTWARE/arduino/BluePill/primeros_ejemplos/Thermocouple/build/core/core.a(usart.c.o)

.debug_pubnames
 *(.debug_pubnames)

.debug_info     0x0000000000000000    0x20591
 *(.debug_info .gnu.linkonce.wi.*)
 .debug_info    0x0000000000000000      0x4d6 /home/vladimir/Documentos/SOFTWARE/arduino/BluePill/primeros_ejemplos/Thermocouple/build/sketch/Thermocouple.ino.cpp.o
 .debug_info    0x00000000000004d6      0x51b /home/vladimir/Documentos/SOFTWARE/arduino/BluePill/primeros_ejemplos/Thermocouple/build/libraries/MAX6675_library-1.0.1/max6675.cpp.o
 .debug_info    0x00000000000009f1       0xea /home/vladimir/Documentos/SOFTWARE/arduino/BluePill/primeros_ejemplos/Thermocouple/build/core/wirish/start.S.o
 .debug_info    0x0000000000000adb      0x176 /home/vladimir/Documentos/SOFTWARE/arduino/BluePill/primeros_ejemplos/Thermocouple/build/core/wirish/start_c.c.o
 .debug_info    0x0000000000000c51      0x5cd /home/vladimir/Documentos/SOFTWARE/arduino/BluePill/primeros_ejemplos/Thermocouple/build/core/wirish/syscalls.c.o
 .debug_info    0x000000000000121e      0xf2e /home/vladimir/Documentos/SOFTWARE/arduino/BluePill/primeros_ejemplos/Thermocouple/build/core/board.cpp.o
 .debug_info    0x000000000000214c     0x142d /home/vladimir/Documentos/SOFTWARE/arduino/BluePill/primeros_ejemplos/Thermocouple/build/core/wirish/boards.cpp.o
 .debug_info    0x0000000000003579     0x10c5 /home/vladimir/Documentos/SOFTWARE/arduino/BluePill/primeros_ejemplos/Thermocouple/build/core/wirish/boards_setup.cpp.o
 .debug_info    0x000000000000463e       0xda /home/vladimir/Documentos/SOFTWARE/arduino/BluePill/primeros_ejemplos/Thermocouple/build/core/core.a(exc.S.o)
 .debug_info    0x0000000000004718       0xef /home/vladimir/Documentos/SOFTWARE/arduino/BluePill/primeros_ejemplos/Thermocouple/build/core/core.a(isrs.S.o)
 .debug_info    0x0000000000004807      0x79a /home/vladimir/Documentos/SOFTWARE/arduino/BluePill/primeros_ejemplos/Thermocouple/build/core/core.a(adc.c.o)
 .debug_info    0x0000000000004fa1      0xe4a /home/vladimir/Documentos/SOFTWARE/arduino/BluePill/primeros_ejemplos/Thermocouple/build/core/core.a(adc_f1.c.o)
 .debug_info    0x0000000000005deb     0x19f2 /home/vladimir/Documentos/SOFTWARE/arduino/BluePill/primeros_ejemplos/Thermocouple/build/core/core.a(dma_f1.c.o)
 .debug_info    0x00000000000077dd      0xedd /home/vladimir/Documentos/SOFTWARE/arduino/BluePill/primeros_ejemplos/Thermocouple/build/core/core.a(exti.c.o)
 .debug_info    0x00000000000086ba      0x213 /home/vladimir/Documentos/SOFTWARE/arduino/BluePill/primeros_ejemplos/Thermocouple/build/core/core.a(exti_f1.c.o)
 .debug_info    0x00000000000088cd      0x128 /home/vladimir/Documentos/SOFTWARE/arduino/BluePill/primeros_ejemplos/Thermocouple/build/core/core.a(flash.c.o)
 .debug_info    0x00000000000089f5      0x6d6 /home/vladimir/Documentos/SOFTWARE/arduino/BluePill/primeros_ejemplos/Thermocouple/build/core/core.a(gpio_f1.c.o)
 .debug_info    0x00000000000090cb      0xbd5 /home/vladimir/Documentos/SOFTWARE/arduino/BluePill/primeros_ejemplos/Thermocouple/build/core/core.a(i2c_f1.c.o)
 .debug_info    0x0000000000009ca0      0x5a2 /home/vladimir/Documentos/SOFTWARE/arduino/BluePill/primeros_ejemplos/Thermocouple/build/core/core.a(nvic.c.o)
 .debug_info    0x000000000000a242      0x556 /home/vladimir/Documentos/SOFTWARE/arduino/BluePill/primeros_ejemplos/Thermocouple/build/core/core.a(rcc.c.o)
 .debug_info    0x000000000000a798      0xb64 /home/vladimir/Documentos/SOFTWARE/arduino/BluePill/primeros_ejemplos/Thermocouple/build/core/core.a(rcc_f1.c.o)
 .debug_info    0x000000000000b2fc      0x182 /home/vladimir/Documentos/SOFTWARE/arduino/BluePill/primeros_ejemplos/Thermocouple/build/core/core.a(systick.c.o)
 .debug_info    0x000000000000b47e     0x1b6f /home/vladimir/Documentos/SOFTWARE/arduino/BluePill/primeros_ejemplos/Thermocouple/build/core/core.a(timer.c.o)
 .debug_info    0x000000000000cfed      0xbc4 /home/vladimir/Documentos/SOFTWARE/arduino/BluePill/primeros_ejemplos/Thermocouple/build/core/core.a(usart_f1.c.o)
 .debug_info    0x000000000000dbb1      0x595 /home/vladimir/Documentos/SOFTWARE/arduino/BluePill/primeros_ejemplos/Thermocouple/build/core/core.a(usart_private.c.o)
 .debug_info    0x000000000000e146      0xad2 /home/vladimir/Documentos/SOFTWARE/arduino/BluePill/primeros_ejemplos/Thermocouple/build/core/core.a(util.c.o)
 .debug_info    0x000000000000ec18      0xd16 /home/vladimir/Documentos/SOFTWARE/arduino/BluePill/primeros_ejemplos/Thermocouple/build/core/core.a(usb.c.o)
 .debug_info    0x000000000000f92e     0x22d2 /home/vladimir/Documentos/SOFTWARE/arduino/BluePill/primeros_ejemplos/Thermocouple/build/core/core.a(usb_cdcacm.c.o)
 .debug_info    0x0000000000011c00      0x26c /home/vladimir/Documentos/SOFTWARE/arduino/BluePill/primeros_ejemplos/Thermocouple/build/core/core.a(usb_reg_map.c.o)
 .debug_info    0x0000000000011e6c      0xddf /home/vladimir/Documentos/SOFTWARE/arduino/BluePill/primeros_ejemplos/Thermocouple/build/core/core.a(usb_core.c.o)
 .debug_info    0x0000000000012c4b      0x3ed /home/vladimir/Documentos/SOFTWARE/arduino/BluePill/primeros_ejemplos/Thermocouple/build/core/core.a(usb_init.c.o)
 .debug_info    0x0000000000013038      0x17b /home/vladimir/Documentos/SOFTWARE/arduino/BluePill/primeros_ejemplos/Thermocouple/build/core/core.a(usb_mem.c.o)
 .debug_info    0x00000000000131b3      0xc88 /home/vladimir/Documentos/SOFTWARE/arduino/BluePill/primeros_ejemplos/Thermocouple/build/core/core.a(usb_regs.c.o)
 .debug_info    0x0000000000013e3b     0x29ea /home/vladimir/Documentos/SOFTWARE/arduino/BluePill/primeros_ejemplos/Thermocouple/build/core/core.a(HardwareSerial.cpp.o)
 .debug_info    0x0000000000016825     0x258c /home/vladimir/Documentos/SOFTWARE/arduino/BluePill/primeros_ejemplos/Thermocouple/build/core/core.a(Print.cpp.o)
 .debug_info    0x0000000000018db1       0x33 /home/vladimir/Documentos/SOFTWARE/arduino/BluePill/primeros_ejemplos/Thermocouple/build/core/core.a(cxxabi-compat.cpp.o)
 .debug_info    0x0000000000018de4       0x99 /home/vladimir/Documentos/SOFTWARE/arduino/BluePill/primeros_ejemplos/Thermocouple/build/core/core.a(main.cpp.o)
 .debug_info    0x0000000000018e7d     0x2b76 /home/vladimir/Documentos/SOFTWARE/arduino/BluePill/primeros_ejemplos/Thermocouple/build/core/core.a(usb_serial.cpp.o)
 .debug_info    0x000000000001b9f3      0xb0b /home/vladimir/Documentos/SOFTWARE/arduino/BluePill/primeros_ejemplos/Thermocouple/build/core/core.a(wirish_digital.cpp.o)
 .debug_info    0x000000000001c4fe      0x2c6 /home/vladimir/Documentos/SOFTWARE/arduino/BluePill/primeros_ejemplos/Thermocouple/build/core/core.a(wirish_time.cpp.o)
 .debug_info    0x000000000001c7c4      0xc8a /home/vladimir/Documentos/SOFTWARE/arduino/BluePill/primeros_ejemplos/Thermocouple/build/core/core.a(wirish_digital_f1.cpp.o)
 .debug_info    0x000000000001d44e       0x33 /home/vladimir/Documentos/SOFTWARE/arduino/BluePill/primeros_ejemplos/Thermocouple/build/core/core.a(hooks.c.o)
 .debug_info    0x000000000001d481      0x4ca /home/vladimir/Documentos/SOFTWARE/arduino/BluePill/primeros_ejemplos/Thermocouple/build/core/core.a(bkp_f1.c.o)
 .debug_info    0x000000000001d94b      0x6f7 /home/vladimir/Documentos/SOFTWARE/arduino/BluePill/primeros_ejemplos/Thermocouple/build/core/core.a(dma.c.o)
 .debug_info    0x000000000001e042      0x313 /home/vladimir/Documentos/SOFTWARE/arduino/BluePill/primeros_ejemplos/Thermocouple/build/core/core.a(gpio.c.o)
 .debug_info    0x000000000001e355     0x160a /home/vladimir/Documentos/SOFTWARE/arduino/BluePill/primeros_ejemplos/Thermocouple/build/core/core.a(i2c.c.o)
 .debug_info    0x000000000001f95f      0xc32 /home/vladimir/Documentos/SOFTWARE/arduino/BluePill/primeros_ejemplos/Thermocouple/build/core/core.a(usart.c.o)

.debug_abbrev   0x0000000000000000     0x63d3
 *(.debug_abbrev)
 .debug_abbrev  0x0000000000000000      0x26d /home/vladimir/Documentos/SOFTWARE/arduino/BluePill/primeros_ejemplos/Thermocouple/build/sketch/Thermocouple.ino.cpp.o
 .debug_abbrev  0x000000000000026d      0x22d /home/vladimir/Documentos/SOFTWARE/arduino/BluePill/primeros_ejemplos/Thermocouple/build/libraries/MAX6675_library-1.0.1/max6675.cpp.o
 .debug_abbrev  0x000000000000049a       0x14 /home/vladimir/Documentos/SOFTWARE/arduino/BluePill/primeros_ejemplos/Thermocouple/build/core/wirish/start.S.o
 .debug_abbrev  0x00000000000004ae      0x11f /home/vladimir/Documentos/SOFTWARE/arduino/BluePill/primeros_ejemplos/Thermocouple/build/core/wirish/start_c.c.o
 .debug_abbrev  0x00000000000005cd      0x17e /home/vladimir/Documentos/SOFTWARE/arduino/BluePill/primeros_ejemplos/Thermocouple/build/core/wirish/syscalls.c.o
 .debug_abbrev  0x000000000000074b      0x1ea /home/vladimir/Documentos/SOFTWARE/arduino/BluePill/primeros_ejemplos/Thermocouple/build/core/board.cpp.o
 .debug_abbrev  0x0000000000000935      0x3dd /home/vladimir/Documentos/SOFTWARE/arduino/BluePill/primeros_ejemplos/Thermocouple/build/core/wirish/boards.cpp.o
 .debug_abbrev  0x0000000000000d12      0x2af /home/vladimir/Documentos/SOFTWARE/arduino/BluePill/primeros_ejemplos/Thermocouple/build/core/wirish/boards_setup.cpp.o
 .debug_abbrev  0x0000000000000fc1       0x14 /home/vladimir/Documentos/SOFTWARE/arduino/BluePill/primeros_ejemplos/Thermocouple/build/core/core.a(exc.S.o)
 .debug_abbrev  0x0000000000000fd5       0x14 /home/vladimir/Documentos/SOFTWARE/arduino/BluePill/primeros_ejemplos/Thermocouple/build/core/core.a(isrs.S.o)
 .debug_abbrev  0x0000000000000fe9      0x20b /home/vladimir/Documentos/SOFTWARE/arduino/BluePill/primeros_ejemplos/Thermocouple/build/core/core.a(adc.c.o)
 .debug_abbrev  0x00000000000011f4      0x2e6 /home/vladimir/Documentos/SOFTWARE/arduino/BluePill/primeros_ejemplos/Thermocouple/build/core/core.a(adc_f1.c.o)
 .debug_abbrev  0x00000000000014da      0x3dd /home/vladimir/Documentos/SOFTWARE/arduino/BluePill/primeros_ejemplos/Thermocouple/build/core/core.a(dma_f1.c.o)
 .debug_abbrev  0x00000000000018b7      0x2a5 /home/vladimir/Documentos/SOFTWARE/arduino/BluePill/primeros_ejemplos/Thermocouple/build/core/core.a(exti.c.o)
 .debug_abbrev  0x0000000000001b5c       0xdb /home/vladimir/Documentos/SOFTWARE/arduino/BluePill/primeros_ejemplos/Thermocouple/build/core/core.a(exti_f1.c.o)
 .debug_abbrev  0x0000000000001c37       0x9f /home/vladimir/Documentos/SOFTWARE/arduino/BluePill/primeros_ejemplos/Thermocouple/build/core/core.a(flash.c.o)
 .debug_abbrev  0x0000000000001cd6      0x191 /home/vladimir/Documentos/SOFTWARE/arduino/BluePill/primeros_ejemplos/Thermocouple/build/core/core.a(gpio_f1.c.o)
 .debug_abbrev  0x0000000000001e67      0x202 /home/vladimir/Documentos/SOFTWARE/arduino/BluePill/primeros_ejemplos/Thermocouple/build/core/core.a(i2c_f1.c.o)
 .debug_abbrev  0x0000000000002069      0x1ac /home/vladimir/Documentos/SOFTWARE/arduino/BluePill/primeros_ejemplos/Thermocouple/build/core/core.a(nvic.c.o)
 .debug_abbrev  0x0000000000002215      0x17f /home/vladimir/Documentos/SOFTWARE/arduino/BluePill/primeros_ejemplos/Thermocouple/build/core/core.a(rcc.c.o)
 .debug_abbrev  0x0000000000002394      0x28c /home/vladimir/Documentos/SOFTWARE/arduino/BluePill/primeros_ejemplos/Thermocouple/build/core/core.a(rcc_f1.c.o)
 .debug_abbrev  0x0000000000002620      0x10f /home/vladimir/Documentos/SOFTWARE/arduino/BluePill/primeros_ejemplos/Thermocouple/build/core/core.a(systick.c.o)
 .debug_abbrev  0x000000000000272f      0x474 /home/vladimir/Documentos/SOFTWARE/arduino/BluePill/primeros_ejemplos/Thermocouple/build/core/core.a(timer.c.o)
 .debug_abbrev  0x0000000000002ba3      0x292 /home/vladimir/Documentos/SOFTWARE/arduino/BluePill/primeros_ejemplos/Thermocouple/build/core/core.a(usart_f1.c.o)
 .debug_abbrev  0x0000000000002e35      0x144 /home/vladimir/Documentos/SOFTWARE/arduino/BluePill/primeros_ejemplos/Thermocouple/build/core/core.a(usart_private.c.o)
 .debug_abbrev  0x0000000000002f79      0x2c9 /home/vladimir/Documentos/SOFTWARE/arduino/BluePill/primeros_ejemplos/Thermocouple/build/core/core.a(util.c.o)
 .debug_abbrev  0x0000000000003242      0x352 /home/vladimir/Documentos/SOFTWARE/arduino/BluePill/primeros_ejemplos/Thermocouple/build/core/core.a(usb.c.o)
 .debug_abbrev  0x0000000000003594      0x47d /home/vladimir/Documentos/SOFTWARE/arduino/BluePill/primeros_ejemplos/Thermocouple/build/core/core.a(usb_cdcacm.c.o)
 .debug_abbrev  0x0000000000003a11      0x193 /home/vladimir/Documentos/SOFTWARE/arduino/BluePill/primeros_ejemplos/Thermocouple/build/core/core.a(usb_reg_map.c.o)
 .debug_abbrev  0x0000000000003ba4      0x3a6 /home/vladimir/Documentos/SOFTWARE/arduino/BluePill/primeros_ejemplos/Thermocouple/build/core/core.a(usb_core.c.o)
 .debug_abbrev  0x0000000000003f4a      0x101 /home/vladimir/Documentos/SOFTWARE/arduino/BluePill/primeros_ejemplos/Thermocouple/build/core/core.a(usb_init.c.o)
 .debug_abbrev  0x000000000000404b       0x90 /home/vladimir/Documentos/SOFTWARE/arduino/BluePill/primeros_ejemplos/Thermocouple/build/core/core.a(usb_mem.c.o)
 .debug_abbrev  0x00000000000040db      0x1f3 /home/vladimir/Documentos/SOFTWARE/arduino/BluePill/primeros_ejemplos/Thermocouple/build/core/core.a(usb_regs.c.o)
 .debug_abbrev  0x00000000000042ce      0x535 /home/vladimir/Documentos/SOFTWARE/arduino/BluePill/primeros_ejemplos/Thermocouple/build/core/core.a(HardwareSerial.cpp.o)
 .debug_abbrev  0x0000000000004803      0x414 /home/vladimir/Documentos/SOFTWARE/arduino/BluePill/primeros_ejemplos/Thermocouple/build/core/core.a(Print.cpp.o)
 .debug_abbrev  0x0000000000004c17       0x28 /home/vladimir/Documentos/SOFTWARE/arduino/BluePill/primeros_ejemplos/Thermocouple/build/core/core.a(cxxabi-compat.cpp.o)
 .debug_abbrev  0x0000000000004c3f       0x7b /home/vladimir/Documentos/SOFTWARE/arduino/BluePill/primeros_ejemplos/Thermocouple/build/core/core.a(main.cpp.o)
 .debug_abbrev  0x0000000000004cba      0x654 /home/vladimir/Documentos/SOFTWARE/arduino/BluePill/primeros_ejemplos/Thermocouple/build/core/core.a(usb_serial.cpp.o)
 .debug_abbrev  0x000000000000530e      0x17e /home/vladimir/Documentos/SOFTWARE/arduino/BluePill/primeros_ejemplos/Thermocouple/build/core/core.a(wirish_digital.cpp.o)
 .debug_abbrev  0x000000000000548c      0x189 /home/vladimir/Documentos/SOFTWARE/arduino/BluePill/primeros_ejemplos/Thermocouple/build/core/core.a(wirish_time.cpp.o)
 .debug_abbrev  0x0000000000005615      0x240 /home/vladimir/Documentos/SOFTWARE/arduino/BluePill/primeros_ejemplos/Thermocouple/build/core/core.a(wirish_digital_f1.cpp.o)
 .debug_abbrev  0x0000000000005855       0x26 /home/vladimir/Documentos/SOFTWARE/arduino/BluePill/primeros_ejemplos/Thermocouple/build/core/core.a(hooks.c.o)
 .debug_abbrev  0x000000000000587b      0x1c4 /home/vladimir/Documentos/SOFTWARE/arduino/BluePill/primeros_ejemplos/Thermocouple/build/core/core.a(bkp_f1.c.o)
 .debug_abbrev  0x0000000000005a3f      0x182 /home/vladimir/Documentos/SOFTWARE/arduino/BluePill/primeros_ejemplos/Thermocouple/build/core/core.a(dma.c.o)
 .debug_abbrev  0x0000000000005bc1      0x113 /home/vladimir/Documentos/SOFTWARE/arduino/BluePill/primeros_ejemplos/Thermocouple/build/core/core.a(gpio.c.o)
 .debug_abbrev  0x0000000000005cd4      0x400 /home/vladimir/Documentos/SOFTWARE/arduino/BluePill/primeros_ejemplos/Thermocouple/build/core/core.a(i2c.c.o)
 .debug_abbrev  0x00000000000060d4      0x2ff /home/vladimir/Documentos/SOFTWARE/arduino/BluePill/primeros_ejemplos/Thermocouple/build/core/core.a(usart.c.o)

.debug_line     0x0000000000000000     0xa1ff
 *(.debug_line)
 .debug_line    0x0000000000000000      0x490 /home/vladimir/Documentos/SOFTWARE/arduino/BluePill/primeros_ejemplos/Thermocouple/build/sketch/Thermocouple.ino.cpp.o
 .debug_line    0x0000000000000490      0x346 /home/vladimir/Documentos/SOFTWARE/arduino/BluePill/primeros_ejemplos/Thermocouple/build/libraries/MAX6675_library-1.0.1/max6675.cpp.o
 .debug_line    0x00000000000007d6       0xa8 /home/vladimir/Documentos/SOFTWARE/arduino/BluePill/primeros_ejemplos/Thermocouple/build/core/wirish/start.S.o
 .debug_line    0x000000000000087e       0xb9 /home/vladimir/Documentos/SOFTWARE/arduino/BluePill/primeros_ejemplos/Thermocouple/build/core/wirish/start_c.c.o
 .debug_line    0x0000000000000937      0x2e4 /home/vladimir/Documentos/SOFTWARE/arduino/BluePill/primeros_ejemplos/Thermocouple/build/core/wirish/syscalls.c.o
 .debug_line    0x0000000000000c1b      0x3fd /home/vladimir/Documentos/SOFTWARE/arduino/BluePill/primeros_ejemplos/Thermocouple/build/core/board.cpp.o
 .debug_line    0x0000000000001018      0x481 /home/vladimir/Documentos/SOFTWARE/arduino/BluePill/primeros_ejemplos/Thermocouple/build/core/wirish/boards.cpp.o
 .debug_line    0x0000000000001499      0x467 /home/vladimir/Documentos/SOFTWARE/arduino/BluePill/primeros_ejemplos/Thermocouple/build/core/wirish/boards_setup.cpp.o
 .debug_line    0x0000000000001900       0xab /home/vladimir/Documentos/SOFTWARE/arduino/BluePill/primeros_ejemplos/Thermocouple/build/core/core.a(exc.S.o)
 .debug_line    0x00000000000019ab       0xa8 /home/vladimir/Documentos/SOFTWARE/arduino/BluePill/primeros_ejemplos/Thermocouple/build/core/core.a(isrs.S.o)
 .debug_line    0x0000000000001a53      0x304 /home/vladimir/Documentos/SOFTWARE/arduino/BluePill/primeros_ejemplos/Thermocouple/build/core/core.a(adc.c.o)
 .debug_line    0x0000000000001d57      0x3b0 /home/vladimir/Documentos/SOFTWARE/arduino/BluePill/primeros_ejemplos/Thermocouple/build/core/core.a(adc_f1.c.o)
 .debug_line    0x0000000000002107      0x639 /home/vladimir/Documentos/SOFTWARE/arduino/BluePill/primeros_ejemplos/Thermocouple/build/core/core.a(dma_f1.c.o)
 .debug_line    0x0000000000002740      0x41a /home/vladimir/Documentos/SOFTWARE/arduino/BluePill/primeros_ejemplos/Thermocouple/build/core/core.a(exti.c.o)
 .debug_line    0x0000000000002b5a      0x2fa /home/vladimir/Documentos/SOFTWARE/arduino/BluePill/primeros_ejemplos/Thermocouple/build/core/core.a(exti_f1.c.o)
 .debug_line    0x0000000000002e54      0x286 /home/vladimir/Documentos/SOFTWARE/arduino/BluePill/primeros_ejemplos/Thermocouple/build/core/core.a(flash.c.o)
 .debug_line    0x00000000000030da      0x31b /home/vladimir/Documentos/SOFTWARE/arduino/BluePill/primeros_ejemplos/Thermocouple/build/core/core.a(gpio_f1.c.o)
 .debug_line    0x00000000000033f5      0x40a /home/vladimir/Documentos/SOFTWARE/arduino/BluePill/primeros_ejemplos/Thermocouple/build/core/core.a(i2c_f1.c.o)
 .debug_line    0x00000000000037ff      0x2ee /home/vladimir/Documentos/SOFTWARE/arduino/BluePill/primeros_ejemplos/Thermocouple/build/core/core.a(nvic.c.o)
 .debug_line    0x0000000000003aed      0x37b /home/vladimir/Documentos/SOFTWARE/arduino/BluePill/primeros_ejemplos/Thermocouple/build/core/core.a(rcc.c.o)
 .debug_line    0x0000000000003e68      0x3c8 /home/vladimir/Documentos/SOFTWARE/arduino/BluePill/primeros_ejemplos/Thermocouple/build/core/core.a(rcc_f1.c.o)
 .debug_line    0x0000000000004230      0x264 /home/vladimir/Documentos/SOFTWARE/arduino/BluePill/primeros_ejemplos/Thermocouple/build/core/core.a(systick.c.o)
 .debug_line    0x0000000000004494      0x5bc /home/vladimir/Documentos/SOFTWARE/arduino/BluePill/primeros_ejemplos/Thermocouple/build/core/core.a(timer.c.o)
 .debug_line    0x0000000000004a50      0x434 /home/vladimir/Documentos/SOFTWARE/arduino/BluePill/primeros_ejemplos/Thermocouple/build/core/core.a(usart_f1.c.o)
 .debug_line    0x0000000000004e84      0x2c2 /home/vladimir/Documentos/SOFTWARE/arduino/BluePill/primeros_ejemplos/Thermocouple/build/core/core.a(usart_private.c.o)
 .debug_line    0x0000000000005146      0x38a /home/vladimir/Documentos/SOFTWARE/arduino/BluePill/primeros_ejemplos/Thermocouple/build/core/core.a(util.c.o)
 .debug_line    0x00000000000054d0      0x4e2 /home/vladimir/Documentos/SOFTWARE/arduino/BluePill/primeros_ejemplos/Thermocouple/build/core/core.a(usb.c.o)
 .debug_line    0x00000000000059b2      0x8f0 /home/vladimir/Documentos/SOFTWARE/arduino/BluePill/primeros_ejemplos/Thermocouple/build/core/core.a(usb_cdcacm.c.o)
 .debug_line    0x00000000000062a2      0x2b7 /home/vladimir/Documentos/SOFTWARE/arduino/BluePill/primeros_ejemplos/Thermocouple/build/core/core.a(usb_reg_map.c.o)
 .debug_line    0x0000000000006559      0x419 /home/vladimir/Documentos/SOFTWARE/arduino/BluePill/primeros_ejemplos/Thermocouple/build/core/core.a(usb_core.c.o)
 .debug_line    0x0000000000006972      0x12e /home/vladimir/Documentos/SOFTWARE/arduino/BluePill/primeros_ejemplos/Thermocouple/build/core/core.a(usb_init.c.o)
 .debug_line    0x0000000000006aa0      0x15a /home/vladimir/Documentos/SOFTWARE/arduino/BluePill/primeros_ejemplos/Thermocouple/build/core/core.a(usb_mem.c.o)
 .debug_line    0x0000000000006bfa      0x592 /home/vladimir/Documentos/SOFTWARE/arduino/BluePill/primeros_ejemplos/Thermocouple/build/core/core.a(usb_regs.c.o)
 .debug_line    0x000000000000718c      0x50f /home/vladimir/Documentos/SOFTWARE/arduino/BluePill/primeros_ejemplos/Thermocouple/build/core/core.a(HardwareSerial.cpp.o)
 .debug_line    0x000000000000769b      0x589 /home/vladimir/Documentos/SOFTWARE/arduino/BluePill/primeros_ejemplos/Thermocouple/build/core/core.a(Print.cpp.o)
 .debug_line    0x0000000000007c24       0x94 /home/vladimir/Documentos/SOFTWARE/arduino/BluePill/primeros_ejemplos/Thermocouple/build/core/core.a(cxxabi-compat.cpp.o)
 .debug_line    0x0000000000007cb8       0xa3 /home/vladimir/Documentos/SOFTWARE/arduino/BluePill/primeros_ejemplos/Thermocouple/build/core/core.a(main.cpp.o)
 .debug_line    0x0000000000007d5b      0x6a8 /home/vladimir/Documentos/SOFTWARE/arduino/BluePill/primeros_ejemplos/Thermocouple/build/core/core.a(usb_serial.cpp.o)
 .debug_line    0x0000000000008403      0x338 /home/vladimir/Documentos/SOFTWARE/arduino/BluePill/primeros_ejemplos/Thermocouple/build/core/core.a(wirish_digital.cpp.o)
 .debug_line    0x000000000000873b      0x31c /home/vladimir/Documentos/SOFTWARE/arduino/BluePill/primeros_ejemplos/Thermocouple/build/core/core.a(wirish_time.cpp.o)
 .debug_line    0x0000000000008a57      0x3a8 /home/vladimir/Documentos/SOFTWARE/arduino/BluePill/primeros_ejemplos/Thermocouple/build/core/core.a(wirish_digital_f1.cpp.o)
 .debug_line    0x0000000000008dff       0x8c /home/vladimir/Documentos/SOFTWARE/arduino/BluePill/primeros_ejemplos/Thermocouple/build/core/core.a(hooks.c.o)
 .debug_line    0x0000000000008e8b      0x300 /home/vladimir/Documentos/SOFTWARE/arduino/BluePill/primeros_ejemplos/Thermocouple/build/core/core.a(bkp_f1.c.o)
 .debug_line    0x000000000000918b      0x344 /home/vladimir/Documentos/SOFTWARE/arduino/BluePill/primeros_ejemplos/Thermocouple/build/core/core.a(dma.c.o)
 .debug_line    0x00000000000094cf      0x2ab /home/vladimir/Documentos/SOFTWARE/arduino/BluePill/primeros_ejemplos/Thermocouple/build/core/core.a(gpio.c.o)
 .debug_line    0x000000000000977a      0x669 /home/vladimir/Documentos/SOFTWARE/arduino/BluePill/primeros_ejemplos/Thermocouple/build/core/core.a(i2c.c.o)
 .debug_line    0x0000000000009de3      0x41c /home/vladimir/Documentos/SOFTWARE/arduino/BluePill/primeros_ejemplos/Thermocouple/build/core/core.a(usart.c.o)

.debug_frame    0x0000000000000000     0x2424
 *(.debug_frame)
 .debug_frame   0x0000000000000000       0x58 /home/vladimir/Documentos/SOFTWARE/arduino/BluePill/primeros_ejemplos/Thermocouple/build/sketch/Thermocouple.ino.cpp.o
 .debug_frame   0x0000000000000058       0x78 /home/vladimir/Documentos/SOFTWARE/arduino/BluePill/primeros_ejemplos/Thermocouple/build/libraries/MAX6675_library-1.0.1/max6675.cpp.o
 .debug_frame   0x00000000000000d0       0x28 /home/vladimir/Documentos/SOFTWARE/arduino/BluePill/primeros_ejemplos/Thermocouple/build/core/wirish/start_c.c.o
 .debug_frame   0x00000000000000f8      0x130 /home/vladimir/Documentos/SOFTWARE/arduino/BluePill/primeros_ejemplos/Thermocouple/build/core/wirish/syscalls.c.o
 .debug_frame   0x0000000000000228       0x38 /home/vladimir/Documentos/SOFTWARE/arduino/BluePill/primeros_ejemplos/Thermocouple/build/core/board.cpp.o
 .debug_frame   0x0000000000000260       0x84 /home/vladimir/Documentos/SOFTWARE/arduino/BluePill/primeros_ejemplos/Thermocouple/build/core/wirish/boards.cpp.o
 .debug_frame   0x00000000000002e4       0x74 /home/vladimir/Documentos/SOFTWARE/arduino/BluePill/primeros_ejemplos/Thermocouple/build/core/wirish/boards_setup.cpp.o
 .debug_frame   0x0000000000000358       0x64 /home/vladimir/Documentos/SOFTWARE/arduino/BluePill/primeros_ejemplos/Thermocouple/build/core/core.a(adc.c.o)
 .debug_frame   0x00000000000003bc       0xb4 /home/vladimir/Documentos/SOFTWARE/arduino/BluePill/primeros_ejemplos/Thermocouple/build/core/core.a(adc_f1.c.o)
 .debug_frame   0x0000000000000470      0x19c /home/vladimir/Documentos/SOFTWARE/arduino/BluePill/primeros_ejemplos/Thermocouple/build/core/core.a(dma_f1.c.o)
 .debug_frame   0x000000000000060c      0x128 /home/vladimir/Documentos/SOFTWARE/arduino/BluePill/primeros_ejemplos/Thermocouple/build/core/core.a(exti.c.o)
 .debug_frame   0x0000000000000734       0x20 /home/vladimir/Documentos/SOFTWARE/arduino/BluePill/primeros_ejemplos/Thermocouple/build/core/core.a(exti_f1.c.o)
 .debug_frame   0x0000000000000754       0x20 /home/vladimir/Documentos/SOFTWARE/arduino/BluePill/primeros_ejemplos/Thermocouple/build/core/core.a(flash.c.o)
 .debug_frame   0x0000000000000774       0x7c /home/vladimir/Documentos/SOFTWARE/arduino/BluePill/primeros_ejemplos/Thermocouple/build/core/core.a(gpio_f1.c.o)
 .debug_frame   0x00000000000007f0       0x9c /home/vladimir/Documentos/SOFTWARE/arduino/BluePill/primeros_ejemplos/Thermocouple/build/core/core.a(i2c_f1.c.o)
 .debug_frame   0x000000000000088c       0x5c /home/vladimir/Documentos/SOFTWARE/arduino/BluePill/primeros_ejemplos/Thermocouple/build/core/core.a(nvic.c.o)
 .debug_frame   0x00000000000008e8       0x70 /home/vladimir/Documentos/SOFTWARE/arduino/BluePill/primeros_ejemplos/Thermocouple/build/core/core.a(rcc.c.o)
 .debug_frame   0x0000000000000958       0x98 /home/vladimir/Documentos/SOFTWARE/arduino/BluePill/primeros_ejemplos/Thermocouple/build/core/core.a(rcc_f1.c.o)
 .debug_frame   0x00000000000009f0       0x68 /home/vladimir/Documentos/SOFTWARE/arduino/BluePill/primeros_ejemplos/Thermocouple/build/core/core.a(systick.c.o)
 .debug_frame   0x0000000000000a58      0x1d0 /home/vladimir/Documentos/SOFTWARE/arduino/BluePill/primeros_ejemplos/Thermocouple/build/core/core.a(timer.c.o)
 .debug_frame   0x0000000000000c28       0xe0 /home/vladimir/Documentos/SOFTWARE/arduino/BluePill/primeros_ejemplos/Thermocouple/build/core/core.a(usart_f1.c.o)
 .debug_frame   0x0000000000000d08       0x28 /home/vladimir/Documentos/SOFTWARE/arduino/BluePill/primeros_ejemplos/Thermocouple/build/core/core.a(usart_private.c.o)
 .debug_frame   0x0000000000000d30       0xc8 /home/vladimir/Documentos/SOFTWARE/arduino/BluePill/primeros_ejemplos/Thermocouple/build/core/core.a(util.c.o)
 .debug_frame   0x0000000000000df8       0x6c /home/vladimir/Documentos/SOFTWARE/arduino/BluePill/primeros_ejemplos/Thermocouple/build/core/core.a(usb.c.o)
 .debug_frame   0x0000000000000e64      0x2cc /home/vladimir/Documentos/SOFTWARE/arduino/BluePill/primeros_ejemplos/Thermocouple/build/core/core.a(usb_cdcacm.c.o)
 .debug_frame   0x0000000000001130       0x20 /home/vladimir/Documentos/SOFTWARE/arduino/BluePill/primeros_ejemplos/Thermocouple/build/core/core.a(usb_reg_map.c.o)
 .debug_frame   0x0000000000001150      0x1ac /home/vladimir/Documentos/SOFTWARE/arduino/BluePill/primeros_ejemplos/Thermocouple/build/core/core.a(usb_core.c.o)
 .debug_frame   0x00000000000012fc       0x28 /home/vladimir/Documentos/SOFTWARE/arduino/BluePill/primeros_ejemplos/Thermocouple/build/core/core.a(usb_init.c.o)
 .debug_frame   0x0000000000001324       0x44 /home/vladimir/Documentos/SOFTWARE/arduino/BluePill/primeros_ejemplos/Thermocouple/build/core/core.a(usb_mem.c.o)
 .debug_frame   0x0000000000001368      0x3d0 /home/vladimir/Documentos/SOFTWARE/arduino/BluePill/primeros_ejemplos/Thermocouple/build/core/core.a(usb_regs.c.o)
 .debug_frame   0x0000000000001738      0x10c /home/vladimir/Documentos/SOFTWARE/arduino/BluePill/primeros_ejemplos/Thermocouple/build/core/core.a(HardwareSerial.cpp.o)
 .debug_frame   0x0000000000001844      0x378 /home/vladimir/Documentos/SOFTWARE/arduino/BluePill/primeros_ejemplos/Thermocouple/build/core/core.a(Print.cpp.o)
 .debug_frame   0x0000000000001bbc       0x20 /home/vladimir/Documentos/SOFTWARE/arduino/BluePill/primeros_ejemplos/Thermocouple/build/core/core.a(cxxabi-compat.cpp.o)
 .debug_frame   0x0000000000001bdc       0x38 /home/vladimir/Documentos/SOFTWARE/arduino/BluePill/primeros_ejemplos/Thermocouple/build/core/core.a(main.cpp.o)
 .debug_frame   0x0000000000001c14      0x258 /home/vladimir/Documentos/SOFTWARE/arduino/BluePill/primeros_ejemplos/Thermocouple/build/core/core.a(usb_serial.cpp.o)
 .debug_frame   0x0000000000001e6c       0x30 /home/vladimir/Documentos/SOFTWARE/arduino/BluePill/primeros_ejemplos/Thermocouple/build/core/core.a(wirish_digital.cpp.o)
 .debug_frame   0x0000000000001e9c       0x4c /home/vladimir/Documentos/SOFTWARE/arduino/BluePill/primeros_ejemplos/Thermocouple/build/core/core.a(wirish_time.cpp.o)
 .debug_frame   0x0000000000001ee8       0x2c /home/vladimir/Documentos/SOFTWARE/arduino/BluePill/primeros_ejemplos/Thermocouple/build/core/core.a(wirish_digital_f1.cpp.o)
 .debug_frame   0x0000000000001f14       0x20 /home/vladimir/Documentos/SOFTWARE/arduino/BluePill/primeros_ejemplos/Thermocouple/build/core/core.a(hooks.c.o)
 .debug_frame   0x0000000000001f34       0x68 /home/vladimir/Documentos/SOFTWARE/arduino/BluePill/primeros_ejemplos/Thermocouple/build/core/core.a(bkp_f1.c.o)
 .debug_frame   0x0000000000001f9c       0x30 /home/vladimir/Documentos/SOFTWARE/arduino/BluePill/primeros_ejemplos/Thermocouple/build/core/core.a(dma.c.o)
 .debug_frame   0x0000000000001fcc       0x28 /home/vladimir/Documentos/SOFTWARE/arduino/BluePill/primeros_ejemplos/Thermocouple/build/core/core.a(gpio.c.o)
 .debug_frame   0x0000000000001ff4       0xe0 /home/vladimir/Documentos/SOFTWARE/arduino/BluePill/primeros_ejemplos/Thermocouple/build/core/core.a(i2c.c.o)
 .debug_frame   0x00000000000020d4       0xb4 /home/vladimir/Documentos/SOFTWARE/arduino/BluePill/primeros_ejemplos/Thermocouple/build/core/core.a(usart.c.o)
 .debug_frame   0x0000000000002188       0x2c /home/vladimir/.arduino15/packages/arduino/tools/arm-none-eabi-gcc/4.8.3-2014q1/bin/../lib/gcc/arm-none-eabi/4.8.3/armv7-m/libgcc.a(_fixdfdi.o)
 .debug_frame   0x00000000000021b4       0x2c /home/vladimir/.arduino15/packages/arduino/tools/arm-none-eabi-gcc/4.8.3-2014q1/bin/../lib/gcc/arm-none-eabi/4.8.3/armv7-m/libgcc.a(_fixunsdfdi.o)
 .debug_frame   0x00000000000021e0       0x58 /home/vladimir/.arduino15/packages/arduino/tools/arm-none-eabi-gcc/4.8.3-2014q1/bin/../lib/gcc/arm-none-eabi/4.8.3/armv7-m/libgcc.a(bpabi.o)
 .debug_frame   0x0000000000002238       0x34 /home/vladimir/.arduino15/packages/arduino/tools/arm-none-eabi-gcc/4.8.3-2014q1/bin/../lib/gcc/arm-none-eabi/4.8.3/armv7-m/libgcc.a(_divdi3.o)
 .debug_frame   0x000000000000226c       0x34 /home/vladimir/.arduino15/packages/arduino/tools/arm-none-eabi-gcc/4.8.3-2014q1/bin/../lib/gcc/arm-none-eabi/4.8.3/armv7-m/libgcc.a(_udivdi3.o)
 .debug_frame   0x00000000000022a0       0x20 /home/vladimir/.arduino15/packages/arduino/tools/arm-none-eabi-gcc/4.8.3-2014q1/bin/../lib/gcc/arm-none-eabi/4.8.3/../../../../arm-none-eabi/lib/armv7-m/libc.a(lib_a-errno.o)
 .debug_frame   0x00000000000022c0       0x28 /home/vladimir/.arduino15/packages/arduino/tools/arm-none-eabi-gcc/4.8.3-2014q1/bin/../lib/gcc/arm-none-eabi/4.8.3/../../../../arm-none-eabi/lib/armv7-m/libc.a(lib_a-exit.o)
 .debug_frame   0x00000000000022e8       0x2c /home/vladimir/.arduino15/packages/arduino/tools/arm-none-eabi-gcc/4.8.3-2014q1/bin/../lib/gcc/arm-none-eabi/4.8.3/../../../../arm-none-eabi/lib/armv7-m/libc.a(lib_a-init.o)
 .debug_frame   0x0000000000002314       0x2c /home/vladimir/.arduino15/packages/arduino/tools/arm-none-eabi-gcc/4.8.3-2014q1/bin/../lib/gcc/arm-none-eabi/4.8.3/../../../../arm-none-eabi/lib/armv7-m/libc.a(lib_a-memset.o)
 .debug_frame   0x0000000000002340       0x20 /home/vladimir/.arduino15/packages/arduino/tools/arm-none-eabi-gcc/4.8.3-2014q1/bin/../lib/gcc/arm-none-eabi/4.8.3/../../../../arm-none-eabi/lib/armv7-m/libc.a(lib_a-strlen.o)
 .debug_frame   0x0000000000002360       0x48 /home/vladimir/.arduino15/packages/arduino/tools/arm-none-eabi-gcc/4.8.3-2014q1/bin/../lib/gcc/arm-none-eabi/4.8.3/../../../../arm-none-eabi/lib/armv7-m/libc.a(lib_a-__call_atexit.o)
 .debug_frame   0x00000000000023a8       0x20 /home/vladimir/.arduino15/packages/arduino/tools/arm-none-eabi-gcc/4.8.3-2014q1/bin/../lib/gcc/arm-none-eabi/4.8.3/../../../../arm-none-eabi/lib/armv7-m/libc.a(lib_a-atexit.o)
 .debug_frame   0x00000000000023c8       0x2c /home/vladimir/.arduino15/packages/arduino/tools/arm-none-eabi-gcc/4.8.3-2014q1/bin/../lib/gcc/arm-none-eabi/4.8.3/../../../../arm-none-eabi/lib/armv7-m/libc.a(lib_a-fini.o)
 .debug_frame   0x00000000000023f4       0x30 /home/vladimir/.arduino15/packages/arduino/tools/arm-none-eabi-gcc/4.8.3-2014q1/bin/../lib/gcc/arm-none-eabi/4.8.3/../../../../arm-none-eabi/lib/armv7-m/libc.a(lib_a-__atexit.o)

.debug_str      0x0000000000000000     0x7b21
 *(.debug_str)
 .debug_str     0x0000000000000000      0x46c /home/vladimir/Documentos/SOFTWARE/arduino/BluePill/primeros_ejemplos/Thermocouple/build/sketch/Thermocouple.ino.cpp.o
                                        0x4ea (size before relaxing)
 .debug_str     0x000000000000046c      0x11f /home/vladimir/Documentos/SOFTWARE/arduino/BluePill/primeros_ejemplos/Thermocouple/build/libraries/MAX6675_library-1.0.1/max6675.cpp.o
                                        0x47d (size before relaxing)
 .debug_str     0x000000000000058b      0x1c1 /home/vladimir/Documentos/SOFTWARE/arduino/BluePill/primeros_ejemplos/Thermocouple/build/core/wirish/start_c.c.o
                                        0x1ff (size before relaxing)
 .debug_str     0x000000000000074c      0x1d3 /home/vladimir/Documentos/SOFTWARE/arduino/BluePill/primeros_ejemplos/Thermocouple/build/core/wirish/syscalls.c.o
                                        0x381 (size before relaxing)
 .debug_str     0x000000000000091f      0xa25 /home/vladimir/Documentos/SOFTWARE/arduino/BluePill/primeros_ejemplos/Thermocouple/build/core/board.cpp.o
                                        0xd2f (size before relaxing)
 .debug_str     0x0000000000001344      0x772 /home/vladimir/Documentos/SOFTWARE/arduino/BluePill/primeros_ejemplos/Thermocouple/build/core/wirish/boards.cpp.o
                                       0x1136 (size before relaxing)
 .debug_str     0x0000000000001ab6      0x525 /home/vladimir/Documentos/SOFTWARE/arduino/BluePill/primeros_ejemplos/Thermocouple/build/core/wirish/boards_setup.cpp.o
                                       0x12ae (size before relaxing)
 .debug_str     0x0000000000001fdb      0x22c /home/vladimir/Documentos/SOFTWARE/arduino/BluePill/primeros_ejemplos/Thermocouple/build/core/core.a(adc.c.o)
                                        0xac9 (size before relaxing)
 .debug_str     0x0000000000002207      0x16b /home/vladimir/Documentos/SOFTWARE/arduino/BluePill/primeros_ejemplos/Thermocouple/build/core/core.a(adc_f1.c.o)
                                        0xde4 (size before relaxing)
 .debug_str     0x0000000000002372      0xac7 /home/vladimir/Documentos/SOFTWARE/arduino/BluePill/primeros_ejemplos/Thermocouple/build/core/core.a(dma_f1.c.o)
                                       0x138c (size before relaxing)
 .debug_str     0x0000000000002e39      0x248 /home/vladimir/Documentos/SOFTWARE/arduino/BluePill/primeros_ejemplos/Thermocouple/build/core/core.a(exti.c.o)
                                        0x943 (size before relaxing)
 .debug_str     0x0000000000003081       0xa5 /home/vladimir/Documentos/SOFTWARE/arduino/BluePill/primeros_ejemplos/Thermocouple/build/core/core.a(exti_f1.c.o)
                                        0x2ee (size before relaxing)
 .debug_str     0x0000000000003126       0x72 /home/vladimir/Documentos/SOFTWARE/arduino/BluePill/primeros_ejemplos/Thermocouple/build/core/core.a(flash.c.o)
                                        0x20d (size before relaxing)
 .debug_str     0x0000000000003198      0x2ac /home/vladimir/Documentos/SOFTWARE/arduino/BluePill/primeros_ejemplos/Thermocouple/build/core/core.a(gpio_f1.c.o)
                                        0x7c5 (size before relaxing)
 .debug_str     0x0000000000003444      0x231 /home/vladimir/Documentos/SOFTWARE/arduino/BluePill/primeros_ejemplos/Thermocouple/build/core/core.a(i2c_f1.c.o)
                                        0xd22 (size before relaxing)
 .debug_str     0x0000000000003675       0xe1 /home/vladimir/Documentos/SOFTWARE/arduino/BluePill/primeros_ejemplos/Thermocouple/build/core/core.a(nvic.c.o)
                                        0x716 (size before relaxing)
 .debug_str     0x0000000000003756      0x105 /home/vladimir/Documentos/SOFTWARE/arduino/BluePill/primeros_ejemplos/Thermocouple/build/core/core.a(rcc.c.o)
                                        0x562 (size before relaxing)
 .debug_str     0x000000000000385b       0xf9 /home/vladimir/Documentos/SOFTWARE/arduino/BluePill/primeros_ejemplos/Thermocouple/build/core/core.a(rcc_f1.c.o)
                                        0x803 (size before relaxing)
 .debug_str     0x0000000000003954       0xde /home/vladimir/Documentos/SOFTWARE/arduino/BluePill/primeros_ejemplos/Thermocouple/build/core/core.a(systick.c.o)
                                        0x273 (size before relaxing)
 .debug_str     0x0000000000003a32      0x3ce /home/vladimir/Documentos/SOFTWARE/arduino/BluePill/primeros_ejemplos/Thermocouple/build/core/core.a(timer.c.o)
                                        0xebc (size before relaxing)
 .debug_str     0x0000000000003e00      0x1a1 /home/vladimir/Documentos/SOFTWARE/arduino/BluePill/primeros_ejemplos/Thermocouple/build/core/core.a(usart_f1.c.o)
                                        0xacd (size before relaxing)
 .debug_str     0x0000000000003fa1       0x6e /home/vladimir/Documentos/SOFTWARE/arduino/BluePill/primeros_ejemplos/Thermocouple/build/core/core.a(usart_private.c.o)
                                        0x898 (size before relaxing)
 .debug_str     0x000000000000400f      0x124 /home/vladimir/Documentos/SOFTWARE/arduino/BluePill/primeros_ejemplos/Thermocouple/build/core/core.a(util.c.o)
                                        0xa45 (size before relaxing)
 .debug_str     0x0000000000004133      0x617 /home/vladimir/Documentos/SOFTWARE/arduino/BluePill/primeros_ejemplos/Thermocouple/build/core/core.a(usb.c.o)
                                        0xa70 (size before relaxing)
 .debug_str     0x000000000000474a      0x9a4 /home/vladimir/Documentos/SOFTWARE/arduino/BluePill/primeros_ejemplos/Thermocouple/build/core/core.a(usb_cdcacm.c.o)
                                       0x1841 (size before relaxing)
 .debug_str     0x00000000000050ee       0x9b /home/vladimir/Documentos/SOFTWARE/arduino/BluePill/primeros_ejemplos/Thermocouple/build/core/core.a(usb_reg_map.c.o)
                                        0x296 (size before relaxing)
 .debug_str     0x0000000000005189      0x49b /home/vladimir/Documentos/SOFTWARE/arduino/BluePill/primeros_ejemplos/Thermocouple/build/core/core.a(usb_core.c.o)
                                        0xace (size before relaxing)
 .debug_str     0x0000000000005624       0xa0 /home/vladimir/Documentos/SOFTWARE/arduino/BluePill/primeros_ejemplos/Thermocouple/build/core/core.a(usb_init.c.o)
                                        0x532 (size before relaxing)
 .debug_str     0x00000000000056c4       0xa4 /home/vladimir/Documentos/SOFTWARE/arduino/BluePill/primeros_ejemplos/Thermocouple/build/core/core.a(usb_mem.c.o)
                                        0x1e8 (size before relaxing)
 .debug_str     0x0000000000005768      0x3e5 /home/vladimir/Documentos/SOFTWARE/arduino/BluePill/primeros_ejemplos/Thermocouple/build/core/core.a(usb_regs.c.o)
                                        0x570 (size before relaxing)
 .debug_str     0x0000000000005b4d      0xf9a /home/vladimir/Documentos/SOFTWARE/arduino/BluePill/primeros_ejemplos/Thermocouple/build/core/core.a(HardwareSerial.cpp.o)
                                       0x1c0c (size before relaxing)
 .debug_str     0x0000000000006ae7      0x40e /home/vladimir/Documentos/SOFTWARE/arduino/BluePill/primeros_ejemplos/Thermocouple/build/core/core.a(Print.cpp.o)
                                        0xfda (size before relaxing)
 .debug_str     0x0000000000006ef5       0x7a /home/vladimir/Documentos/SOFTWARE/arduino/BluePill/primeros_ejemplos/Thermocouple/build/core/core.a(cxxabi-compat.cpp.o)
                                        0x179 (size before relaxing)
 .debug_str     0x0000000000006f6f       0x72 /home/vladimir/Documentos/SOFTWARE/arduino/BluePill/primeros_ejemplos/Thermocouple/build/core/core.a(main.cpp.o)
                                        0x1a2 (size before relaxing)
 .debug_str     0x0000000000006fe1      0x473 /home/vladimir/Documentos/SOFTWARE/arduino/BluePill/primeros_ejemplos/Thermocouple/build/core/core.a(usb_serial.cpp.o)
                                       0x1da0 (size before relaxing)
 .debug_str     0x0000000000007454       0x76 /home/vladimir/Documentos/SOFTWARE/arduino/BluePill/primeros_ejemplos/Thermocouple/build/core/core.a(wirish_digital.cpp.o)
                                        0xac2 (size before relaxing)
 .debug_str     0x00000000000074ca       0xb7 /home/vladimir/Documentos/SOFTWARE/arduino/BluePill/primeros_ejemplos/Thermocouple/build/core/core.a(wirish_time.cpp.o)
                                        0x358 (size before relaxing)
 .debug_str     0x0000000000007581       0x7e /home/vladimir/Documentos/SOFTWARE/arduino/BluePill/primeros_ejemplos/Thermocouple/build/core/core.a(wirish_digital_f1.cpp.o)
                                        0xc51 (size before relaxing)
 .debug_str     0x00000000000075ff       0x65 /home/vladimir/Documentos/SOFTWARE/arduino/BluePill/primeros_ejemplos/Thermocouple/build/core/core.a(hooks.c.o)
                                        0x12f (size before relaxing)
 .debug_str     0x0000000000007664       0xa9 /home/vladimir/Documentos/SOFTWARE/arduino/BluePill/primeros_ejemplos/Thermocouple/build/core/core.a(bkp_f1.c.o)
                                        0x482 (size before relaxing)
 .debug_str     0x000000000000770d      0x13c /home/vladimir/Documentos/SOFTWARE/arduino/BluePill/primeros_ejemplos/Thermocouple/build/core/core.a(dma.c.o)
                                        0xa41 (size before relaxing)
 .debug_str     0x0000000000007849       0x65 /home/vladimir/Documentos/SOFTWARE/arduino/BluePill/primeros_ejemplos/Thermocouple/build/core/core.a(gpio.c.o)
                                        0x451 (size before relaxing)
 .debug_str     0x00000000000078ae      0x1c6 /home/vladimir/Documentos/SOFTWARE/arduino/BluePill/primeros_ejemplos/Thermocouple/build/core/core.a(i2c.c.o)
                                        0xe79 (size before relaxing)
 .debug_str     0x0000000000007a74       0xad /home/vladimir/Documentos/SOFTWARE/arduino/BluePill/primeros_ejemplos/Thermocouple/build/core/core.a(usart.c.o)
                                        0x9d9 (size before relaxing)

.debug_loc      0x0000000000000000     0x8d69
 *(.debug_loc)
 .debug_loc     0x0000000000000000       0x34 /home/vladimir/Documentos/SOFTWARE/arduino/BluePill/primeros_ejemplos/Thermocouple/build/sketch/Thermocouple.ino.cpp.o
 .debug_loc     0x0000000000000034      0x199 /home/vladimir/Documentos/SOFTWARE/arduino/BluePill/primeros_ejemplos/Thermocouple/build/libraries/MAX6675_library-1.0.1/max6675.cpp.o
 .debug_loc     0x00000000000001cd       0xa5 /home/vladimir/Documentos/SOFTWARE/arduino/BluePill/primeros_ejemplos/Thermocouple/build/core/wirish/start_c.c.o
 .debug_loc     0x0000000000000272      0x38a /home/vladimir/Documentos/SOFTWARE/arduino/BluePill/primeros_ejemplos/Thermocouple/build/core/wirish/syscalls.c.o
 .debug_loc     0x00000000000005fc      0x246 /home/vladimir/Documentos/SOFTWARE/arduino/BluePill/primeros_ejemplos/Thermocouple/build/core/wirish/boards.cpp.o
 .debug_loc     0x0000000000000842       0x13 /home/vladimir/Documentos/SOFTWARE/arduino/BluePill/primeros_ejemplos/Thermocouple/build/core/wirish/boards_setup.cpp.o
 .debug_loc     0x0000000000000855      0x145 /home/vladimir/Documentos/SOFTWARE/arduino/BluePill/primeros_ejemplos/Thermocouple/build/core/core.a(adc.c.o)
 .debug_loc     0x000000000000099a      0x2c7 /home/vladimir/Documentos/SOFTWARE/arduino/BluePill/primeros_ejemplos/Thermocouple/build/core/core.a(adc_f1.c.o)
 .debug_loc     0x0000000000000c61      0xbfb /home/vladimir/Documentos/SOFTWARE/arduino/BluePill/primeros_ejemplos/Thermocouple/build/core/core.a(dma_f1.c.o)
 .debug_loc     0x000000000000185c      0x6f0 /home/vladimir/Documentos/SOFTWARE/arduino/BluePill/primeros_ejemplos/Thermocouple/build/core/core.a(exti.c.o)
 .debug_loc     0x0000000000001f4c       0x42 /home/vladimir/Documentos/SOFTWARE/arduino/BluePill/primeros_ejemplos/Thermocouple/build/core/core.a(exti_f1.c.o)
 .debug_loc     0x0000000000001f8e       0x3f /home/vladimir/Documentos/SOFTWARE/arduino/BluePill/primeros_ejemplos/Thermocouple/build/core/core.a(flash.c.o)
 .debug_loc     0x0000000000001fcd      0x267 /home/vladimir/Documentos/SOFTWARE/arduino/BluePill/primeros_ejemplos/Thermocouple/build/core/core.a(gpio_f1.c.o)
 .debug_loc     0x0000000000002234      0x1c4 /home/vladimir/Documentos/SOFTWARE/arduino/BluePill/primeros_ejemplos/Thermocouple/build/core/core.a(i2c_f1.c.o)
 .debug_loc     0x00000000000023f8      0x121 /home/vladimir/Documentos/SOFTWARE/arduino/BluePill/primeros_ejemplos/Thermocouple/build/core/core.a(nvic.c.o)
 .debug_loc     0x0000000000002519      0x131 /home/vladimir/Documentos/SOFTWARE/arduino/BluePill/primeros_ejemplos/Thermocouple/build/core/core.a(rcc.c.o)
 .debug_loc     0x000000000000264a      0x352 /home/vladimir/Documentos/SOFTWARE/arduino/BluePill/primeros_ejemplos/Thermocouple/build/core/core.a(rcc_f1.c.o)
 .debug_loc     0x000000000000299c      0xcd0 /home/vladimir/Documentos/SOFTWARE/arduino/BluePill/primeros_ejemplos/Thermocouple/build/core/core.a(timer.c.o)
 .debug_loc     0x000000000000366c      0x2c6 /home/vladimir/Documentos/SOFTWARE/arduino/BluePill/primeros_ejemplos/Thermocouple/build/core/core.a(usart_f1.c.o)
 .debug_loc     0x0000000000003932       0x3f /home/vladimir/Documentos/SOFTWARE/arduino/BluePill/primeros_ejemplos/Thermocouple/build/core/core.a(usart_private.c.o)
 .debug_loc     0x0000000000003971      0x27f /home/vladimir/Documentos/SOFTWARE/arduino/BluePill/primeros_ejemplos/Thermocouple/build/core/core.a(util.c.o)
 .debug_loc     0x0000000000003bf0      0x4c8 /home/vladimir/Documentos/SOFTWARE/arduino/BluePill/primeros_ejemplos/Thermocouple/build/core/core.a(usb.c.o)
 .debug_loc     0x00000000000040b8      0xaab /home/vladimir/Documentos/SOFTWARE/arduino/BluePill/primeros_ejemplos/Thermocouple/build/core/core.a(usb_cdcacm.c.o)
 .debug_loc     0x0000000000004b63       0xf5 /home/vladimir/Documentos/SOFTWARE/arduino/BluePill/primeros_ejemplos/Thermocouple/build/core/core.a(usb_reg_map.c.o)
 .debug_loc     0x0000000000004c58      0x7a1 /home/vladimir/Documentos/SOFTWARE/arduino/BluePill/primeros_ejemplos/Thermocouple/build/core/core.a(usb_core.c.o)
 .debug_loc     0x00000000000053f9      0x293 /home/vladimir/Documentos/SOFTWARE/arduino/BluePill/primeros_ejemplos/Thermocouple/build/core/core.a(usb_mem.c.o)
 .debug_loc     0x000000000000568c      0xbab /home/vladimir/Documentos/SOFTWARE/arduino/BluePill/primeros_ejemplos/Thermocouple/build/core/core.a(usb_regs.c.o)
 .debug_loc     0x0000000000006237      0x39a /home/vladimir/Documentos/SOFTWARE/arduino/BluePill/primeros_ejemplos/Thermocouple/build/core/core.a(HardwareSerial.cpp.o)
 .debug_loc     0x00000000000065d1     0x10a7 /home/vladimir/Documentos/SOFTWARE/arduino/BluePill/primeros_ejemplos/Thermocouple/build/core/core.a(Print.cpp.o)
 .debug_loc     0x0000000000007678      0x768 /home/vladimir/Documentos/SOFTWARE/arduino/BluePill/primeros_ejemplos/Thermocouple/build/core/core.a(usb_serial.cpp.o)
 .debug_loc     0x0000000000007de0       0x7c /home/vladimir/Documentos/SOFTWARE/arduino/BluePill/primeros_ejemplos/Thermocouple/build/core/core.a(wirish_digital.cpp.o)
 .debug_loc     0x0000000000007e5c       0x82 /home/vladimir/Documentos/SOFTWARE/arduino/BluePill/primeros_ejemplos/Thermocouple/build/core/core.a(wirish_time.cpp.o)
 .debug_loc     0x0000000000007ede      0x137 /home/vladimir/Documentos/SOFTWARE/arduino/BluePill/primeros_ejemplos/Thermocouple/build/core/core.a(wirish_digital_f1.cpp.o)
 .debug_loc     0x0000000000008015       0xb3 /home/vladimir/Documentos/SOFTWARE/arduino/BluePill/primeros_ejemplos/Thermocouple/build/core/core.a(bkp_f1.c.o)
 .debug_loc     0x00000000000080c8       0x42 /home/vladimir/Documentos/SOFTWARE/arduino/BluePill/primeros_ejemplos/Thermocouple/build/core/core.a(dma.c.o)
 .debug_loc     0x000000000000810a       0x2c /home/vladimir/Documentos/SOFTWARE/arduino/BluePill/primeros_ejemplos/Thermocouple/build/core/core.a(gpio.c.o)
 .debug_loc     0x0000000000008136      0x884 /home/vladimir/Documentos/SOFTWARE/arduino/BluePill/primeros_ejemplos/Thermocouple/build/core/core.a(i2c.c.o)
 .debug_loc     0x00000000000089ba      0x3af /home/vladimir/Documentos/SOFTWARE/arduino/BluePill/primeros_ejemplos/Thermocouple/build/core/core.a(usart.c.o)

.debug_macinfo
 *(.debug_macinfo)

.debug_weaknames
 *(.debug_weaknames)

.debug_funcnames
 *(.debug_funcnames)

.debug_typenames
 *(.debug_typenames)

.debug_varnames
 *(.debug_varnames)

.note.gnu.arm.ident
 *(.note.gnu.arm.ident)

.ARM.attributes
                0x0000000000000000       0x29
 *(.ARM.attributes)
 .ARM.attributes
                0x0000000000000000       0x1d /home/vladimir/.arduino15/packages/arduino/tools/arm-none-eabi-gcc/4.8.3-2014q1/bin/../lib/gcc/arm-none-eabi/4.8.3/armv7-m/crti.o
 .ARM.attributes
                0x000000000000001d       0x2d /home/vladimir/.arduino15/packages/arduino/tools/arm-none-eabi-gcc/4.8.3-2014q1/bin/../lib/gcc/arm-none-eabi/4.8.3/armv7-m/crtbegin.o
 .ARM.attributes
                0x000000000000004a       0x1b /home/vladimir/.arduino15/packages/arduino/tools/arm-none-eabi-gcc/4.8.3-2014q1/bin/../lib/gcc/arm-none-eabi/4.8.3/../../../../arm-none-eabi/lib/armv7-m/crt0.o
 .ARM.attributes
                0x0000000000000065       0x33 /home/vladimir/Documentos/SOFTWARE/arduino/BluePill/primeros_ejemplos/Thermocouple/build/sketch/Thermocouple.ino.cpp.o
 .ARM.attributes
                0x0000000000000098       0x33 /home/vladimir/Documentos/SOFTWARE/arduino/BluePill/primeros_ejemplos/Thermocouple/build/libraries/MAX6675_library-1.0.1/max6675.cpp.o
 .ARM.attributes
                0x00000000000000cb       0x1b /home/vladimir/Documentos/SOFTWARE/arduino/BluePill/primeros_ejemplos/Thermocouple/build/core/wirish/start.S.o
 .ARM.attributes
                0x00000000000000e6       0x33 /home/vladimir/Documentos/SOFTWARE/arduino/BluePill/primeros_ejemplos/Thermocouple/build/core/wirish/start_c.c.o
 .ARM.attributes
                0x0000000000000119       0x33 /home/vladimir/Documentos/SOFTWARE/arduino/BluePill/primeros_ejemplos/Thermocouple/build/core/wirish/syscalls.c.o
 .ARM.attributes
                0x000000000000014c       0x33 /home/vladimir/Documentos/SOFTWARE/arduino/BluePill/primeros_ejemplos/Thermocouple/build/core/board.cpp.o
 .ARM.attributes
                0x000000000000017f       0x33 /home/vladimir/Documentos/SOFTWARE/arduino/BluePill/primeros_ejemplos/Thermocouple/build/core/wirish/boards.cpp.o
 .ARM.attributes
                0x00000000000001b2       0x33 /home/vladimir/Documentos/SOFTWARE/arduino/BluePill/primeros_ejemplos/Thermocouple/build/core/wirish/boards_setup.cpp.o
 .ARM.attributes
                0x00000000000001e5       0x1b /home/vladimir/Documentos/SOFTWARE/arduino/BluePill/primeros_ejemplos/Thermocouple/build/core/core.a(exc.S.o)
 .ARM.attributes
                0x0000000000000200       0x1b /home/vladimir/Documentos/SOFTWARE/arduino/BluePill/primeros_ejemplos/Thermocouple/build/core/core.a(isrs.S.o)
 .ARM.attributes
                0x000000000000021b       0x1b /home/vladimir/Documentos/SOFTWARE/arduino/BluePill/primeros_ejemplos/Thermocouple/build/core/core.a(vector_table.S.o)
 .ARM.attributes
                0x0000000000000236       0x33 /home/vladimir/Documentos/SOFTWARE/arduino/BluePill/primeros_ejemplos/Thermocouple/build/core/core.a(adc.c.o)
 .ARM.attributes
                0x0000000000000269       0x33 /home/vladimir/Documentos/SOFTWARE/arduino/BluePill/primeros_ejemplos/Thermocouple/build/core/core.a(adc_f1.c.o)
 .ARM.attributes
                0x000000000000029c       0x33 /home/vladimir/Documentos/SOFTWARE/arduino/BluePill/primeros_ejemplos/Thermocouple/build/core/core.a(dma_f1.c.o)
 .ARM.attributes
                0x00000000000002cf       0x33 /home/vladimir/Documentos/SOFTWARE/arduino/BluePill/primeros_ejemplos/Thermocouple/build/core/core.a(exti.c.o)
 .ARM.attributes
                0x0000000000000302       0x33 /home/vladimir/Documentos/SOFTWARE/arduino/BluePill/primeros_ejemplos/Thermocouple/build/core/core.a(exti_f1.c.o)
 .ARM.attributes
                0x0000000000000335       0x33 /home/vladimir/Documentos/SOFTWARE/arduino/BluePill/primeros_ejemplos/Thermocouple/build/core/core.a(flash.c.o)
 .ARM.attributes
                0x0000000000000368       0x33 /home/vladimir/Documentos/SOFTWARE/arduino/BluePill/primeros_ejemplos/Thermocouple/build/core/core.a(gpio_f1.c.o)
 .ARM.attributes
                0x000000000000039b       0x33 /home/vladimir/Documentos/SOFTWARE/arduino/BluePill/primeros_ejemplos/Thermocouple/build/core/core.a(i2c_f1.c.o)
 .ARM.attributes
                0x00000000000003ce       0x33 /home/vladimir/Documentos/SOFTWARE/arduino/BluePill/primeros_ejemplos/Thermocouple/build/core/core.a(nvic.c.o)
 .ARM.attributes
                0x0000000000000401       0x33 /home/vladimir/Documentos/SOFTWARE/arduino/BluePill/primeros_ejemplos/Thermocouple/build/core/core.a(rcc.c.o)
 .ARM.attributes
                0x0000000000000434       0x33 /home/vladimir/Documentos/SOFTWARE/arduino/BluePill/primeros_ejemplos/Thermocouple/build/core/core.a(rcc_f1.c.o)
 .ARM.attributes
                0x0000000000000467       0x33 /home/vladimir/Documentos/SOFTWARE/arduino/BluePill/primeros_ejemplos/Thermocouple/build/core/core.a(systick.c.o)
 .ARM.attributes
                0x000000000000049a       0x33 /home/vladimir/Documentos/SOFTWARE/arduino/BluePill/primeros_ejemplos/Thermocouple/build/core/core.a(timer.c.o)
 .ARM.attributes
                0x00000000000004cd       0x33 /home/vladimir/Documentos/SOFTWARE/arduino/BluePill/primeros_ejemplos/Thermocouple/build/core/core.a(usart_f1.c.o)
 .ARM.attributes
                0x0000000000000500       0x33 /home/vladimir/Documentos/SOFTWARE/arduino/BluePill/primeros_ejemplos/Thermocouple/build/core/core.a(usart_private.c.o)
 .ARM.attributes
                0x0000000000000533       0x33 /home/vladimir/Documentos/SOFTWARE/arduino/BluePill/primeros_ejemplos/Thermocouple/build/core/core.a(util.c.o)
 .ARM.attributes
                0x0000000000000566       0x33 /home/vladimir/Documentos/SOFTWARE/arduino/BluePill/primeros_ejemplos/Thermocouple/build/core/core.a(usb.c.o)
 .ARM.attributes
                0x0000000000000599       0x33 /home/vladimir/Documentos/SOFTWARE/arduino/BluePill/primeros_ejemplos/Thermocouple/build/core/core.a(usb_cdcacm.c.o)
 .ARM.attributes
                0x00000000000005cc       0x33 /home/vladimir/Documentos/SOFTWARE/arduino/BluePill/primeros_ejemplos/Thermocouple/build/core/core.a(usb_reg_map.c.o)
 .ARM.attributes
                0x00000000000005ff       0x33 /home/vladimir/Documentos/SOFTWARE/arduino/BluePill/primeros_ejemplos/Thermocouple/build/core/core.a(usb_core.c.o)
 .ARM.attributes
                0x0000000000000632       0x33 /home/vladimir/Documentos/SOFTWARE/arduino/BluePill/primeros_ejemplos/Thermocouple/build/core/core.a(usb_init.c.o)
 .ARM.attributes
                0x0000000000000665       0x33 /home/vladimir/Documentos/SOFTWARE/arduino/BluePill/primeros_ejemplos/Thermocouple/build/core/core.a(usb_mem.c.o)
 .ARM.attributes
                0x0000000000000698       0x33 /home/vladimir/Documentos/SOFTWARE/arduino/BluePill/primeros_ejemplos/Thermocouple/build/core/core.a(usb_regs.c.o)
 .ARM.attributes
                0x00000000000006cb       0x33 /home/vladimir/Documentos/SOFTWARE/arduino/BluePill/primeros_ejemplos/Thermocouple/build/core/core.a(HardwareSerial.cpp.o)
 .ARM.attributes
                0x00000000000006fe       0x33 /home/vladimir/Documentos/SOFTWARE/arduino/BluePill/primeros_ejemplos/Thermocouple/build/core/core.a(Print.cpp.o)
 .ARM.attributes
                0x0000000000000731       0x33 /home/vladimir/Documentos/SOFTWARE/arduino/BluePill/primeros_ejemplos/Thermocouple/build/core/core.a(cxxabi-compat.cpp.o)
 .ARM.attributes
                0x0000000000000764       0x33 /home/vladimir/Documentos/SOFTWARE/arduino/BluePill/primeros_ejemplos/Thermocouple/build/core/core.a(main.cpp.o)
 .ARM.attributes
                0x0000000000000797       0x33 /home/vladimir/Documentos/SOFTWARE/arduino/BluePill/primeros_ejemplos/Thermocouple/build/core/core.a(usb_serial.cpp.o)
 .ARM.attributes
                0x00000000000007ca       0x33 /home/vladimir/Documentos/SOFTWARE/arduino/BluePill/primeros_ejemplos/Thermocouple/build/core/core.a(wirish_digital.cpp.o)
 .ARM.attributes
                0x00000000000007fd       0x33 /home/vladimir/Documentos/SOFTWARE/arduino/BluePill/primeros_ejemplos/Thermocouple/build/core/core.a(wirish_time.cpp.o)
 .ARM.attributes
                0x0000000000000830       0x33 /home/vladimir/Documentos/SOFTWARE/arduino/BluePill/primeros_ejemplos/Thermocouple/build/core/core.a(wirish_digital_f1.cpp.o)
 .ARM.attributes
                0x0000000000000863       0x33 /home/vladimir/Documentos/SOFTWARE/arduino/BluePill/primeros_ejemplos/Thermocouple/build/core/core.a(hooks.c.o)
 .ARM.attributes
                0x0000000000000896       0x33 /home/vladimir/Documentos/SOFTWARE/arduino/BluePill/primeros_ejemplos/Thermocouple/build/core/core.a(bkp_f1.c.o)
 .ARM.attributes
                0x00000000000008c9       0x33 /home/vladimir/Documentos/SOFTWARE/arduino/BluePill/primeros_ejemplos/Thermocouple/build/core/core.a(dma.c.o)
 .ARM.attributes
                0x00000000000008fc       0x33 /home/vladimir/Documentos/SOFTWARE/arduino/BluePill/primeros_ejemplos/Thermocouple/build/core/core.a(gpio.c.o)
 .ARM.attributes
                0x000000000000092f       0x33 /home/vladimir/Documentos/SOFTWARE/arduino/BluePill/primeros_ejemplos/Thermocouple/build/core/core.a(i2c.c.o)
 .ARM.attributes
                0x0000000000000962       0x33 /home/vladimir/Documentos/SOFTWARE/arduino/BluePill/primeros_ejemplos/Thermocouple/build/core/core.a(usart.c.o)
 .ARM.attributes
                0x0000000000000995       0x1d /home/vladimir/.arduino15/packages/arduino/tools/arm-none-eabi-gcc/4.8.3-2014q1/bin/../lib/gcc/arm-none-eabi/4.8.3/armv7-m/libgcc.a(_arm_addsubdf3.o)
 .ARM.attributes
                0x00000000000009b2       0x1d /home/vladimir/.arduino15/packages/arduino/tools/arm-none-eabi-gcc/4.8.3-2014q1/bin/../lib/gcc/arm-none-eabi/4.8.3/armv7-m/libgcc.a(_arm_muldivdf3.o)
 .ARM.attributes
                0x00000000000009cf       0x1d /home/vladimir/.arduino15/packages/arduino/tools/arm-none-eabi-gcc/4.8.3-2014q1/bin/../lib/gcc/arm-none-eabi/4.8.3/armv7-m/libgcc.a(_arm_cmpdf2.o)
 .ARM.attributes
                0x00000000000009ec       0x1d /home/vladimir/.arduino15/packages/arduino/tools/arm-none-eabi-gcc/4.8.3-2014q1/bin/../lib/gcc/arm-none-eabi/4.8.3/armv7-m/libgcc.a(_arm_fixdfsi.o)
 .ARM.attributes
                0x0000000000000a09       0x1d /home/vladimir/.arduino15/packages/arduino/tools/arm-none-eabi-gcc/4.8.3-2014q1/bin/../lib/gcc/arm-none-eabi/4.8.3/armv7-m/libgcc.a(_arm_truncdfsf2.o)
 .ARM.attributes
                0x0000000000000a26       0x1d /home/vladimir/.arduino15/packages/arduino/tools/arm-none-eabi-gcc/4.8.3-2014q1/bin/../lib/gcc/arm-none-eabi/4.8.3/armv7-m/libgcc.a(_arm_muldivsf3.o)
 .ARM.attributes
                0x0000000000000a43       0x1d /home/vladimir/.arduino15/packages/arduino/tools/arm-none-eabi-gcc/4.8.3-2014q1/bin/../lib/gcc/arm-none-eabi/4.8.3/armv7-m/libgcc.a(_aeabi_uldivmod.o)
 .ARM.attributes
                0x0000000000000a60       0x2d /home/vladimir/.arduino15/packages/arduino/tools/arm-none-eabi-gcc/4.8.3-2014q1/bin/../lib/gcc/arm-none-eabi/4.8.3/armv7-m/libgcc.a(_fixdfdi.o)
 .ARM.attributes
                0x0000000000000a8d       0x2d /home/vladimir/.arduino15/packages/arduino/tools/arm-none-eabi-gcc/4.8.3-2014q1/bin/../lib/gcc/arm-none-eabi/4.8.3/armv7-m/libgcc.a(_fixunsdfdi.o)
 .ARM.attributes
                0x0000000000000aba       0x2d /home/vladimir/.arduino15/packages/arduino/tools/arm-none-eabi-gcc/4.8.3-2014q1/bin/../lib/gcc/arm-none-eabi/4.8.3/armv7-m/libgcc.a(bpabi.o)
 .ARM.attributes
                0x0000000000000ae7       0x1d /home/vladimir/.arduino15/packages/arduino/tools/arm-none-eabi-gcc/4.8.3-2014q1/bin/../lib/gcc/arm-none-eabi/4.8.3/armv7-m/libgcc.a(_dvmd_tls.o)
 .ARM.attributes
                0x0000000000000b04       0x1d /home/vladimir/.arduino15/packages/arduino/tools/arm-none-eabi-gcc/4.8.3-2014q1/bin/../lib/gcc/arm-none-eabi/4.8.3/armv7-m/libgcc.a(_arm_fixunsdfsi.o)
 .ARM.attributes
                0x0000000000000b21       0x2d /home/vladimir/.arduino15/packages/arduino/tools/arm-none-eabi-gcc/4.8.3-2014q1/bin/../lib/gcc/arm-none-eabi/4.8.3/armv7-m/libgcc.a(_divdi3.o)
 .ARM.attributes
                0x0000000000000b4e       0x2d /home/vladimir/.arduino15/packages/arduino/tools/arm-none-eabi-gcc/4.8.3-2014q1/bin/../lib/gcc/arm-none-eabi/4.8.3/armv7-m/libgcc.a(_udivdi3.o)
 .ARM.attributes
                0x0000000000000b7b       0x2d /home/vladimir/.arduino15/packages/arduino/tools/arm-none-eabi-gcc/4.8.3-2014q1/bin/../lib/gcc/arm-none-eabi/4.8.3/../../../../arm-none-eabi/lib/armv7-m/libc.a(lib_a-errno.o)
 .ARM.attributes
                0x0000000000000ba8       0x2d /home/vladimir/.arduino15/packages/arduino/tools/arm-none-eabi-gcc/4.8.3-2014q1/bin/../lib/gcc/arm-none-eabi/4.8.3/../../../../arm-none-eabi/lib/armv7-m/libc.a(lib_a-exit.o)
 .ARM.attributes
                0x0000000000000bd5       0x2d /home/vladimir/.arduino15/packages/arduino/tools/arm-none-eabi-gcc/4.8.3-2014q1/bin/../lib/gcc/arm-none-eabi/4.8.3/../../../../arm-none-eabi/lib/armv7-m/libc.a(lib_a-impure.o)
 .ARM.attributes
                0x0000000000000c02       0x2d /home/vladimir/.arduino15/packages/arduino/tools/arm-none-eabi-gcc/4.8.3-2014q1/bin/../lib/gcc/arm-none-eabi/4.8.3/../../../../arm-none-eabi/lib/armv7-m/libc.a(lib_a-init.o)
 .ARM.attributes
                0x0000000000000c2f       0x2d /home/vladimir/.arduino15/packages/arduino/tools/arm-none-eabi-gcc/4.8.3-2014q1/bin/../lib/gcc/arm-none-eabi/4.8.3/../../../../arm-none-eabi/lib/armv7-m/libc.a(lib_a-memset.o)
 .ARM.attributes
                0x0000000000000c5c       0x2d /home/vladimir/.arduino15/packages/arduino/tools/arm-none-eabi-gcc/4.8.3-2014q1/bin/../lib/gcc/arm-none-eabi/4.8.3/../../../../arm-none-eabi/lib/armv7-m/libc.a(lib_a-strlen.o)
 .ARM.attributes
                0x0000000000000c89       0x2d /home/vladimir/.arduino15/packages/arduino/tools/arm-none-eabi-gcc/4.8.3-2014q1/bin/../lib/gcc/arm-none-eabi/4.8.3/../../../../arm-none-eabi/lib/armv7-m/libc.a(lib_a-__call_atexit.o)
 .ARM.attributes
                0x0000000000000cb6       0x2d /home/vladimir/.arduino15/packages/arduino/tools/arm-none-eabi-gcc/4.8.3-2014q1/bin/../lib/gcc/arm-none-eabi/4.8.3/../../../../arm-none-eabi/lib/armv7-m/libc.a(lib_a-atexit.o)
 .ARM.attributes
                0x0000000000000ce3       0x2d /home/vladimir/.arduino15/packages/arduino/tools/arm-none-eabi-gcc/4.8.3-2014q1/bin/../lib/gcc/arm-none-eabi/4.8.3/../../../../arm-none-eabi/lib/armv7-m/libc.a(lib_a-fini.o)
 .ARM.attributes
                0x0000000000000d10       0x2d /home/vladimir/.arduino15/packages/arduino/tools/arm-none-eabi-gcc/4.8.3-2014q1/bin/../lib/gcc/arm-none-eabi/4.8.3/../../../../arm-none-eabi/lib/armv7-m/libc.a(lib_a-__atexit.o)
 .ARM.attributes
                0x0000000000000d3d       0x2d /home/vladimir/.arduino15/packages/arduino/tools/arm-none-eabi-gcc/4.8.3-2014q1/bin/../lib/gcc/arm-none-eabi/4.8.3/armv7-m/crtend.o
 .ARM.attributes
                0x0000000000000d6a       0x1d /home/vladimir/.arduino15/packages/arduino/tools/arm-none-eabi-gcc/4.8.3-2014q1/bin/../lib/gcc/arm-none-eabi/4.8.3/armv7-m/crtn.o

/DISCARD/
 *(.note.GNU-stack)
OUTPUT(/home/vladimir/Documentos/SOFTWARE/arduino/BluePill/primeros_ejemplos/Thermocouple/build/Thermocouple.ino.elf elf32-littlearm)

.debug_ranges   0x0000000000000000     0x19b0
 .debug_ranges  0x0000000000000000       0x38 /home/vladimir/Documentos/SOFTWARE/arduino/BluePill/primeros_ejemplos/Thermocouple/build/sketch/Thermocouple.ino.cpp.o
 .debug_ranges  0x0000000000000038       0x40 /home/vladimir/Documentos/SOFTWARE/arduino/BluePill/primeros_ejemplos/Thermocouple/build/libraries/MAX6675_library-1.0.1/max6675.cpp.o
 .debug_ranges  0x0000000000000078       0x10 /home/vladimir/Documentos/SOFTWARE/arduino/BluePill/primeros_ejemplos/Thermocouple/build/core/wirish/start_c.c.o
 .debug_ranges  0x0000000000000088       0x78 /home/vladimir/Documentos/SOFTWARE/arduino/BluePill/primeros_ejemplos/Thermocouple/build/core/wirish/syscalls.c.o
 .debug_ranges  0x0000000000000100       0x38 /home/vladimir/Documentos/SOFTWARE/arduino/BluePill/primeros_ejemplos/Thermocouple/build/core/board.cpp.o
 .debug_ranges  0x0000000000000138      0x160 /home/vladimir/Documentos/SOFTWARE/arduino/BluePill/primeros_ejemplos/Thermocouple/build/core/wirish/boards.cpp.o
 .debug_ranges  0x0000000000000298       0x48 /home/vladimir/Documentos/SOFTWARE/arduino/BluePill/primeros_ejemplos/Thermocouple/build/core/wirish/boards_setup.cpp.o
 .debug_ranges  0x00000000000002e0       0x28 /home/vladimir/Documentos/SOFTWARE/arduino/BluePill/primeros_ejemplos/Thermocouple/build/core/core.a(adc.c.o)
 .debug_ranges  0x0000000000000308       0xb8 /home/vladimir/Documentos/SOFTWARE/arduino/BluePill/primeros_ejemplos/Thermocouple/build/core/core.a(adc_f1.c.o)
 .debug_ranges  0x00000000000003c0      0x1b8 /home/vladimir/Documentos/SOFTWARE/arduino/BluePill/primeros_ejemplos/Thermocouple/build/core/core.a(dma_f1.c.o)
 .debug_ranges  0x0000000000000578      0x150 /home/vladimir/Documentos/SOFTWARE/arduino/BluePill/primeros_ejemplos/Thermocouple/build/core/core.a(exti.c.o)
 .debug_ranges  0x00000000000006c8       0x10 /home/vladimir/Documentos/SOFTWARE/arduino/BluePill/primeros_ejemplos/Thermocouple/build/core/core.a(exti_f1.c.o)
 .debug_ranges  0x00000000000006d8       0x10 /home/vladimir/Documentos/SOFTWARE/arduino/BluePill/primeros_ejemplos/Thermocouple/build/core/core.a(flash.c.o)
 .debug_ranges  0x00000000000006e8       0x30 /home/vladimir/Documentos/SOFTWARE/arduino/BluePill/primeros_ejemplos/Thermocouple/build/core/core.a(gpio_f1.c.o)
 .debug_ranges  0x0000000000000718       0x90 /home/vladimir/Documentos/SOFTWARE/arduino/BluePill/primeros_ejemplos/Thermocouple/build/core/core.a(i2c_f1.c.o)
 .debug_ranges  0x00000000000007a8       0x40 /home/vladimir/Documentos/SOFTWARE/arduino/BluePill/primeros_ejemplos/Thermocouple/build/core/core.a(nvic.c.o)
 .debug_ranges  0x00000000000007e8       0x98 /home/vladimir/Documentos/SOFTWARE/arduino/BluePill/primeros_ejemplos/Thermocouple/build/core/core.a(rcc.c.o)
 .debug_ranges  0x0000000000000880       0xc8 /home/vladimir/Documentos/SOFTWARE/arduino/BluePill/primeros_ejemplos/Thermocouple/build/core/core.a(rcc_f1.c.o)
 .debug_ranges  0x0000000000000948       0x48 /home/vladimir/Documentos/SOFTWARE/arduino/BluePill/primeros_ejemplos/Thermocouple/build/core/core.a(systick.c.o)
 .debug_ranges  0x0000000000000990       0xe0 /home/vladimir/Documentos/SOFTWARE/arduino/BluePill/primeros_ejemplos/Thermocouple/build/core/core.a(timer.c.o)
 .debug_ranges  0x0000000000000a70       0x68 /home/vladimir/Documentos/SOFTWARE/arduino/BluePill/primeros_ejemplos/Thermocouple/build/core/core.a(usart_f1.c.o)
 .debug_ranges  0x0000000000000ad8       0x10 /home/vladimir/Documentos/SOFTWARE/arduino/BluePill/primeros_ejemplos/Thermocouple/build/core/core.a(usart_private.c.o)
 .debug_ranges  0x0000000000000ae8       0x58 /home/vladimir/Documentos/SOFTWARE/arduino/BluePill/primeros_ejemplos/Thermocouple/build/core/core.a(util.c.o)
 .debug_ranges  0x0000000000000b40       0xa8 /home/vladimir/Documentos/SOFTWARE/arduino/BluePill/primeros_ejemplos/Thermocouple/build/core/core.a(usb.c.o)
 .debug_ranges  0x0000000000000be8      0x238 /home/vladimir/Documentos/SOFTWARE/arduino/BluePill/primeros_ejemplos/Thermocouple/build/core/core.a(usb_cdcacm.c.o)
 .debug_ranges  0x0000000000000e20       0x60 /home/vladimir/Documentos/SOFTWARE/arduino/BluePill/primeros_ejemplos/Thermocouple/build/core/core.a(usb_reg_map.c.o)
 .debug_ranges  0x0000000000000e80       0xc0 /home/vladimir/Documentos/SOFTWARE/arduino/BluePill/primeros_ejemplos/Thermocouple/build/core/core.a(usb_core.c.o)
 .debug_ranges  0x0000000000000f40       0x10 /home/vladimir/Documentos/SOFTWARE/arduino/BluePill/primeros_ejemplos/Thermocouple/build/core/core.a(usb_init.c.o)
 .debug_ranges  0x0000000000000f50       0x18 /home/vladimir/Documentos/SOFTWARE/arduino/BluePill/primeros_ejemplos/Thermocouple/build/core/core.a(usb_mem.c.o)
 .debug_ranges  0x0000000000000f68      0x290 /home/vladimir/Documentos/SOFTWARE/arduino/BluePill/primeros_ejemplos/Thermocouple/build/core/core.a(usb_regs.c.o)
 .debug_ranges  0x00000000000011f8       0x90 /home/vladimir/Documentos/SOFTWARE/arduino/BluePill/primeros_ejemplos/Thermocouple/build/core/core.a(HardwareSerial.cpp.o)
 .debug_ranges  0x0000000000001288      0x230 /home/vladimir/Documentos/SOFTWARE/arduino/BluePill/primeros_ejemplos/Thermocouple/build/core/core.a(Print.cpp.o)
 .debug_ranges  0x00000000000014b8       0x10 /home/vladimir/Documentos/SOFTWARE/arduino/BluePill/primeros_ejemplos/Thermocouple/build/core/core.a(cxxabi-compat.cpp.o)
 .debug_ranges  0x00000000000014c8       0x18 /home/vladimir/Documentos/SOFTWARE/arduino/BluePill/primeros_ejemplos/Thermocouple/build/core/core.a(main.cpp.o)
 .debug_ranges  0x00000000000014e0      0x170 /home/vladimir/Documentos/SOFTWARE/arduino/BluePill/primeros_ejemplos/Thermocouple/build/core/core.a(usb_serial.cpp.o)
 .debug_ranges  0x0000000000001650       0x50 /home/vladimir/Documentos/SOFTWARE/arduino/BluePill/primeros_ejemplos/Thermocouple/build/core/core.a(wirish_digital.cpp.o)
 .debug_ranges  0x00000000000016a0       0x20 /home/vladimir/Documentos/SOFTWARE/arduino/BluePill/primeros_ejemplos/Thermocouple/build/core/core.a(wirish_time.cpp.o)
 .debug_ranges  0x00000000000016c0       0x30 /home/vladimir/Documentos/SOFTWARE/arduino/BluePill/primeros_ejemplos/Thermocouple/build/core/core.a(wirish_digital_f1.cpp.o)
 .debug_ranges  0x00000000000016f0       0x10 /home/vladimir/Documentos/SOFTWARE/arduino/BluePill/primeros_ejemplos/Thermocouple/build/core/core.a(hooks.c.o)
 .debug_ranges  0x0000000000001700       0x30 /home/vladimir/Documentos/SOFTWARE/arduino/BluePill/primeros_ejemplos/Thermocouple/build/core/core.a(bkp_f1.c.o)
 .debug_ranges  0x0000000000001730       0x18 /home/vladimir/Documentos/SOFTWARE/arduino/BluePill/primeros_ejemplos/Thermocouple/build/core/core.a(dma.c.o)
 .debug_ranges  0x0000000000001748       0x10 /home/vladimir/Documentos/SOFTWARE/arduino/BluePill/primeros_ejemplos/Thermocouple/build/core/core.a(gpio.c.o)
 .debug_ranges  0x0000000000001758      0x188 /home/vladimir/Documentos/SOFTWARE/arduino/BluePill/primeros_ejemplos/Thermocouple/build/core/core.a(i2c.c.o)
 .debug_ranges  0x00000000000018e0       0xd0 /home/vladimir/Documentos/SOFTWARE/arduino/BluePill/primeros_ejemplos/Thermocouple/build/core/core.a(usart.c.o)

.comment        0x0000000000000000       0x80
 .comment       0x0000000000000000       0x80 /home/vladimir/Documentos/SOFTWARE/arduino/BluePill/primeros_ejemplos/Thermocouple/build/sketch/Thermocouple.ino.cpp.o
                                         0x81 (size before relaxing)
 .comment       0x0000000000000000       0x81 /home/vladimir/Documentos/SOFTWARE/arduino/BluePill/primeros_ejemplos/Thermocouple/build/libraries/MAX6675_library-1.0.1/max6675.cpp.o
 .comment       0x0000000000000000       0x81 /home/vladimir/Documentos/SOFTWARE/arduino/BluePill/primeros_ejemplos/Thermocouple/build/core/wirish/start_c.c.o
 .comment       0x0000000000000000       0x81 /home/vladimir/Documentos/SOFTWARE/arduino/BluePill/primeros_ejemplos/Thermocouple/build/core/wirish/syscalls.c.o
 .comment       0x0000000000000000       0x81 /home/vladimir/Documentos/SOFTWARE/arduino/BluePill/primeros_ejemplos/Thermocouple/build/core/board.cpp.o
 .comment       0x0000000000000000       0x81 /home/vladimir/Documentos/SOFTWARE/arduino/BluePill/primeros_ejemplos/Thermocouple/build/core/wirish/boards.cpp.o
 .comment       0x0000000000000000       0x81 /home/vladimir/Documentos/SOFTWARE/arduino/BluePill/primeros_ejemplos/Thermocouple/build/core/wirish/boards_setup.cpp.o
 .comment       0x0000000000000000       0x81 /home/vladimir/Documentos/SOFTWARE/arduino/BluePill/primeros_ejemplos/Thermocouple/build/core/core.a(adc.c.o)
 .comment       0x0000000000000000       0x81 /home/vladimir/Documentos/SOFTWARE/arduino/BluePill/primeros_ejemplos/Thermocouple/build/core/core.a(adc_f1.c.o)
 .comment       0x0000000000000000       0x81 /home/vladimir/Documentos/SOFTWARE/arduino/BluePill/primeros_ejemplos/Thermocouple/build/core/core.a(dma_f1.c.o)
 .comment       0x0000000000000000       0x81 /home/vladimir/Documentos/SOFTWARE/arduino/BluePill/primeros_ejemplos/Thermocouple/build/core/core.a(exti.c.o)
 .comment       0x0000000000000000       0x81 /home/vladimir/Documentos/SOFTWARE/arduino/BluePill/primeros_ejemplos/Thermocouple/build/core/core.a(exti_f1.c.o)
 .comment       0x0000000000000000       0x81 /home/vladimir/Documentos/SOFTWARE/arduino/BluePill/primeros_ejemplos/Thermocouple/build/core/core.a(flash.c.o)
 .comment       0x0000000000000000       0x81 /home/vladimir/Documentos/SOFTWARE/arduino/BluePill/primeros_ejemplos/Thermocouple/build/core/core.a(gpio_f1.c.o)
 .comment       0x0000000000000000       0x81 /home/vladimir/Documentos/SOFTWARE/arduino/BluePill/primeros_ejemplos/Thermocouple/build/core/core.a(i2c_f1.c.o)
 .comment       0x0000000000000000       0x81 /home/vladimir/Documentos/SOFTWARE/arduino/BluePill/primeros_ejemplos/Thermocouple/build/core/core.a(nvic.c.o)
 .comment       0x0000000000000000       0x81 /home/vladimir/Documentos/SOFTWARE/arduino/BluePill/primeros_ejemplos/Thermocouple/build/core/core.a(rcc.c.o)
 .comment       0x0000000000000000       0x81 /home/vladimir/Documentos/SOFTWARE/arduino/BluePill/primeros_ejemplos/Thermocouple/build/core/core.a(rcc_f1.c.o)
 .comment       0x0000000000000000       0x81 /home/vladimir/Documentos/SOFTWARE/arduino/BluePill/primeros_ejemplos/Thermocouple/build/core/core.a(systick.c.o)
 .comment       0x0000000000000000       0x81 /home/vladimir/Documentos/SOFTWARE/arduino/BluePill/primeros_ejemplos/Thermocouple/build/core/core.a(timer.c.o)
 .comment       0x0000000000000000       0x81 /home/vladimir/Documentos/SOFTWARE/arduino/BluePill/primeros_ejemplos/Thermocouple/build/core/core.a(usart_f1.c.o)
 .comment       0x0000000000000000       0x81 /home/vladimir/Documentos/SOFTWARE/arduino/BluePill/primeros_ejemplos/Thermocouple/build/core/core.a(usart_private.c.o)
 .comment       0x0000000000000000       0x81 /home/vladimir/Documentos/SOFTWARE/arduino/BluePill/primeros_ejemplos/Thermocouple/build/core/core.a(util.c.o)
 .comment       0x0000000000000000       0x81 /home/vladimir/Documentos/SOFTWARE/arduino/BluePill/primeros_ejemplos/Thermocouple/build/core/core.a(usb.c.o)
 .comment       0x0000000000000000       0x81 /home/vladimir/Documentos/SOFTWARE/arduino/BluePill/primeros_ejemplos/Thermocouple/build/core/core.a(usb_cdcacm.c.o)
 .comment       0x0000000000000000       0x81 /home/vladimir/Documentos/SOFTWARE/arduino/BluePill/primeros_ejemplos/Thermocouple/build/core/core.a(usb_reg_map.c.o)
 .comment       0x0000000000000000       0x81 /home/vladimir/Documentos/SOFTWARE/arduino/BluePill/primeros_ejemplos/Thermocouple/build/core/core.a(usb_core.c.o)
 .comment       0x0000000000000000       0x81 /home/vladimir/Documentos/SOFTWARE/arduino/BluePill/primeros_ejemplos/Thermocouple/build/core/core.a(usb_init.c.o)
 .comment       0x0000000000000000       0x81 /home/vladimir/Documentos/SOFTWARE/arduino/BluePill/primeros_ejemplos/Thermocouple/build/core/core.a(usb_mem.c.o)
 .comment       0x0000000000000000       0x81 /home/vladimir/Documentos/SOFTWARE/arduino/BluePill/primeros_ejemplos/Thermocouple/build/core/core.a(usb_regs.c.o)
 .comment       0x0000000000000000       0x81 /home/vladimir/Documentos/SOFTWARE/arduino/BluePill/primeros_ejemplos/Thermocouple/build/core/core.a(HardwareSerial.cpp.o)
 .comment       0x0000000000000000       0x81 /home/vladimir/Documentos/SOFTWARE/arduino/BluePill/primeros_ejemplos/Thermocouple/build/core/core.a(Print.cpp.o)
 .comment       0x0000000000000000       0x81 /home/vladimir/Documentos/SOFTWARE/arduino/BluePill/primeros_ejemplos/Thermocouple/build/core/core.a(cxxabi-compat.cpp.o)
 .comment       0x0000000000000000       0x81 /home/vladimir/Documentos/SOFTWARE/arduino/BluePill/primeros_ejemplos/Thermocouple/build/core/core.a(main.cpp.o)
 .comment       0x0000000000000000       0x81 /home/vladimir/Documentos/SOFTWARE/arduino/BluePill/primeros_ejemplos/Thermocouple/build/core/core.a(usb_serial.cpp.o)
 .comment       0x0000000000000000       0x81 /home/vladimir/Documentos/SOFTWARE/arduino/BluePill/primeros_ejemplos/Thermocouple/build/core/core.a(wirish_digital.cpp.o)
 .comment       0x0000000000000000       0x81 /home/vladimir/Documentos/SOFTWARE/arduino/BluePill/primeros_ejemplos/Thermocouple/build/core/core.a(wirish_time.cpp.o)
 .comment       0x0000000000000000       0x81 /home/vladimir/Documentos/SOFTWARE/arduino/BluePill/primeros_ejemplos/Thermocouple/build/core/core.a(wirish_digital_f1.cpp.o)
 .comment       0x0000000000000000       0x81 /home/vladimir/Documentos/SOFTWARE/arduino/BluePill/primeros_ejemplos/Thermocouple/build/core/core.a(hooks.c.o)
 .comment       0x0000000000000000       0x81 /home/vladimir/Documentos/SOFTWARE/arduino/BluePill/primeros_ejemplos/Thermocouple/build/core/core.a(bkp_f1.c.o)
 .comment       0x0000000000000000       0x81 /home/vladimir/Documentos/SOFTWARE/arduino/BluePill/primeros_ejemplos/Thermocouple/build/core/core.a(dma.c.o)
 .comment       0x0000000000000000       0x81 /home/vladimir/Documentos/SOFTWARE/arduino/BluePill/primeros_ejemplos/Thermocouple/build/core/core.a(gpio.c.o)
 .comment       0x0000000000000000       0x81 /home/vladimir/Documentos/SOFTWARE/arduino/BluePill/primeros_ejemplos/Thermocouple/build/core/core.a(i2c.c.o)
 .comment       0x0000000000000000       0x81 /home/vladimir/Documentos/SOFTWARE/arduino/BluePill/primeros_ejemplos/Thermocouple/build/core/core.a(usart.c.o)

Cross Reference Table

Symbol                                            File
ADC1                                              /home/vladimir/Documentos/SOFTWARE/arduino/BluePill/primeros_ejemplos/Thermocouple/build/core/core.a(adc_f1.c.o)
ADC2                                              /home/vladimir/Documentos/SOFTWARE/arduino/BluePill/primeros_ejemplos/Thermocouple/build/core/core.a(adc_f1.c.o)
BKP                                               /home/vladimir/Documentos/SOFTWARE/arduino/BluePill/primeros_ejemplos/Thermocouple/build/core/core.a(bkp_f1.c.o)
ByteSwap                                          /home/vladimir/Documentos/SOFTWARE/arduino/BluePill/primeros_ejemplos/Thermocouple/build/core/core.a(usb_regs.c.o)
ClearDTOG_RX                                      /home/vladimir/Documentos/SOFTWARE/arduino/BluePill/primeros_ejemplos/Thermocouple/build/core/core.a(usb_regs.c.o)
                                                  /home/vladimir/Documentos/SOFTWARE/arduino/BluePill/primeros_ejemplos/Thermocouple/build/core/core.a(usb_core.c.o)
ClearDTOG_TX                                      /home/vladimir/Documentos/SOFTWARE/arduino/BluePill/primeros_ejemplos/Thermocouple/build/core/core.a(usb_regs.c.o)
                                                  /home/vladimir/Documentos/SOFTWARE/arduino/BluePill/primeros_ejemplos/Thermocouple/build/core/core.a(usb_core.c.o)
ClearEPDoubleBuff                                 /home/vladimir/Documentos/SOFTWARE/arduino/BluePill/primeros_ejemplos/Thermocouple/build/core/core.a(usb_regs.c.o)
ClearEP_CTR_RX                                    /home/vladimir/Documentos/SOFTWARE/arduino/BluePill/primeros_ejemplos/Thermocouple/build/core/core.a(usb_regs.c.o)
ClearEP_CTR_TX                                    /home/vladimir/Documentos/SOFTWARE/arduino/BluePill/primeros_ejemplos/Thermocouple/build/core/core.a(usb_regs.c.o)
ClearEP_KIND                                      /home/vladimir/Documentos/SOFTWARE/arduino/BluePill/primeros_ejemplos/Thermocouple/build/core/core.a(usb_regs.c.o)
Clear_Status_Out                                  /home/vladimir/Documentos/SOFTWARE/arduino/BluePill/primeros_ejemplos/Thermocouple/build/core/core.a(usb_regs.c.o)
DMA1                                              /home/vladimir/Documentos/SOFTWARE/arduino/BluePill/primeros_ejemplos/Thermocouple/build/core/core.a(dma_f1.c.o)
Data_Mul_MaxPacketSize                            /home/vladimir/Documentos/SOFTWARE/arduino/BluePill/primeros_ejemplos/Thermocouple/build/core/core.a(usb_core.c.o)
Device_Info                                       /home/vladimir/Documentos/SOFTWARE/arduino/BluePill/primeros_ejemplos/Thermocouple/build/core/core.a(usb_init.c.o)
                                                  /home/vladimir/Documentos/SOFTWARE/arduino/BluePill/primeros_ejemplos/Thermocouple/build/core/core.a(usb.c.o)
Device_Property                                   /home/vladimir/Documentos/SOFTWARE/arduino/BluePill/primeros_ejemplos/Thermocouple/build/core/core.a(usb_cdcacm.c.o)
                                                  /home/vladimir/Documentos/SOFTWARE/arduino/BluePill/primeros_ejemplos/Thermocouple/build/core/core.a(usb_init.c.o)
                                                  /home/vladimir/Documentos/SOFTWARE/arduino/BluePill/primeros_ejemplos/Thermocouple/build/core/core.a(usb_core.c.o)
                                                  /home/vladimir/Documentos/SOFTWARE/arduino/BluePill/primeros_ejemplos/Thermocouple/build/core/core.a(usb.c.o)
Device_Table                                      /home/vladimir/Documentos/SOFTWARE/arduino/BluePill/primeros_ejemplos/Thermocouple/build/core/core.a(usb_cdcacm.c.o)
                                                  /home/vladimir/Documentos/SOFTWARE/arduino/BluePill/primeros_ejemplos/Thermocouple/build/core/core.a(usb_core.c.o)
EPindex                                           /home/vladimir/Documentos/SOFTWARE/arduino/BluePill/primeros_ejemplos/Thermocouple/build/core/core.a(usb_init.c.o)
FreeUserBuffer                                    /home/vladimir/Documentos/SOFTWARE/arduino/BluePill/primeros_ejemplos/Thermocouple/build/core/core.a(usb_regs.c.o)
GPIOA                                             /home/vladimir/Documentos/SOFTWARE/arduino/BluePill/primeros_ejemplos/Thermocouple/build/core/core.a(gpio_f1.c.o)
GPIOB                                             /home/vladimir/Documentos/SOFTWARE/arduino/BluePill/primeros_ejemplos/Thermocouple/build/core/core.a(gpio_f1.c.o)
GPIOC                                             /home/vladimir/Documentos/SOFTWARE/arduino/BluePill/primeros_ejemplos/Thermocouple/build/core/core.a(gpio_f1.c.o)
                                                  /home/vladimir/Documentos/SOFTWARE/arduino/BluePill/primeros_ejemplos/Thermocouple/build/core/core.a(util.c.o)
GPIOD                                             /home/vladimir/Documentos/SOFTWARE/arduino/BluePill/primeros_ejemplos/Thermocouple/build/core/core.a(gpio_f1.c.o)
GetBTABLE                                         /home/vladimir/Documentos/SOFTWARE/arduino/BluePill/primeros_ejemplos/Thermocouple/build/core/core.a(usb_regs.c.o)
GetCNTR                                           /home/vladimir/Documentos/SOFTWARE/arduino/BluePill/primeros_ejemplos/Thermocouple/build/core/core.a(usb_regs.c.o)
GetDADDR                                          /home/vladimir/Documentos/SOFTWARE/arduino/BluePill/primeros_ejemplos/Thermocouple/build/core/core.a(usb_regs.c.o)
GetENDPOINT                                       /home/vladimir/Documentos/SOFTWARE/arduino/BluePill/primeros_ejemplos/Thermocouple/build/core/core.a(usb_regs.c.o)
GetEPAddress                                      /home/vladimir/Documentos/SOFTWARE/arduino/BluePill/primeros_ejemplos/Thermocouple/build/core/core.a(usb_regs.c.o)
GetEPDblBuf0Addr                                  /home/vladimir/Documentos/SOFTWARE/arduino/BluePill/primeros_ejemplos/Thermocouple/build/core/core.a(usb_regs.c.o)
GetEPDblBuf0Count                                 /home/vladimir/Documentos/SOFTWARE/arduino/BluePill/primeros_ejemplos/Thermocouple/build/core/core.a(usb_regs.c.o)
GetEPDblBuf1Addr                                  /home/vladimir/Documentos/SOFTWARE/arduino/BluePill/primeros_ejemplos/Thermocouple/build/core/core.a(usb_regs.c.o)
GetEPDblBuf1Count                                 /home/vladimir/Documentos/SOFTWARE/arduino/BluePill/primeros_ejemplos/Thermocouple/build/core/core.a(usb_regs.c.o)
GetEPDblBufDir                                    /home/vladimir/Documentos/SOFTWARE/arduino/BluePill/primeros_ejemplos/Thermocouple/build/core/core.a(usb_regs.c.o)
GetEPRxAddr                                       /home/vladimir/Documentos/SOFTWARE/arduino/BluePill/primeros_ejemplos/Thermocouple/build/core/core.a(usb_regs.c.o)
                                                  /home/vladimir/Documentos/SOFTWARE/arduino/BluePill/primeros_ejemplos/Thermocouple/build/core/core.a(usb_core.c.o)
GetEPRxCount                                      /home/vladimir/Documentos/SOFTWARE/arduino/BluePill/primeros_ejemplos/Thermocouple/build/core/core.a(usb_regs.c.o)
GetEPRxStatus                                     /home/vladimir/Documentos/SOFTWARE/arduino/BluePill/primeros_ejemplos/Thermocouple/build/core/core.a(usb_regs.c.o)
GetEPTxAddr                                       /home/vladimir/Documentos/SOFTWARE/arduino/BluePill/primeros_ejemplos/Thermocouple/build/core/core.a(usb_regs.c.o)
                                                  /home/vladimir/Documentos/SOFTWARE/arduino/BluePill/primeros_ejemplos/Thermocouple/build/core/core.a(usb_core.c.o)
GetEPTxCount                                      /home/vladimir/Documentos/SOFTWARE/arduino/BluePill/primeros_ejemplos/Thermocouple/build/core/core.a(usb_regs.c.o)
GetEPTxStatus                                     /home/vladimir/Documentos/SOFTWARE/arduino/BluePill/primeros_ejemplos/Thermocouple/build/core/core.a(usb_regs.c.o)
GetEPType                                         /home/vladimir/Documentos/SOFTWARE/arduino/BluePill/primeros_ejemplos/Thermocouple/build/core/core.a(usb_regs.c.o)
GetFNR                                            /home/vladimir/Documentos/SOFTWARE/arduino/BluePill/primeros_ejemplos/Thermocouple/build/core/core.a(usb_regs.c.o)
GetISTR                                           /home/vladimir/Documentos/SOFTWARE/arduino/BluePill/primeros_ejemplos/Thermocouple/build/core/core.a(usb_regs.c.o)
GetRxStallStatus                                  /home/vladimir/Documentos/SOFTWARE/arduino/BluePill/primeros_ejemplos/Thermocouple/build/core/core.a(usb_regs.c.o)
GetTxStallStatus                                  /home/vladimir/Documentos/SOFTWARE/arduino/BluePill/primeros_ejemplos/Thermocouple/build/core/core.a(usb_regs.c.o)
HardwareSerial::HardwareSerial(usart_dev*, unsigned char, unsigned char) /home/vladimir/Documentos/SOFTWARE/arduino/BluePill/primeros_ejemplos/Thermocouple/build/core/core.a(HardwareSerial.cpp.o)
HardwareSerial::HardwareSerial(usart_dev*, unsigned char, unsigned char) /home/vladimir/Documentos/SOFTWARE/arduino/BluePill/primeros_ejemplos/Thermocouple/build/core/core.a(HardwareSerial.cpp.o)
                                                  /home/vladimir/Documentos/SOFTWARE/arduino/BluePill/primeros_ejemplos/Thermocouple/build/core/board.cpp.o
HardwareSerial::available()                       /home/vladimir/Documentos/SOFTWARE/arduino/BluePill/primeros_ejemplos/Thermocouple/build/core/core.a(HardwareSerial.cpp.o)
HardwareSerial::availableForWrite()               /home/vladimir/Documentos/SOFTWARE/arduino/BluePill/primeros_ejemplos/Thermocouple/build/core/core.a(HardwareSerial.cpp.o)
HardwareSerial::begin(unsigned long)              /home/vladimir/Documentos/SOFTWARE/arduino/BluePill/primeros_ejemplos/Thermocouple/build/core/core.a(HardwareSerial.cpp.o)
HardwareSerial::begin(unsigned long, unsigned char) /home/vladimir/Documentos/SOFTWARE/arduino/BluePill/primeros_ejemplos/Thermocouple/build/core/core.a(HardwareSerial.cpp.o)
HardwareSerial::end()                             /home/vladimir/Documentos/SOFTWARE/arduino/BluePill/primeros_ejemplos/Thermocouple/build/core/core.a(HardwareSerial.cpp.o)
HardwareSerial::flush()                           /home/vladimir/Documentos/SOFTWARE/arduino/BluePill/primeros_ejemplos/Thermocouple/build/core/core.a(HardwareSerial.cpp.o)
HardwareSerial::peek()                            /home/vladimir/Documentos/SOFTWARE/arduino/BluePill/primeros_ejemplos/Thermocouple/build/core/core.a(HardwareSerial.cpp.o)
HardwareSerial::read()                            /home/vladimir/Documentos/SOFTWARE/arduino/BluePill/primeros_ejemplos/Thermocouple/build/core/core.a(HardwareSerial.cpp.o)
HardwareSerial::write(unsigned char)              /home/vladimir/Documentos/SOFTWARE/arduino/BluePill/primeros_ejemplos/Thermocouple/build/core/core.a(HardwareSerial.cpp.o)
I2C1                                              /home/vladimir/Documentos/SOFTWARE/arduino/BluePill/primeros_ejemplos/Thermocouple/build/core/core.a(i2c_f1.c.o)
                                                  /home/vladimir/Documentos/SOFTWARE/arduino/BluePill/primeros_ejemplos/Thermocouple/build/core/core.a(i2c.c.o)
I2C2                                              /home/vladimir/Documentos/SOFTWARE/arduino/BluePill/primeros_ejemplos/Thermocouple/build/core/core.a(i2c_f1.c.o)
In0_Process                                       /home/vladimir/Documentos/SOFTWARE/arduino/BluePill/primeros_ejemplos/Thermocouple/build/core/core.a(usb_core.c.o)
                                                  /home/vladimir/Documentos/SOFTWARE/arduino/BluePill/primeros_ejemplos/Thermocouple/build/core/core.a(usb.c.o)
MAX6675::MAX6675(signed char, signed char, signed char) /home/vladimir/Documentos/SOFTWARE/arduino/BluePill/primeros_ejemplos/Thermocouple/build/libraries/MAX6675_library-1.0.1/max6675.cpp.o
                                                  /home/vladimir/Documentos/SOFTWARE/arduino/BluePill/primeros_ejemplos/Thermocouple/build/sketch/Thermocouple.ino.cpp.o
MAX6675::MAX6675(signed char, signed char, signed char) /home/vladimir/Documentos/SOFTWARE/arduino/BluePill/primeros_ejemplos/Thermocouple/build/libraries/MAX6675_library-1.0.1/max6675.cpp.o
MAX6675::readCelsius()                            /home/vladimir/Documentos/SOFTWARE/arduino/BluePill/primeros_ejemplos/Thermocouple/build/libraries/MAX6675_library-1.0.1/max6675.cpp.o
                                                  /home/vladimir/Documentos/SOFTWARE/arduino/BluePill/primeros_ejemplos/Thermocouple/build/sketch/Thermocouple.ino.cpp.o
MAX6675::readFahrenheit()                         /home/vladimir/Documentos/SOFTWARE/arduino/BluePill/primeros_ejemplos/Thermocouple/build/libraries/MAX6675_library-1.0.1/max6675.cpp.o
MAX6675::spiread()                                /home/vladimir/Documentos/SOFTWARE/arduino/BluePill/primeros_ejemplos/Thermocouple/build/libraries/MAX6675_library-1.0.1/max6675.cpp.o
NOP_Process                                       /home/vladimir/Documentos/SOFTWARE/arduino/BluePill/primeros_ejemplos/Thermocouple/build/core/core.a(usb_core.c.o)
                                                  /home/vladimir/Documentos/SOFTWARE/arduino/BluePill/primeros_ejemplos/Thermocouple/build/core/core.a(usb_cdcacm.c.o)
Out0_Process                                      /home/vladimir/Documentos/SOFTWARE/arduino/BluePill/primeros_ejemplos/Thermocouple/build/core/core.a(usb_core.c.o)
                                                  /home/vladimir/Documentos/SOFTWARE/arduino/BluePill/primeros_ejemplos/Thermocouple/build/core/core.a(usb.c.o)
PIN_MAP                                           /home/vladimir/Documentos/SOFTWARE/arduino/BluePill/primeros_ejemplos/Thermocouple/build/core/board.cpp.o
                                                  /home/vladimir/Documentos/SOFTWARE/arduino/BluePill/primeros_ejemplos/Thermocouple/build/core/core.a(wirish_digital_f1.cpp.o)
                                                  /home/vladimir/Documentos/SOFTWARE/arduino/BluePill/primeros_ejemplos/Thermocouple/build/core/core.a(wirish_digital.cpp.o)
                                                  /home/vladimir/Documentos/SOFTWARE/arduino/BluePill/primeros_ejemplos/Thermocouple/build/core/core.a(HardwareSerial.cpp.o)
                                                  /home/vladimir/Documentos/SOFTWARE/arduino/BluePill/primeros_ejemplos/Thermocouple/build/core/wirish/boards_setup.cpp.o
PMAToUserBufferCopy                               /home/vladimir/Documentos/SOFTWARE/arduino/BluePill/primeros_ejemplos/Thermocouple/build/core/core.a(usb_mem.c.o)
                                                  /home/vladimir/Documentos/SOFTWARE/arduino/BluePill/primeros_ejemplos/Thermocouple/build/core/core.a(usb_core.c.o)
Post0_Process                                     /home/vladimir/Documentos/SOFTWARE/arduino/BluePill/primeros_ejemplos/Thermocouple/build/core/core.a(usb_core.c.o)
Print::print(Printable const&)                    /home/vladimir/Documentos/SOFTWARE/arduino/BluePill/primeros_ejemplos/Thermocouple/build/core/core.a(Print.cpp.o)
Print::print(String const&)                       /home/vladimir/Documentos/SOFTWARE/arduino/BluePill/primeros_ejemplos/Thermocouple/build/core/core.a(Print.cpp.o)
Print::print(__FlashStringHelper const*)          /home/vladimir/Documentos/SOFTWARE/arduino/BluePill/primeros_ejemplos/Thermocouple/build/core/core.a(Print.cpp.o)
Print::print(char const*)                         /home/vladimir/Documentos/SOFTWARE/arduino/BluePill/primeros_ejemplos/Thermocouple/build/core/core.a(Print.cpp.o)
Print::print(char)                                /home/vladimir/Documentos/SOFTWARE/arduino/BluePill/primeros_ejemplos/Thermocouple/build/core/core.a(Print.cpp.o)
Print::print(double, int)                         /home/vladimir/Documentos/SOFTWARE/arduino/BluePill/primeros_ejemplos/Thermocouple/build/core/core.a(Print.cpp.o)
Print::print(int, int)                            /home/vladimir/Documentos/SOFTWARE/arduino/BluePill/primeros_ejemplos/Thermocouple/build/core/core.a(Print.cpp.o)
Print::print(long long, int)                      /home/vladimir/Documentos/SOFTWARE/arduino/BluePill/primeros_ejemplos/Thermocouple/build/core/core.a(Print.cpp.o)
Print::print(long, int)                           /home/vladimir/Documentos/SOFTWARE/arduino/BluePill/primeros_ejemplos/Thermocouple/build/core/core.a(Print.cpp.o)
Print::print(unsigned char, int)                  /home/vladimir/Documentos/SOFTWARE/arduino/BluePill/primeros_ejemplos/Thermocouple/build/core/core.a(Print.cpp.o)
Print::print(unsigned int, int)                   /home/vladimir/Documentos/SOFTWARE/arduino/BluePill/primeros_ejemplos/Thermocouple/build/core/core.a(Print.cpp.o)
Print::print(unsigned long long, int)             /home/vladimir/Documentos/SOFTWARE/arduino/BluePill/primeros_ejemplos/Thermocouple/build/core/core.a(Print.cpp.o)
Print::print(unsigned long, int)                  /home/vladimir/Documentos/SOFTWARE/arduino/BluePill/primeros_ejemplos/Thermocouple/build/core/core.a(Print.cpp.o)
Print::printFloat(double, unsigned char)          /home/vladimir/Documentos/SOFTWARE/arduino/BluePill/primeros_ejemplos/Thermocouple/build/core/core.a(Print.cpp.o)
Print::printNumber(unsigned long long, unsigned char) /home/vladimir/Documentos/SOFTWARE/arduino/BluePill/primeros_ejemplos/Thermocouple/build/core/core.a(Print.cpp.o)
Print::println()                                  /home/vladimir/Documentos/SOFTWARE/arduino/BluePill/primeros_ejemplos/Thermocouple/build/core/core.a(Print.cpp.o)
Print::println(Printable const&)                  /home/vladimir/Documentos/SOFTWARE/arduino/BluePill/primeros_ejemplos/Thermocouple/build/core/core.a(Print.cpp.o)
Print::println(String const&)                     /home/vladimir/Documentos/SOFTWARE/arduino/BluePill/primeros_ejemplos/Thermocouple/build/core/core.a(Print.cpp.o)
Print::println(__FlashStringHelper const*)        /home/vladimir/Documentos/SOFTWARE/arduino/BluePill/primeros_ejemplos/Thermocouple/build/core/core.a(Print.cpp.o)
Print::println(char const*)                       /home/vladimir/Documentos/SOFTWARE/arduino/BluePill/primeros_ejemplos/Thermocouple/build/core/core.a(Print.cpp.o)
                                                  /home/vladimir/Documentos/SOFTWARE/arduino/BluePill/primeros_ejemplos/Thermocouple/build/sketch/Thermocouple.ino.cpp.o
Print::println(char)                              /home/vladimir/Documentos/SOFTWARE/arduino/BluePill/primeros_ejemplos/Thermocouple/build/core/core.a(Print.cpp.o)
Print::println(double, int)                       /home/vladimir/Documentos/SOFTWARE/arduino/BluePill/primeros_ejemplos/Thermocouple/build/core/core.a(Print.cpp.o)
Print::println(int, int)                          /home/vladimir/Documentos/SOFTWARE/arduino/BluePill/primeros_ejemplos/Thermocouple/build/core/core.a(Print.cpp.o)
Print::println(long long, int)                    /home/vladimir/Documentos/SOFTWARE/arduino/BluePill/primeros_ejemplos/Thermocouple/build/core/core.a(Print.cpp.o)
Print::println(long, int)                         /home/vladimir/Documentos/SOFTWARE/arduino/BluePill/primeros_ejemplos/Thermocouple/build/core/core.a(Print.cpp.o)
Print::println(unsigned char, int)                /home/vladimir/Documentos/SOFTWARE/arduino/BluePill/primeros_ejemplos/Thermocouple/build/core/core.a(Print.cpp.o)
Print::println(unsigned int, int)                 /home/vladimir/Documentos/SOFTWARE/arduino/BluePill/primeros_ejemplos/Thermocouple/build/core/core.a(Print.cpp.o)
Print::println(unsigned long long, int)           /home/vladimir/Documentos/SOFTWARE/arduino/BluePill/primeros_ejemplos/Thermocouple/build/core/core.a(Print.cpp.o)
Print::println(unsigned long, int)                /home/vladimir/Documentos/SOFTWARE/arduino/BluePill/primeros_ejemplos/Thermocouple/build/core/core.a(Print.cpp.o)
Print::write(char const*)                         /home/vladimir/Documentos/SOFTWARE/arduino/BluePill/primeros_ejemplos/Thermocouple/build/core/core.a(Print.cpp.o)
                                                  /home/vladimir/Documentos/SOFTWARE/arduino/BluePill/primeros_ejemplos/Thermocouple/build/core/core.a(usb_serial.cpp.o)
                                                  /home/vladimir/Documentos/SOFTWARE/arduino/BluePill/primeros_ejemplos/Thermocouple/build/core/core.a(HardwareSerial.cpp.o)
Print::write(void const*, unsigned long)          /home/vladimir/Documentos/SOFTWARE/arduino/BluePill/primeros_ejemplos/Thermocouple/build/core/core.a(Print.cpp.o)
                                                  /home/vladimir/Documentos/SOFTWARE/arduino/BluePill/primeros_ejemplos/Thermocouple/build/core/core.a(usb_serial.cpp.o)
                                                  /home/vladimir/Documentos/SOFTWARE/arduino/BluePill/primeros_ejemplos/Thermocouple/build/core/core.a(HardwareSerial.cpp.o)
ResumeS                                           /home/vladimir/Documentos/SOFTWARE/arduino/BluePill/primeros_ejemplos/Thermocouple/build/core/core.a(usb.c.o)
SaveRState                                        /home/vladimir/Documentos/SOFTWARE/arduino/BluePill/primeros_ejemplos/Thermocouple/build/core/core.a(usb_core.c.o)
                                                  /home/vladimir/Documentos/SOFTWARE/arduino/BluePill/primeros_ejemplos/Thermocouple/build/core/core.a(usb.c.o)
SaveState                                         /home/vladimir/Documentos/SOFTWARE/arduino/BluePill/primeros_ejemplos/Thermocouple/build/core/core.a(usb_init.c.o)
SaveTState                                        /home/vladimir/Documentos/SOFTWARE/arduino/BluePill/primeros_ejemplos/Thermocouple/build/core/core.a(usb_core.c.o)
                                                  /home/vladimir/Documentos/SOFTWARE/arduino/BluePill/primeros_ejemplos/Thermocouple/build/core/core.a(usb.c.o)
Serial                                            /home/vladimir/Documentos/SOFTWARE/arduino/BluePill/primeros_ejemplos/Thermocouple/build/core/core.a(usb_serial.cpp.o)
                                                  /home/vladimir/Documentos/SOFTWARE/arduino/BluePill/primeros_ejemplos/Thermocouple/build/core/wirish/boards_setup.cpp.o
                                                  /home/vladimir/Documentos/SOFTWARE/arduino/BluePill/primeros_ejemplos/Thermocouple/build/sketch/Thermocouple.ino.cpp.o
Serial1                                           /home/vladimir/Documentos/SOFTWARE/arduino/BluePill/primeros_ejemplos/Thermocouple/build/core/board.cpp.o
Serial2                                           /home/vladimir/Documentos/SOFTWARE/arduino/BluePill/primeros_ejemplos/Thermocouple/build/core/board.cpp.o
Serial3                                           /home/vladimir/Documentos/SOFTWARE/arduino/BluePill/primeros_ejemplos/Thermocouple/build/core/board.cpp.o
SetBTABLE                                         /home/vladimir/Documentos/SOFTWARE/arduino/BluePill/primeros_ejemplos/Thermocouple/build/core/core.a(usb_regs.c.o)
SetCNTR                                           /home/vladimir/Documentos/SOFTWARE/arduino/BluePill/primeros_ejemplos/Thermocouple/build/core/core.a(usb_regs.c.o)
SetDADDR                                          /home/vladimir/Documentos/SOFTWARE/arduino/BluePill/primeros_ejemplos/Thermocouple/build/core/core.a(usb_regs.c.o)
SetDeviceAddress                                  /home/vladimir/Documentos/SOFTWARE/arduino/BluePill/primeros_ejemplos/Thermocouple/build/core/core.a(usb_core.c.o)
                                                  /home/vladimir/Documentos/SOFTWARE/arduino/BluePill/primeros_ejemplos/Thermocouple/build/core/core.a(usb_cdcacm.c.o)
SetDouBleBuffEPStall                              /home/vladimir/Documentos/SOFTWARE/arduino/BluePill/primeros_ejemplos/Thermocouple/build/core/core.a(usb_regs.c.o)
SetENDPOINT                                       /home/vladimir/Documentos/SOFTWARE/arduino/BluePill/primeros_ejemplos/Thermocouple/build/core/core.a(usb_regs.c.o)
SetEPAddress                                      /home/vladimir/Documentos/SOFTWARE/arduino/BluePill/primeros_ejemplos/Thermocouple/build/core/core.a(usb_regs.c.o)
SetEPCountRxReg                                   /home/vladimir/Documentos/SOFTWARE/arduino/BluePill/primeros_ejemplos/Thermocouple/build/core/core.a(usb_regs.c.o)
SetEPDblBuf0Addr                                  /home/vladimir/Documentos/SOFTWARE/arduino/BluePill/primeros_ejemplos/Thermocouple/build/core/core.a(usb_regs.c.o)
SetEPDblBuf0Count                                 /home/vladimir/Documentos/SOFTWARE/arduino/BluePill/primeros_ejemplos/Thermocouple/build/core/core.a(usb_regs.c.o)
SetEPDblBuf1Addr                                  /home/vladimir/Documentos/SOFTWARE/arduino/BluePill/primeros_ejemplos/Thermocouple/build/core/core.a(usb_regs.c.o)
SetEPDblBuf1Count                                 /home/vladimir/Documentos/SOFTWARE/arduino/BluePill/primeros_ejemplos/Thermocouple/build/core/core.a(usb_regs.c.o)
SetEPDblBuffAddr                                  /home/vladimir/Documentos/SOFTWARE/arduino/BluePill/primeros_ejemplos/Thermocouple/build/core/core.a(usb_regs.c.o)
SetEPDblBuffCount                                 /home/vladimir/Documentos/SOFTWARE/arduino/BluePill/primeros_ejemplos/Thermocouple/build/core/core.a(usb_regs.c.o)
SetEPDoubleBuff                                   /home/vladimir/Documentos/SOFTWARE/arduino/BluePill/primeros_ejemplos/Thermocouple/build/core/core.a(usb_regs.c.o)
SetEPRxAddr                                       /home/vladimir/Documentos/SOFTWARE/arduino/BluePill/primeros_ejemplos/Thermocouple/build/core/core.a(usb_regs.c.o)
SetEPRxCount                                      /home/vladimir/Documentos/SOFTWARE/arduino/BluePill/primeros_ejemplos/Thermocouple/build/core/core.a(usb_regs.c.o)
                                                  /home/vladimir/Documentos/SOFTWARE/arduino/BluePill/primeros_ejemplos/Thermocouple/build/core/core.a(usb_core.c.o)
SetEPRxStatus                                     /home/vladimir/Documentos/SOFTWARE/arduino/BluePill/primeros_ejemplos/Thermocouple/build/core/core.a(usb_regs.c.o)
SetEPRxValid                                      /home/vladimir/Documentos/SOFTWARE/arduino/BluePill/primeros_ejemplos/Thermocouple/build/core/core.a(usb_regs.c.o)
SetEPTxAddr                                       /home/vladimir/Documentos/SOFTWARE/arduino/BluePill/primeros_ejemplos/Thermocouple/build/core/core.a(usb_regs.c.o)
SetEPTxCount                                      /home/vladimir/Documentos/SOFTWARE/arduino/BluePill/primeros_ejemplos/Thermocouple/build/core/core.a(usb_regs.c.o)
                                                  /home/vladimir/Documentos/SOFTWARE/arduino/BluePill/primeros_ejemplos/Thermocouple/build/core/core.a(usb_core.c.o)
SetEPTxStatus                                     /home/vladimir/Documentos/SOFTWARE/arduino/BluePill/primeros_ejemplos/Thermocouple/build/core/core.a(usb_regs.c.o)
                                                  /home/vladimir/Documentos/SOFTWARE/arduino/BluePill/primeros_ejemplos/Thermocouple/build/core/core.a(usb_core.c.o)
SetEPTxValid                                      /home/vladimir/Documentos/SOFTWARE/arduino/BluePill/primeros_ejemplos/Thermocouple/build/core/core.a(usb_regs.c.o)
SetEPType                                         /home/vladimir/Documentos/SOFTWARE/arduino/BluePill/primeros_ejemplos/Thermocouple/build/core/core.a(usb_regs.c.o)
SetEP_KIND                                        /home/vladimir/Documentos/SOFTWARE/arduino/BluePill/primeros_ejemplos/Thermocouple/build/core/core.a(usb_regs.c.o)
SetISTR                                           /home/vladimir/Documentos/SOFTWARE/arduino/BluePill/primeros_ejemplos/Thermocouple/build/core/core.a(usb_regs.c.o)
Set_Status_Out                                    /home/vladimir/Documentos/SOFTWARE/arduino/BluePill/primeros_ejemplos/Thermocouple/build/core/core.a(usb_regs.c.o)
Setup0_Process                                    /home/vladimir/Documentos/SOFTWARE/arduino/BluePill/primeros_ejemplos/Thermocouple/build/core/core.a(usb_core.c.o)
                                                  /home/vladimir/Documentos/SOFTWARE/arduino/BluePill/primeros_ejemplos/Thermocouple/build/core/core.a(usb.c.o)
Standard_ClearFeature                             /home/vladimir/Documentos/SOFTWARE/arduino/BluePill/primeros_ejemplos/Thermocouple/build/core/core.a(usb_core.c.o)
Standard_GetConfiguration                         /home/vladimir/Documentos/SOFTWARE/arduino/BluePill/primeros_ejemplos/Thermocouple/build/core/core.a(usb_core.c.o)
Standard_GetDescriptorData                        /home/vladimir/Documentos/SOFTWARE/arduino/BluePill/primeros_ejemplos/Thermocouple/build/core/core.a(usb_core.c.o)
                                                  /home/vladimir/Documentos/SOFTWARE/arduino/BluePill/primeros_ejemplos/Thermocouple/build/core/core.a(usb_cdcacm.c.o)
Standard_GetInterface                             /home/vladimir/Documentos/SOFTWARE/arduino/BluePill/primeros_ejemplos/Thermocouple/build/core/core.a(usb_core.c.o)
Standard_GetStatus                                /home/vladimir/Documentos/SOFTWARE/arduino/BluePill/primeros_ejemplos/Thermocouple/build/core/core.a(usb_core.c.o)
Standard_SetConfiguration                         /home/vladimir/Documentos/SOFTWARE/arduino/BluePill/primeros_ejemplos/Thermocouple/build/core/core.a(usb_core.c.o)
Standard_SetDeviceFeature                         /home/vladimir/Documentos/SOFTWARE/arduino/BluePill/primeros_ejemplos/Thermocouple/build/core/core.a(usb_core.c.o)
Standard_SetEndPointFeature                       /home/vladimir/Documentos/SOFTWARE/arduino/BluePill/primeros_ejemplos/Thermocouple/build/core/core.a(usb_core.c.o)
Standard_SetInterface                             /home/vladimir/Documentos/SOFTWARE/arduino/BluePill/primeros_ejemplos/Thermocouple/build/core/core.a(usb_core.c.o)
StatusInfo                                        /home/vladimir/Documentos/SOFTWARE/arduino/BluePill/primeros_ejemplos/Thermocouple/build/core/core.a(usb_core.c.o)
TIMER1                                            /home/vladimir/Documentos/SOFTWARE/arduino/BluePill/primeros_ejemplos/Thermocouple/build/core/core.a(timer.c.o)
TIMER2                                            /home/vladimir/Documentos/SOFTWARE/arduino/BluePill/primeros_ejemplos/Thermocouple/build/core/core.a(timer.c.o)
TIMER3                                            /home/vladimir/Documentos/SOFTWARE/arduino/BluePill/primeros_ejemplos/Thermocouple/build/core/core.a(timer.c.o)
TIMER4                                            /home/vladimir/Documentos/SOFTWARE/arduino/BluePill/primeros_ejemplos/Thermocouple/build/core/core.a(timer.c.o)
ToWord                                            /home/vladimir/Documentos/SOFTWARE/arduino/BluePill/primeros_ejemplos/Thermocouple/build/core/core.a(usb_regs.c.o)
ToggleDTOG_RX                                     /home/vladimir/Documentos/SOFTWARE/arduino/BluePill/primeros_ejemplos/Thermocouple/build/core/core.a(usb_regs.c.o)
ToggleDTOG_TX                                     /home/vladimir/Documentos/SOFTWARE/arduino/BluePill/primeros_ejemplos/Thermocouple/build/core/core.a(usb_regs.c.o)
USART1                                            /home/vladimir/Documentos/SOFTWARE/arduino/BluePill/primeros_ejemplos/Thermocouple/build/core/core.a(usart_f1.c.o)
                                                  /home/vladimir/Documentos/SOFTWARE/arduino/BluePill/primeros_ejemplos/Thermocouple/build/core/board.cpp.o
USART2                                            /home/vladimir/Documentos/SOFTWARE/arduino/BluePill/primeros_ejemplos/Thermocouple/build/core/core.a(usart_f1.c.o)
                                                  /home/vladimir/Documentos/SOFTWARE/arduino/BluePill/primeros_ejemplos/Thermocouple/build/core/board.cpp.o
USART3                                            /home/vladimir/Documentos/SOFTWARE/arduino/BluePill/primeros_ejemplos/Thermocouple/build/core/core.a(usart_f1.c.o)
                                                  /home/vladimir/Documentos/SOFTWARE/arduino/BluePill/primeros_ejemplos/Thermocouple/build/core/board.cpp.o
USBLIB                                            /home/vladimir/Documentos/SOFTWARE/arduino/BluePill/primeros_ejemplos/Thermocouple/build/core/core.a(usb.c.o)
                                                  /home/vladimir/Documentos/SOFTWARE/arduino/BluePill/primeros_ejemplos/Thermocouple/build/core/core.a(usb_serial.cpp.o)
                                                  /home/vladimir/Documentos/SOFTWARE/arduino/BluePill/primeros_ejemplos/Thermocouple/build/core/core.a(usb_cdcacm.c.o)
USBSerial::USBSerial()                            /home/vladimir/Documentos/SOFTWARE/arduino/BluePill/primeros_ejemplos/Thermocouple/build/core/core.a(usb_serial.cpp.o)
USBSerial::USBSerial()                            /home/vladimir/Documentos/SOFTWARE/arduino/BluePill/primeros_ejemplos/Thermocouple/build/core/core.a(usb_serial.cpp.o)
USBSerial::_hasBegun                              /home/vladimir/Documentos/SOFTWARE/arduino/BluePill/primeros_ejemplos/Thermocouple/build/core/core.a(usb_serial.cpp.o)
USBSerial::_isBlocking                            /home/vladimir/Documentos/SOFTWARE/arduino/BluePill/primeros_ejemplos/Thermocouple/build/core/core.a(usb_serial.cpp.o)
USBSerial::available()                            /home/vladimir/Documentos/SOFTWARE/arduino/BluePill/primeros_ejemplos/Thermocouple/build/core/core.a(usb_serial.cpp.o)
USBSerial::availableForWrite()                    /home/vladimir/Documentos/SOFTWARE/arduino/BluePill/primeros_ejemplos/Thermocouple/build/core/core.a(usb_serial.cpp.o)
USBSerial::begin()                                /home/vladimir/Documentos/SOFTWARE/arduino/BluePill/primeros_ejemplos/Thermocouple/build/core/core.a(usb_serial.cpp.o)
                                                  /home/vladimir/Documentos/SOFTWARE/arduino/BluePill/primeros_ejemplos/Thermocouple/build/core/wirish/boards_setup.cpp.o
USBSerial::begin(unsigned long)                   /home/vladimir/Documentos/SOFTWARE/arduino/BluePill/primeros_ejemplos/Thermocouple/build/core/core.a(usb_serial.cpp.o)
USBSerial::begin(unsigned long, unsigned char)    /home/vladimir/Documentos/SOFTWARE/arduino/BluePill/primeros_ejemplos/Thermocouple/build/core/core.a(usb_serial.cpp.o)
USBSerial::disableBlockingTx()                    /home/vladimir/Documentos/SOFTWARE/arduino/BluePill/primeros_ejemplos/Thermocouple/build/core/core.a(usb_serial.cpp.o)
USBSerial::enableBlockingTx()                     /home/vladimir/Documentos/SOFTWARE/arduino/BluePill/primeros_ejemplos/Thermocouple/build/core/core.a(usb_serial.cpp.o)
USBSerial::end()                                  /home/vladimir/Documentos/SOFTWARE/arduino/BluePill/primeros_ejemplos/Thermocouple/build/core/core.a(usb_serial.cpp.o)
USBSerial::flush()                                /home/vladimir/Documentos/SOFTWARE/arduino/BluePill/primeros_ejemplos/Thermocouple/build/core/core.a(usb_serial.cpp.o)
USBSerial::getDTR()                               /home/vladimir/Documentos/SOFTWARE/arduino/BluePill/primeros_ejemplos/Thermocouple/build/core/core.a(usb_serial.cpp.o)
USBSerial::getRTS()                               /home/vladimir/Documentos/SOFTWARE/arduino/BluePill/primeros_ejemplos/Thermocouple/build/core/core.a(usb_serial.cpp.o)
USBSerial::operator bool()                        /home/vladimir/Documentos/SOFTWARE/arduino/BluePill/primeros_ejemplos/Thermocouple/build/core/core.a(usb_serial.cpp.o)
USBSerial::peek()                                 /home/vladimir/Documentos/SOFTWARE/arduino/BluePill/primeros_ejemplos/Thermocouple/build/core/core.a(usb_serial.cpp.o)
USBSerial::pending()                              /home/vladimir/Documentos/SOFTWARE/arduino/BluePill/primeros_ejemplos/Thermocouple/build/core/core.a(usb_serial.cpp.o)
USBSerial::read()                                 /home/vladimir/Documentos/SOFTWARE/arduino/BluePill/primeros_ejemplos/Thermocouple/build/core/core.a(usb_serial.cpp.o)
USBSerial::read(unsigned char*, unsigned long)    /home/vladimir/Documentos/SOFTWARE/arduino/BluePill/primeros_ejemplos/Thermocouple/build/core/core.a(usb_serial.cpp.o)
USBSerial::readBytes(char*, unsigned int const&)  /home/vladimir/Documentos/SOFTWARE/arduino/BluePill/primeros_ejemplos/Thermocouple/build/core/core.a(usb_serial.cpp.o)
USBSerial::write(char const*)                     /home/vladimir/Documentos/SOFTWARE/arduino/BluePill/primeros_ejemplos/Thermocouple/build/core/core.a(usb_serial.cpp.o)
USBSerial::write(unsigned char const*, unsigned long) /home/vladimir/Documentos/SOFTWARE/arduino/BluePill/primeros_ejemplos/Thermocouple/build/core/core.a(usb_serial.cpp.o)
USBSerial::write(unsigned char)                   /home/vladimir/Documentos/SOFTWARE/arduino/BluePill/primeros_ejemplos/Thermocouple/build/core/core.a(usb_serial.cpp.o)
USB_Init                                          /home/vladimir/Documentos/SOFTWARE/arduino/BluePill/primeros_ejemplos/Thermocouple/build/core/core.a(usb_init.c.o)
UserToPMABufferCopy                               /home/vladimir/Documentos/SOFTWARE/arduino/BluePill/primeros_ejemplos/Thermocouple/build/core/core.a(usb_mem.c.o)
                                                  /home/vladimir/Documentos/SOFTWARE/arduino/BluePill/primeros_ejemplos/Thermocouple/build/core/core.a(usb_core.c.o)
User_Standard_Requests                            /home/vladimir/Documentos/SOFTWARE/arduino/BluePill/primeros_ejemplos/Thermocouple/build/core/core.a(usb_cdcacm.c.o)
                                                  /home/vladimir/Documentos/SOFTWARE/arduino/BluePill/primeros_ejemplos/Thermocouple/build/core/core.a(usb_init.c.o)
                                                  /home/vladimir/Documentos/SOFTWARE/arduino/BluePill/primeros_ejemplos/Thermocouple/build/core/core.a(usb.c.o)
_Jv_RegisterClasses                               /home/vladimir/.arduino15/packages/arduino/tools/arm-none-eabi-gcc/4.8.3-2014q1/bin/../lib/gcc/arm-none-eabi/4.8.3/armv7-m/crtbegin.o
__adddf3                                          /home/vladimir/.arduino15/packages/arduino/tools/arm-none-eabi-gcc/4.8.3-2014q1/bin/../lib/gcc/arm-none-eabi/4.8.3/armv7-m/libgcc.a(_arm_addsubdf3.o)
__aeabi_cdcmpeq                                   /home/vladimir/.arduino15/packages/arduino/tools/arm-none-eabi-gcc/4.8.3-2014q1/bin/../lib/gcc/arm-none-eabi/4.8.3/armv7-m/libgcc.a(_arm_cmpdf2.o)
__aeabi_cdcmple                                   /home/vladimir/.arduino15/packages/arduino/tools/arm-none-eabi-gcc/4.8.3-2014q1/bin/../lib/gcc/arm-none-eabi/4.8.3/armv7-m/libgcc.a(_arm_cmpdf2.o)
__aeabi_cdrcmple                                  /home/vladimir/.arduino15/packages/arduino/tools/arm-none-eabi-gcc/4.8.3-2014q1/bin/../lib/gcc/arm-none-eabi/4.8.3/armv7-m/libgcc.a(_arm_cmpdf2.o)
__aeabi_d2f                                       /home/vladimir/.arduino15/packages/arduino/tools/arm-none-eabi-gcc/4.8.3-2014q1/bin/../lib/gcc/arm-none-eabi/4.8.3/armv7-m/libgcc.a(_arm_truncdfsf2.o)
                                                  /home/vladimir/Documentos/SOFTWARE/arduino/BluePill/primeros_ejemplos/Thermocouple/build/sketch/Thermocouple.ino.cpp.o
__aeabi_d2iz                                      /home/vladimir/.arduino15/packages/arduino/tools/arm-none-eabi-gcc/4.8.3-2014q1/bin/../lib/gcc/arm-none-eabi/4.8.3/armv7-m/libgcc.a(_arm_fixdfsi.o)
                                                  /home/vladimir/Documentos/SOFTWARE/arduino/BluePill/primeros_ejemplos/Thermocouple/build/core/core.a(Print.cpp.o)
__aeabi_d2lz                                      /home/vladimir/.arduino15/packages/arduino/tools/arm-none-eabi-gcc/4.8.3-2014q1/bin/../lib/gcc/arm-none-eabi/4.8.3/armv7-m/libgcc.a(_fixdfdi.o)
                                                  /home/vladimir/Documentos/SOFTWARE/arduino/BluePill/primeros_ejemplos/Thermocouple/build/core/core.a(Print.cpp.o)
__aeabi_d2uiz                                     /home/vladimir/.arduino15/packages/arduino/tools/arm-none-eabi-gcc/4.8.3-2014q1/bin/../lib/gcc/arm-none-eabi/4.8.3/armv7-m/libgcc.a(_arm_fixunsdfsi.o)
                                                  /home/vladimir/.arduino15/packages/arduino/tools/arm-none-eabi-gcc/4.8.3-2014q1/bin/../lib/gcc/arm-none-eabi/4.8.3/armv7-m/libgcc.a(_fixunsdfdi.o)
__aeabi_d2ulz                                     /home/vladimir/.arduino15/packages/arduino/tools/arm-none-eabi-gcc/4.8.3-2014q1/bin/../lib/gcc/arm-none-eabi/4.8.3/armv7-m/libgcc.a(_fixunsdfdi.o)
                                                  /home/vladimir/.arduino15/packages/arduino/tools/arm-none-eabi-gcc/4.8.3-2014q1/bin/../lib/gcc/arm-none-eabi/4.8.3/armv7-m/libgcc.a(_fixdfdi.o)
__aeabi_dadd                                      /home/vladimir/.arduino15/packages/arduino/tools/arm-none-eabi-gcc/4.8.3-2014q1/bin/../lib/gcc/arm-none-eabi/4.8.3/armv7-m/libgcc.a(_arm_addsubdf3.o)
                                                  /home/vladimir/Documentos/SOFTWARE/arduino/BluePill/primeros_ejemplos/Thermocouple/build/core/core.a(Print.cpp.o)
                                                  /home/vladimir/Documentos/SOFTWARE/arduino/BluePill/primeros_ejemplos/Thermocouple/build/libraries/MAX6675_library-1.0.1/max6675.cpp.o
                                                  /home/vladimir/Documentos/SOFTWARE/arduino/BluePill/primeros_ejemplos/Thermocouple/build/sketch/Thermocouple.ino.cpp.o
__aeabi_dcmpeq                                    /home/vladimir/.arduino15/packages/arduino/tools/arm-none-eabi-gcc/4.8.3-2014q1/bin/../lib/gcc/arm-none-eabi/4.8.3/armv7-m/libgcc.a(_arm_cmpdf2.o)
__aeabi_dcmpge                                    /home/vladimir/.arduino15/packages/arduino/tools/arm-none-eabi-gcc/4.8.3-2014q1/bin/../lib/gcc/arm-none-eabi/4.8.3/armv7-m/libgcc.a(_arm_cmpdf2.o)
                                                  /home/vladimir/Documentos/SOFTWARE/arduino/BluePill/primeros_ejemplos/Thermocouple/build/core/core.a(Print.cpp.o)
__aeabi_dcmpgt                                    /home/vladimir/.arduino15/packages/arduino/tools/arm-none-eabi-gcc/4.8.3-2014q1/bin/../lib/gcc/arm-none-eabi/4.8.3/armv7-m/libgcc.a(_arm_cmpdf2.o)
                                                  /home/vladimir/Documentos/SOFTWARE/arduino/BluePill/primeros_ejemplos/Thermocouple/build/core/core.a(Print.cpp.o)
__aeabi_dcmple                                    /home/vladimir/.arduino15/packages/arduino/tools/arm-none-eabi-gcc/4.8.3-2014q1/bin/../lib/gcc/arm-none-eabi/4.8.3/armv7-m/libgcc.a(_arm_cmpdf2.o)
                                                  /home/vladimir/Documentos/SOFTWARE/arduino/BluePill/primeros_ejemplos/Thermocouple/build/core/core.a(Print.cpp.o)
__aeabi_dcmplt                                    /home/vladimir/.arduino15/packages/arduino/tools/arm-none-eabi-gcc/4.8.3-2014q1/bin/../lib/gcc/arm-none-eabi/4.8.3/armv7-m/libgcc.a(_arm_cmpdf2.o)
                                                  /home/vladimir/.arduino15/packages/arduino/tools/arm-none-eabi-gcc/4.8.3-2014q1/bin/../lib/gcc/arm-none-eabi/4.8.3/armv7-m/libgcc.a(_fixdfdi.o)
                                                  /home/vladimir/Documentos/SOFTWARE/arduino/BluePill/primeros_ejemplos/Thermocouple/build/core/core.a(Print.cpp.o)
__aeabi_ddiv                                      /home/vladimir/.arduino15/packages/arduino/tools/arm-none-eabi-gcc/4.8.3-2014q1/bin/../lib/gcc/arm-none-eabi/4.8.3/armv7-m/libgcc.a(_arm_muldivdf3.o)
                                                  /home/vladimir/Documentos/SOFTWARE/arduino/BluePill/primeros_ejemplos/Thermocouple/build/core/core.a(Print.cpp.o)
                                                  /home/vladimir/Documentos/SOFTWARE/arduino/BluePill/primeros_ejemplos/Thermocouple/build/libraries/MAX6675_library-1.0.1/max6675.cpp.o
__aeabi_dmul                                      /home/vladimir/.arduino15/packages/arduino/tools/arm-none-eabi-gcc/4.8.3-2014q1/bin/../lib/gcc/arm-none-eabi/4.8.3/armv7-m/libgcc.a(_arm_muldivdf3.o)
                                                  /home/vladimir/.arduino15/packages/arduino/tools/arm-none-eabi-gcc/4.8.3-2014q1/bin/../lib/gcc/arm-none-eabi/4.8.3/armv7-m/libgcc.a(_fixunsdfdi.o)
                                                  /home/vladimir/Documentos/SOFTWARE/arduino/BluePill/primeros_ejemplos/Thermocouple/build/core/core.a(Print.cpp.o)
                                                  /home/vladimir/Documentos/SOFTWARE/arduino/BluePill/primeros_ejemplos/Thermocouple/build/libraries/MAX6675_library-1.0.1/max6675.cpp.o
__aeabi_drsub                                     /home/vladimir/.arduino15/packages/arduino/tools/arm-none-eabi-gcc/4.8.3-2014q1/bin/../lib/gcc/arm-none-eabi/4.8.3/armv7-m/libgcc.a(_arm_addsubdf3.o)
__aeabi_dsub                                      /home/vladimir/.arduino15/packages/arduino/tools/arm-none-eabi-gcc/4.8.3-2014q1/bin/../lib/gcc/arm-none-eabi/4.8.3/armv7-m/libgcc.a(_arm_addsubdf3.o)
                                                  /home/vladimir/.arduino15/packages/arduino/tools/arm-none-eabi-gcc/4.8.3-2014q1/bin/../lib/gcc/arm-none-eabi/4.8.3/armv7-m/libgcc.a(_fixunsdfdi.o)
                                                  /home/vladimir/Documentos/SOFTWARE/arduino/BluePill/primeros_ejemplos/Thermocouple/build/core/core.a(Print.cpp.o)
__aeabi_f2d                                       /home/vladimir/.arduino15/packages/arduino/tools/arm-none-eabi-gcc/4.8.3-2014q1/bin/../lib/gcc/arm-none-eabi/4.8.3/armv7-m/libgcc.a(_arm_addsubdf3.o)
                                                  /home/vladimir/Documentos/SOFTWARE/arduino/BluePill/primeros_ejemplos/Thermocouple/build/sketch/Thermocouple.ino.cpp.o
__aeabi_fdiv                                      /home/vladimir/.arduino15/packages/arduino/tools/arm-none-eabi-gcc/4.8.3-2014q1/bin/../lib/gcc/arm-none-eabi/4.8.3/armv7-m/libgcc.a(_arm_muldivsf3.o)
                                                  /home/vladimir/Documentos/SOFTWARE/arduino/BluePill/primeros_ejemplos/Thermocouple/build/sketch/Thermocouple.ino.cpp.o
__aeabi_fmul                                      /home/vladimir/.arduino15/packages/arduino/tools/arm-none-eabi-gcc/4.8.3-2014q1/bin/../lib/gcc/arm-none-eabi/4.8.3/armv7-m/libgcc.a(_arm_muldivsf3.o)
__aeabi_i2d                                       /home/vladimir/.arduino15/packages/arduino/tools/arm-none-eabi-gcc/4.8.3-2014q1/bin/../lib/gcc/arm-none-eabi/4.8.3/armv7-m/libgcc.a(_arm_addsubdf3.o)
                                                  /home/vladimir/Documentos/SOFTWARE/arduino/BluePill/primeros_ejemplos/Thermocouple/build/core/core.a(Print.cpp.o)
                                                  /home/vladimir/Documentos/SOFTWARE/arduino/BluePill/primeros_ejemplos/Thermocouple/build/libraries/MAX6675_library-1.0.1/max6675.cpp.o
__aeabi_idiv0                                     /home/vladimir/.arduino15/packages/arduino/tools/arm-none-eabi-gcc/4.8.3-2014q1/bin/../lib/gcc/arm-none-eabi/4.8.3/armv7-m/libgcc.a(_dvmd_tls.o)
__aeabi_l2d                                       /home/vladimir/.arduino15/packages/arduino/tools/arm-none-eabi-gcc/4.8.3-2014q1/bin/../lib/gcc/arm-none-eabi/4.8.3/armv7-m/libgcc.a(_arm_addsubdf3.o)
                                                  /home/vladimir/Documentos/SOFTWARE/arduino/BluePill/primeros_ejemplos/Thermocouple/build/core/core.a(Print.cpp.o)
__aeabi_ldiv0                                     /home/vladimir/.arduino15/packages/arduino/tools/arm-none-eabi-gcc/4.8.3-2014q1/bin/../lib/gcc/arm-none-eabi/4.8.3/armv7-m/libgcc.a(_dvmd_tls.o)
                                                  /home/vladimir/.arduino15/packages/arduino/tools/arm-none-eabi-gcc/4.8.3-2014q1/bin/../lib/gcc/arm-none-eabi/4.8.3/armv7-m/libgcc.a(_aeabi_uldivmod.o)
__aeabi_ui2d                                      /home/vladimir/.arduino15/packages/arduino/tools/arm-none-eabi-gcc/4.8.3-2014q1/bin/../lib/gcc/arm-none-eabi/4.8.3/armv7-m/libgcc.a(_arm_addsubdf3.o)
                                                  /home/vladimir/.arduino15/packages/arduino/tools/arm-none-eabi-gcc/4.8.3-2014q1/bin/../lib/gcc/arm-none-eabi/4.8.3/armv7-m/libgcc.a(_fixunsdfdi.o)
__aeabi_ul2d                                      /home/vladimir/.arduino15/packages/arduino/tools/arm-none-eabi-gcc/4.8.3-2014q1/bin/../lib/gcc/arm-none-eabi/4.8.3/armv7-m/libgcc.a(_arm_addsubdf3.o)
__aeabi_uldivmod                                  /home/vladimir/.arduino15/packages/arduino/tools/arm-none-eabi-gcc/4.8.3-2014q1/bin/../lib/gcc/arm-none-eabi/4.8.3/armv7-m/libgcc.a(_aeabi_uldivmod.o)
                                                  /home/vladimir/Documentos/SOFTWARE/arduino/BluePill/primeros_ejemplos/Thermocouple/build/core/core.a(Print.cpp.o)
__assert_func                                     /home/vladimir/Documentos/SOFTWARE/arduino/BluePill/primeros_ejemplos/Thermocouple/build/core/core.a(util.c.o)
__bss_end__                                       /home/vladimir/Documentos/SOFTWARE/arduino/BluePill/primeros_ejemplos/Thermocouple/build/core/wirish/start_c.c.o
                                                  /home/vladimir/.arduino15/packages/arduino/tools/arm-none-eabi-gcc/4.8.3-2014q1/bin/../lib/gcc/arm-none-eabi/4.8.3/../../../../arm-none-eabi/lib/armv7-m/crt0.o
__bss_start__                                     /home/vladimir/Documentos/SOFTWARE/arduino/BluePill/primeros_ejemplos/Thermocouple/build/core/wirish/start_c.c.o
                                                  /home/vladimir/.arduino15/packages/arduino/tools/arm-none-eabi-gcc/4.8.3-2014q1/bin/../lib/gcc/arm-none-eabi/4.8.3/../../../../arm-none-eabi/lib/armv7-m/crt0.o
__call_exitprocs                                  /home/vladimir/.arduino15/packages/arduino/tools/arm-none-eabi-gcc/4.8.3-2014q1/bin/../lib/gcc/arm-none-eabi/4.8.3/../../../../arm-none-eabi/lib/armv7-m/libc.a(lib_a-__call_atexit.o)
                                                  /home/vladimir/.arduino15/packages/arduino/tools/arm-none-eabi-gcc/4.8.3-2014q1/bin/../lib/gcc/arm-none-eabi/4.8.3/../../../../arm-none-eabi/lib/armv7-m/libc.a(lib_a-exit.o)
__cmpdf2                                          /home/vladimir/.arduino15/packages/arduino/tools/arm-none-eabi-gcc/4.8.3-2014q1/bin/../lib/gcc/arm-none-eabi/4.8.3/armv7-m/libgcc.a(_arm_cmpdf2.o)
__cxa_pure_virtual                                /home/vladimir/Documentos/SOFTWARE/arduino/BluePill/primeros_ejemplos/Thermocouple/build/core/core.a(cxxabi-compat.cpp.o)
                                                  /home/vladimir/Documentos/SOFTWARE/arduino/BluePill/primeros_ejemplos/Thermocouple/build/core/core.a(usb_serial.cpp.o)
                                                  /home/vladimir/Documentos/SOFTWARE/arduino/BluePill/primeros_ejemplos/Thermocouple/build/core/core.a(Print.cpp.o)
                                                  /home/vladimir/Documentos/SOFTWARE/arduino/BluePill/primeros_ejemplos/Thermocouple/build/core/core.a(HardwareSerial.cpp.o)
__data_end__                                      /home/vladimir/Documentos/SOFTWARE/arduino/BluePill/primeros_ejemplos/Thermocouple/build/core/wirish/start_c.c.o
__data_start__                                    /home/vladimir/Documentos/SOFTWARE/arduino/BluePill/primeros_ejemplos/Thermocouple/build/core/wirish/start_c.c.o
__default_handler                                 /home/vladimir/Documentos/SOFTWARE/arduino/BluePill/primeros_ejemplos/Thermocouple/build/core/core.a(isrs.S.o)
__deregister_frame_info                           /home/vladimir/.arduino15/packages/arduino/tools/arm-none-eabi-gcc/4.8.3-2014q1/bin/../lib/gcc/arm-none-eabi/4.8.3/armv7-m/crtbegin.o
__divdf3                                          /home/vladimir/.arduino15/packages/arduino/tools/arm-none-eabi-gcc/4.8.3-2014q1/bin/../lib/gcc/arm-none-eabi/4.8.3/armv7-m/libgcc.a(_arm_muldivdf3.o)
__divdi3                                          /home/vladimir/.arduino15/packages/arduino/tools/arm-none-eabi-gcc/4.8.3-2014q1/bin/../lib/gcc/arm-none-eabi/4.8.3/armv7-m/libgcc.a(_divdi3.o)
                                                  /home/vladimir/.arduino15/packages/arduino/tools/arm-none-eabi-gcc/4.8.3-2014q1/bin/../lib/gcc/arm-none-eabi/4.8.3/armv7-m/libgcc.a(bpabi.o)
__divsf3                                          /home/vladimir/.arduino15/packages/arduino/tools/arm-none-eabi-gcc/4.8.3-2014q1/bin/../lib/gcc/arm-none-eabi/4.8.3/armv7-m/libgcc.a(_arm_muldivsf3.o)
__dso_handle                                      /home/vladimir/.arduino15/packages/arduino/tools/arm-none-eabi-gcc/4.8.3-2014q1/bin/../lib/gcc/arm-none-eabi/4.8.3/armv7-m/crtbegin.o
__eqdf2                                           /home/vladimir/.arduino15/packages/arduino/tools/arm-none-eabi-gcc/4.8.3-2014q1/bin/../lib/gcc/arm-none-eabi/4.8.3/armv7-m/libgcc.a(_arm_cmpdf2.o)
__errno                                           /home/vladimir/.arduino15/packages/arduino/tools/arm-none-eabi-gcc/4.8.3-2014q1/bin/../lib/gcc/arm-none-eabi/4.8.3/../../../../arm-none-eabi/lib/armv7-m/libc.a(lib_a-errno.o)
                                                  /home/vladimir/Documentos/SOFTWARE/arduino/BluePill/primeros_ejemplos/Thermocouple/build/core/wirish/syscalls.c.o
__error                                           /home/vladimir/Documentos/SOFTWARE/arduino/BluePill/primeros_ejemplos/Thermocouple/build/core/core.a(util.c.o)
                                                  /home/vladimir/Documentos/SOFTWARE/arduino/BluePill/primeros_ejemplos/Thermocouple/build/core/core.a(exc.S.o)
__exc_busfault                                    /home/vladimir/Documentos/SOFTWARE/arduino/BluePill/primeros_ejemplos/Thermocouple/build/core/core.a(exc.S.o)
                                                  /home/vladimir/Documentos/SOFTWARE/arduino/BluePill/primeros_ejemplos/Thermocouple/build/core/core.a(vector_table.S.o)
__exc_debug_monitor                               /home/vladimir/Documentos/SOFTWARE/arduino/BluePill/primeros_ejemplos/Thermocouple/build/core/core.a(isrs.S.o)
                                                  /home/vladimir/Documentos/SOFTWARE/arduino/BluePill/primeros_ejemplos/Thermocouple/build/core/core.a(vector_table.S.o)
__exc_hardfault                                   /home/vladimir/Documentos/SOFTWARE/arduino/BluePill/primeros_ejemplos/Thermocouple/build/core/core.a(exc.S.o)
                                                  /home/vladimir/Documentos/SOFTWARE/arduino/BluePill/primeros_ejemplos/Thermocouple/build/core/core.a(vector_table.S.o)
__exc_memmanage                                   /home/vladimir/Documentos/SOFTWARE/arduino/BluePill/primeros_ejemplos/Thermocouple/build/core/core.a(exc.S.o)
                                                  /home/vladimir/Documentos/SOFTWARE/arduino/BluePill/primeros_ejemplos/Thermocouple/build/core/core.a(vector_table.S.o)
__exc_nmi                                         /home/vladimir/Documentos/SOFTWARE/arduino/BluePill/primeros_ejemplos/Thermocouple/build/core/core.a(exc.S.o)
                                                  /home/vladimir/Documentos/SOFTWARE/arduino/BluePill/primeros_ejemplos/Thermocouple/build/core/core.a(vector_table.S.o)
__exc_pendsv                                      /home/vladimir/Documentos/SOFTWARE/arduino/BluePill/primeros_ejemplos/Thermocouple/build/core/core.a(isrs.S.o)
                                                  /home/vladimir/Documentos/SOFTWARE/arduino/BluePill/primeros_ejemplos/Thermocouple/build/core/core.a(vector_table.S.o)
__exc_reset                                       /home/vladimir/Documentos/SOFTWARE/arduino/BluePill/primeros_ejemplos/Thermocouple/build/core/core.a(vector_table.S.o)
__exc_svc                                         /home/vladimir/Documentos/SOFTWARE/arduino/BluePill/primeros_ejemplos/Thermocouple/build/core/core.a(isrs.S.o)
                                                  /home/vladimir/Documentos/SOFTWARE/arduino/BluePill/primeros_ejemplos/Thermocouple/build/core/core.a(vector_table.S.o)
__exc_systick                                     /home/vladimir/Documentos/SOFTWARE/arduino/BluePill/primeros_ejemplos/Thermocouple/build/core/core.a(systick.c.o)
                                                  /home/vladimir/Documentos/SOFTWARE/arduino/BluePill/primeros_ejemplos/Thermocouple/build/core/core.a(vector_table.S.o)
__exc_usagefault                                  /home/vladimir/Documentos/SOFTWARE/arduino/BluePill/primeros_ejemplos/Thermocouple/build/core/core.a(exc.S.o)
                                                  /home/vladimir/Documentos/SOFTWARE/arduino/BluePill/primeros_ejemplos/Thermocouple/build/core/core.a(vector_table.S.o)
__extendsfdf2                                     /home/vladimir/.arduino15/packages/arduino/tools/arm-none-eabi-gcc/4.8.3-2014q1/bin/../lib/gcc/arm-none-eabi/4.8.3/armv7-m/libgcc.a(_arm_addsubdf3.o)
__fini_array_end                                  /home/vladimir/.arduino15/packages/arduino/tools/arm-none-eabi-gcc/4.8.3-2014q1/bin/../lib/gcc/arm-none-eabi/4.8.3/../../../../arm-none-eabi/lib/armv7-m/libc.a(lib_a-fini.o)
__fini_array_start                                /home/vladimir/.arduino15/packages/arduino/tools/arm-none-eabi-gcc/4.8.3-2014q1/bin/../lib/gcc/arm-none-eabi/4.8.3/../../../../arm-none-eabi/lib/armv7-m/libc.a(lib_a-fini.o)
__fixdfdi                                         /home/vladimir/.arduino15/packages/arduino/tools/arm-none-eabi-gcc/4.8.3-2014q1/bin/../lib/gcc/arm-none-eabi/4.8.3/armv7-m/libgcc.a(_fixdfdi.o)
__fixdfsi                                         /home/vladimir/.arduino15/packages/arduino/tools/arm-none-eabi-gcc/4.8.3-2014q1/bin/../lib/gcc/arm-none-eabi/4.8.3/armv7-m/libgcc.a(_arm_fixdfsi.o)
__fixunsdfdi                                      /home/vladimir/.arduino15/packages/arduino/tools/arm-none-eabi-gcc/4.8.3-2014q1/bin/../lib/gcc/arm-none-eabi/4.8.3/armv7-m/libgcc.a(_fixunsdfdi.o)
__fixunsdfsi                                      /home/vladimir/.arduino15/packages/arduino/tools/arm-none-eabi-gcc/4.8.3-2014q1/bin/../lib/gcc/arm-none-eabi/4.8.3/armv7-m/libgcc.a(_arm_fixunsdfsi.o)
__floatdidf                                       /home/vladimir/.arduino15/packages/arduino/tools/arm-none-eabi-gcc/4.8.3-2014q1/bin/../lib/gcc/arm-none-eabi/4.8.3/armv7-m/libgcc.a(_arm_addsubdf3.o)
__floatsidf                                       /home/vladimir/.arduino15/packages/arduino/tools/arm-none-eabi-gcc/4.8.3-2014q1/bin/../lib/gcc/arm-none-eabi/4.8.3/armv7-m/libgcc.a(_arm_addsubdf3.o)
__floatundidf                                     /home/vladimir/.arduino15/packages/arduino/tools/arm-none-eabi-gcc/4.8.3-2014q1/bin/../lib/gcc/arm-none-eabi/4.8.3/armv7-m/libgcc.a(_arm_addsubdf3.o)
__floatunsidf                                     /home/vladimir/.arduino15/packages/arduino/tools/arm-none-eabi-gcc/4.8.3-2014q1/bin/../lib/gcc/arm-none-eabi/4.8.3/armv7-m/libgcc.a(_arm_addsubdf3.o)
__gedf2                                           /home/vladimir/.arduino15/packages/arduino/tools/arm-none-eabi-gcc/4.8.3-2014q1/bin/../lib/gcc/arm-none-eabi/4.8.3/armv7-m/libgcc.a(_arm_cmpdf2.o)
__gnu_ldivmod_helper                              /home/vladimir/.arduino15/packages/arduino/tools/arm-none-eabi-gcc/4.8.3-2014q1/bin/../lib/gcc/arm-none-eabi/4.8.3/armv7-m/libgcc.a(bpabi.o)
__gnu_uldivmod_helper                             /home/vladimir/.arduino15/packages/arduino/tools/arm-none-eabi-gcc/4.8.3-2014q1/bin/../lib/gcc/arm-none-eabi/4.8.3/armv7-m/libgcc.a(bpabi.o)
                                                  /home/vladimir/.arduino15/packages/arduino/tools/arm-none-eabi-gcc/4.8.3-2014q1/bin/../lib/gcc/arm-none-eabi/4.8.3/armv7-m/libgcc.a(_aeabi_uldivmod.o)
__gtdf2                                           /home/vladimir/.arduino15/packages/arduino/tools/arm-none-eabi-gcc/4.8.3-2014q1/bin/../lib/gcc/arm-none-eabi/4.8.3/armv7-m/libgcc.a(_arm_cmpdf2.o)
__init_array_end                                  /home/vladimir/.arduino15/packages/arduino/tools/arm-none-eabi-gcc/4.8.3-2014q1/bin/../lib/gcc/arm-none-eabi/4.8.3/../../../../arm-none-eabi/lib/armv7-m/libc.a(lib_a-init.o)
__init_array_start                                /home/vladimir/.arduino15/packages/arduino/tools/arm-none-eabi-gcc/4.8.3-2014q1/bin/../lib/gcc/arm-none-eabi/4.8.3/../../../../arm-none-eabi/lib/armv7-m/libc.a(lib_a-init.o)
__irq_adc                                         /home/vladimir/Documentos/SOFTWARE/arduino/BluePill/primeros_ejemplos/Thermocouple/build/core/core.a(adc_f1.c.o)
                                                  /home/vladimir/Documentos/SOFTWARE/arduino/BluePill/primeros_ejemplos/Thermocouple/build/core/core.a(vector_table.S.o)
__irq_can_rx1                                     /home/vladimir/Documentos/SOFTWARE/arduino/BluePill/primeros_ejemplos/Thermocouple/build/core/core.a(isrs.S.o)
                                                  /home/vladimir/Documentos/SOFTWARE/arduino/BluePill/primeros_ejemplos/Thermocouple/build/core/core.a(vector_table.S.o)
__irq_can_sce                                     /home/vladimir/Documentos/SOFTWARE/arduino/BluePill/primeros_ejemplos/Thermocouple/build/core/core.a(isrs.S.o)
                                                  /home/vladimir/Documentos/SOFTWARE/arduino/BluePill/primeros_ejemplos/Thermocouple/build/core/core.a(vector_table.S.o)
__irq_dma1_channel1                               /home/vladimir/Documentos/SOFTWARE/arduino/BluePill/primeros_ejemplos/Thermocouple/build/core/core.a(dma_f1.c.o)
                                                  /home/vladimir/Documentos/SOFTWARE/arduino/BluePill/primeros_ejemplos/Thermocouple/build/core/core.a(vector_table.S.o)
__irq_dma1_channel2                               /home/vladimir/Documentos/SOFTWARE/arduino/BluePill/primeros_ejemplos/Thermocouple/build/core/core.a(dma_f1.c.o)
                                                  /home/vladimir/Documentos/SOFTWARE/arduino/BluePill/primeros_ejemplos/Thermocouple/build/core/core.a(vector_table.S.o)
__irq_dma1_channel3                               /home/vladimir/Documentos/SOFTWARE/arduino/BluePill/primeros_ejemplos/Thermocouple/build/core/core.a(dma_f1.c.o)
                                                  /home/vladimir/Documentos/SOFTWARE/arduino/BluePill/primeros_ejemplos/Thermocouple/build/core/core.a(vector_table.S.o)
__irq_dma1_channel4                               /home/vladimir/Documentos/SOFTWARE/arduino/BluePill/primeros_ejemplos/Thermocouple/build/core/core.a(dma_f1.c.o)
                                                  /home/vladimir/Documentos/SOFTWARE/arduino/BluePill/primeros_ejemplos/Thermocouple/build/core/core.a(vector_table.S.o)
__irq_dma1_channel5                               /home/vladimir/Documentos/SOFTWARE/arduino/BluePill/primeros_ejemplos/Thermocouple/build/core/core.a(dma_f1.c.o)
                                                  /home/vladimir/Documentos/SOFTWARE/arduino/BluePill/primeros_ejemplos/Thermocouple/build/core/core.a(vector_table.S.o)
__irq_dma1_channel6                               /home/vladimir/Documentos/SOFTWARE/arduino/BluePill/primeros_ejemplos/Thermocouple/build/core/core.a(dma_f1.c.o)
                                                  /home/vladimir/Documentos/SOFTWARE/arduino/BluePill/primeros_ejemplos/Thermocouple/build/core/core.a(vector_table.S.o)
__irq_dma1_channel7                               /home/vladimir/Documentos/SOFTWARE/arduino/BluePill/primeros_ejemplos/Thermocouple/build/core/core.a(dma_f1.c.o)
                                                  /home/vladimir/Documentos/SOFTWARE/arduino/BluePill/primeros_ejemplos/Thermocouple/build/core/core.a(vector_table.S.o)
__irq_exti0                                       /home/vladimir/Documentos/SOFTWARE/arduino/BluePill/primeros_ejemplos/Thermocouple/build/core/core.a(exti.c.o)
                                                  /home/vladimir/Documentos/SOFTWARE/arduino/BluePill/primeros_ejemplos/Thermocouple/build/core/core.a(vector_table.S.o)
__irq_exti1                                       /home/vladimir/Documentos/SOFTWARE/arduino/BluePill/primeros_ejemplos/Thermocouple/build/core/core.a(exti.c.o)
                                                  /home/vladimir/Documentos/SOFTWARE/arduino/BluePill/primeros_ejemplos/Thermocouple/build/core/core.a(vector_table.S.o)
__irq_exti15_10                                   /home/vladimir/Documentos/SOFTWARE/arduino/BluePill/primeros_ejemplos/Thermocouple/build/core/core.a(exti.c.o)
                                                  /home/vladimir/Documentos/SOFTWARE/arduino/BluePill/primeros_ejemplos/Thermocouple/build/core/core.a(vector_table.S.o)
__irq_exti2                                       /home/vladimir/Documentos/SOFTWARE/arduino/BluePill/primeros_ejemplos/Thermocouple/build/core/core.a(exti.c.o)
                                                  /home/vladimir/Documentos/SOFTWARE/arduino/BluePill/primeros_ejemplos/Thermocouple/build/core/core.a(vector_table.S.o)
__irq_exti3                                       /home/vladimir/Documentos/SOFTWARE/arduino/BluePill/primeros_ejemplos/Thermocouple/build/core/core.a(exti.c.o)
                                                  /home/vladimir/Documentos/SOFTWARE/arduino/BluePill/primeros_ejemplos/Thermocouple/build/core/core.a(vector_table.S.o)
__irq_exti4                                       /home/vladimir/Documentos/SOFTWARE/arduino/BluePill/primeros_ejemplos/Thermocouple/build/core/core.a(exti.c.o)
                                                  /home/vladimir/Documentos/SOFTWARE/arduino/BluePill/primeros_ejemplos/Thermocouple/build/core/core.a(vector_table.S.o)
__irq_exti9_5                                     /home/vladimir/Documentos/SOFTWARE/arduino/BluePill/primeros_ejemplos/Thermocouple/build/core/core.a(exti.c.o)
                                                  /home/vladimir/Documentos/SOFTWARE/arduino/BluePill/primeros_ejemplos/Thermocouple/build/core/core.a(vector_table.S.o)
__irq_flash                                       /home/vladimir/Documentos/SOFTWARE/arduino/BluePill/primeros_ejemplos/Thermocouple/build/core/core.a(isrs.S.o)
                                                  /home/vladimir/Documentos/SOFTWARE/arduino/BluePill/primeros_ejemplos/Thermocouple/build/core/core.a(vector_table.S.o)
__irq_i2c1_er                                     /home/vladimir/Documentos/SOFTWARE/arduino/BluePill/primeros_ejemplos/Thermocouple/build/core/core.a(i2c_f1.c.o)
                                                  /home/vladimir/Documentos/SOFTWARE/arduino/BluePill/primeros_ejemplos/Thermocouple/build/core/core.a(vector_table.S.o)
__irq_i2c1_ev                                     /home/vladimir/Documentos/SOFTWARE/arduino/BluePill/primeros_ejemplos/Thermocouple/build/core/core.a(i2c_f1.c.o)
                                                  /home/vladimir/Documentos/SOFTWARE/arduino/BluePill/primeros_ejemplos/Thermocouple/build/core/core.a(vector_table.S.o)
__irq_i2c2_er                                     /home/vladimir/Documentos/SOFTWARE/arduino/BluePill/primeros_ejemplos/Thermocouple/build/core/core.a(i2c_f1.c.o)
                                                  /home/vladimir/Documentos/SOFTWARE/arduino/BluePill/primeros_ejemplos/Thermocouple/build/core/core.a(vector_table.S.o)
__irq_i2c2_ev                                     /home/vladimir/Documentos/SOFTWARE/arduino/BluePill/primeros_ejemplos/Thermocouple/build/core/core.a(i2c_f1.c.o)
                                                  /home/vladimir/Documentos/SOFTWARE/arduino/BluePill/primeros_ejemplos/Thermocouple/build/core/core.a(vector_table.S.o)
__irq_pvd                                         /home/vladimir/Documentos/SOFTWARE/arduino/BluePill/primeros_ejemplos/Thermocouple/build/core/core.a(isrs.S.o)
                                                  /home/vladimir/Documentos/SOFTWARE/arduino/BluePill/primeros_ejemplos/Thermocouple/build/core/core.a(vector_table.S.o)
__irq_rcc                                         /home/vladimir/Documentos/SOFTWARE/arduino/BluePill/primeros_ejemplos/Thermocouple/build/core/core.a(isrs.S.o)
                                                  /home/vladimir/Documentos/SOFTWARE/arduino/BluePill/primeros_ejemplos/Thermocouple/build/core/core.a(vector_table.S.o)
__irq_rtc                                         /home/vladimir/Documentos/SOFTWARE/arduino/BluePill/primeros_ejemplos/Thermocouple/build/core/core.a(isrs.S.o)
                                                  /home/vladimir/Documentos/SOFTWARE/arduino/BluePill/primeros_ejemplos/Thermocouple/build/core/core.a(vector_table.S.o)
__irq_rtcalarm                                    /home/vladimir/Documentos/SOFTWARE/arduino/BluePill/primeros_ejemplos/Thermocouple/build/core/core.a(isrs.S.o)
                                                  /home/vladimir/Documentos/SOFTWARE/arduino/BluePill/primeros_ejemplos/Thermocouple/build/core/core.a(vector_table.S.o)
__irq_spi1                                        /home/vladimir/Documentos/SOFTWARE/arduino/BluePill/primeros_ejemplos/Thermocouple/build/core/core.a(isrs.S.o)
                                                  /home/vladimir/Documentos/SOFTWARE/arduino/BluePill/primeros_ejemplos/Thermocouple/build/core/core.a(vector_table.S.o)
__irq_spi2                                        /home/vladimir/Documentos/SOFTWARE/arduino/BluePill/primeros_ejemplos/Thermocouple/build/core/core.a(isrs.S.o)
                                                  /home/vladimir/Documentos/SOFTWARE/arduino/BluePill/primeros_ejemplos/Thermocouple/build/core/core.a(vector_table.S.o)
__irq_tamper                                      /home/vladimir/Documentos/SOFTWARE/arduino/BluePill/primeros_ejemplos/Thermocouple/build/core/core.a(isrs.S.o)
                                                  /home/vladimir/Documentos/SOFTWARE/arduino/BluePill/primeros_ejemplos/Thermocouple/build/core/core.a(vector_table.S.o)
__irq_tim1_brk                                    /home/vladimir/Documentos/SOFTWARE/arduino/BluePill/primeros_ejemplos/Thermocouple/build/core/core.a(timer.c.o)
                                                  /home/vladimir/Documentos/SOFTWARE/arduino/BluePill/primeros_ejemplos/Thermocouple/build/core/core.a(vector_table.S.o)
__irq_tim1_cc                                     /home/vladimir/Documentos/SOFTWARE/arduino/BluePill/primeros_ejemplos/Thermocouple/build/core/core.a(timer.c.o)
                                                  /home/vladimir/Documentos/SOFTWARE/arduino/BluePill/primeros_ejemplos/Thermocouple/build/core/core.a(vector_table.S.o)
__irq_tim1_trg_com                                /home/vladimir/Documentos/SOFTWARE/arduino/BluePill/primeros_ejemplos/Thermocouple/build/core/core.a(timer.c.o)
                                                  /home/vladimir/Documentos/SOFTWARE/arduino/BluePill/primeros_ejemplos/Thermocouple/build/core/core.a(vector_table.S.o)
__irq_tim1_up                                     /home/vladimir/Documentos/SOFTWARE/arduino/BluePill/primeros_ejemplos/Thermocouple/build/core/core.a(timer.c.o)
                                                  /home/vladimir/Documentos/SOFTWARE/arduino/BluePill/primeros_ejemplos/Thermocouple/build/core/core.a(vector_table.S.o)
__irq_tim2                                        /home/vladimir/Documentos/SOFTWARE/arduino/BluePill/primeros_ejemplos/Thermocouple/build/core/core.a(timer.c.o)
                                                  /home/vladimir/Documentos/SOFTWARE/arduino/BluePill/primeros_ejemplos/Thermocouple/build/core/core.a(vector_table.S.o)
__irq_tim3                                        /home/vladimir/Documentos/SOFTWARE/arduino/BluePill/primeros_ejemplos/Thermocouple/build/core/core.a(timer.c.o)
                                                  /home/vladimir/Documentos/SOFTWARE/arduino/BluePill/primeros_ejemplos/Thermocouple/build/core/core.a(vector_table.S.o)
__irq_tim4                                        /home/vladimir/Documentos/SOFTWARE/arduino/BluePill/primeros_ejemplos/Thermocouple/build/core/core.a(timer.c.o)
                                                  /home/vladimir/Documentos/SOFTWARE/arduino/BluePill/primeros_ejemplos/Thermocouple/build/core/core.a(vector_table.S.o)
__irq_usart1                                      /home/vladimir/Documentos/SOFTWARE/arduino/BluePill/primeros_ejemplos/Thermocouple/build/core/core.a(usart_f1.c.o)
                                                  /home/vladimir/Documentos/SOFTWARE/arduino/BluePill/primeros_ejemplos/Thermocouple/build/core/core.a(vector_table.S.o)
__irq_usart2                                      /home/vladimir/Documentos/SOFTWARE/arduino/BluePill/primeros_ejemplos/Thermocouple/build/core/core.a(usart_f1.c.o)
                                                  /home/vladimir/Documentos/SOFTWARE/arduino/BluePill/primeros_ejemplos/Thermocouple/build/core/core.a(vector_table.S.o)
__irq_usart3                                      /home/vladimir/Documentos/SOFTWARE/arduino/BluePill/primeros_ejemplos/Thermocouple/build/core/core.a(usart_f1.c.o)
                                                  /home/vladimir/Documentos/SOFTWARE/arduino/BluePill/primeros_ejemplos/Thermocouple/build/core/core.a(vector_table.S.o)
__irq_usb_hp_can_tx                               /home/vladimir/Documentos/SOFTWARE/arduino/BluePill/primeros_ejemplos/Thermocouple/build/core/core.a(isrs.S.o)
                                                  /home/vladimir/Documentos/SOFTWARE/arduino/BluePill/primeros_ejemplos/Thermocouple/build/core/core.a(vector_table.S.o)
__irq_usb_lp_can_rx0                              /home/vladimir/Documentos/SOFTWARE/arduino/BluePill/primeros_ejemplos/Thermocouple/build/core/core.a(usb.c.o)
                                                  /home/vladimir/Documentos/SOFTWARE/arduino/BluePill/primeros_ejemplos/Thermocouple/build/core/core.a(vector_table.S.o)
__irq_usbwakeup                                   /home/vladimir/Documentos/SOFTWARE/arduino/BluePill/primeros_ejemplos/Thermocouple/build/core/core.a(isrs.S.o)
                                                  /home/vladimir/Documentos/SOFTWARE/arduino/BluePill/primeros_ejemplos/Thermocouple/build/core/core.a(vector_table.S.o)
__irq_wwdg                                        /home/vladimir/Documentos/SOFTWARE/arduino/BluePill/primeros_ejemplos/Thermocouple/build/core/core.a(isrs.S.o)
                                                  /home/vladimir/Documentos/SOFTWARE/arduino/BluePill/primeros_ejemplos/Thermocouple/build/core/core.a(vector_table.S.o)
__ledf2                                           /home/vladimir/.arduino15/packages/arduino/tools/arm-none-eabi-gcc/4.8.3-2014q1/bin/../lib/gcc/arm-none-eabi/4.8.3/armv7-m/libgcc.a(_arm_cmpdf2.o)
__libc_fini                                       /home/vladimir/.arduino15/packages/arduino/tools/arm-none-eabi-gcc/4.8.3-2014q1/bin/../lib/gcc/arm-none-eabi/4.8.3/../../../../arm-none-eabi/lib/armv7-m/libc.a(lib_a-__call_atexit.o)
__libc_fini_array                                 /home/vladimir/.arduino15/packages/arduino/tools/arm-none-eabi-gcc/4.8.3-2014q1/bin/../lib/gcc/arm-none-eabi/4.8.3/../../../../arm-none-eabi/lib/armv7-m/libc.a(lib_a-fini.o)
                                                  /home/vladimir/.arduino15/packages/arduino/tools/arm-none-eabi-gcc/4.8.3-2014q1/bin/../lib/gcc/arm-none-eabi/4.8.3/../../../../arm-none-eabi/lib/armv7-m/libc.a(lib_a-__call_atexit.o)
                                                  /home/vladimir/.arduino15/packages/arduino/tools/arm-none-eabi-gcc/4.8.3-2014q1/bin/../lib/gcc/arm-none-eabi/4.8.3/../../../../arm-none-eabi/lib/armv7-m/crt0.o
__libc_init_array                                 /home/vladimir/.arduino15/packages/arduino/tools/arm-none-eabi-gcc/4.8.3-2014q1/bin/../lib/gcc/arm-none-eabi/4.8.3/../../../../arm-none-eabi/lib/armv7-m/libc.a(lib_a-init.o)
                                                  /home/vladimir/Documentos/SOFTWARE/arduino/BluePill/primeros_ejemplos/Thermocouple/build/core/wirish/start_c.c.o
                                                  /home/vladimir/.arduino15/packages/arduino/tools/arm-none-eabi-gcc/4.8.3-2014q1/bin/../lib/gcc/arm-none-eabi/4.8.3/../../../../arm-none-eabi/lib/armv7-m/crt0.o
__lm_enable_error_usart                           /home/vladimir/Documentos/SOFTWARE/arduino/BluePill/primeros_ejemplos/Thermocouple/build/core/core.a(util.c.o)
__lm_error                                        /home/vladimir/Documentos/SOFTWARE/arduino/BluePill/primeros_ejemplos/Thermocouple/build/core/core.a(util.c.o)
__ltdf2                                           /home/vladimir/.arduino15/packages/arduino/tools/arm-none-eabi-gcc/4.8.3-2014q1/bin/../lib/gcc/arm-none-eabi/4.8.3/armv7-m/libgcc.a(_arm_cmpdf2.o)
__msp_init                                        /home/vladimir/Documentos/SOFTWARE/arduino/BluePill/primeros_ejemplos/Thermocouple/build/core/core.a(vector_table.S.o)
                                                  /home/vladimir/Documentos/SOFTWARE/arduino/BluePill/primeros_ejemplos/Thermocouple/build/core/wirish/start.S.o
__muldf3                                          /home/vladimir/.arduino15/packages/arduino/tools/arm-none-eabi-gcc/4.8.3-2014q1/bin/../lib/gcc/arm-none-eabi/4.8.3/armv7-m/libgcc.a(_arm_muldivdf3.o)
__mulsf3                                          /home/vladimir/.arduino15/packages/arduino/tools/arm-none-eabi-gcc/4.8.3-2014q1/bin/../lib/gcc/arm-none-eabi/4.8.3/armv7-m/libgcc.a(_arm_muldivsf3.o)
__nedf2                                           /home/vladimir/.arduino15/packages/arduino/tools/arm-none-eabi-gcc/4.8.3-2014q1/bin/../lib/gcc/arm-none-eabi/4.8.3/armv7-m/libgcc.a(_arm_cmpdf2.o)
__preinit_array_end                               /home/vladimir/.arduino15/packages/arduino/tools/arm-none-eabi-gcc/4.8.3-2014q1/bin/../lib/gcc/arm-none-eabi/4.8.3/../../../../arm-none-eabi/lib/armv7-m/libc.a(lib_a-init.o)
__preinit_array_start                             /home/vladimir/.arduino15/packages/arduino/tools/arm-none-eabi-gcc/4.8.3-2014q1/bin/../lib/gcc/arm-none-eabi/4.8.3/../../../../arm-none-eabi/lib/armv7-m/libc.a(lib_a-init.o)
__register_exitproc                               /home/vladimir/.arduino15/packages/arduino/tools/arm-none-eabi-gcc/4.8.3-2014q1/bin/../lib/gcc/arm-none-eabi/4.8.3/../../../../arm-none-eabi/lib/armv7-m/libc.a(lib_a-__atexit.o)
                                                  /home/vladimir/.arduino15/packages/arduino/tools/arm-none-eabi-gcc/4.8.3-2014q1/bin/../lib/gcc/arm-none-eabi/4.8.3/../../../../arm-none-eabi/lib/armv7-m/libc.a(lib_a-atexit.o)
__register_frame_info                             /home/vladimir/.arduino15/packages/arduino/tools/arm-none-eabi-gcc/4.8.3-2014q1/bin/../lib/gcc/arm-none-eabi/4.8.3/armv7-m/crtbegin.o
__stack                                           /home/vladimir/.arduino15/packages/arduino/tools/arm-none-eabi-gcc/4.8.3-2014q1/bin/../lib/gcc/arm-none-eabi/4.8.3/../../../../arm-none-eabi/lib/armv7-m/crt0.o
__start__                                         /home/vladimir/Documentos/SOFTWARE/arduino/BluePill/primeros_ejemplos/Thermocouple/build/core/wirish/start.S.o
__stm32_vector_table                              /home/vladimir/Documentos/SOFTWARE/arduino/BluePill/primeros_ejemplos/Thermocouple/build/core/core.a(vector_table.S.o)
__stm32reservedexception10                        /home/vladimir/Documentos/SOFTWARE/arduino/BluePill/primeros_ejemplos/Thermocouple/build/core/core.a(isrs.S.o)
                                                  /home/vladimir/Documentos/SOFTWARE/arduino/BluePill/primeros_ejemplos/Thermocouple/build/core/core.a(vector_table.S.o)
__stm32reservedexception13                        /home/vladimir/Documentos/SOFTWARE/arduino/BluePill/primeros_ejemplos/Thermocouple/build/core/core.a(isrs.S.o)
                                                  /home/vladimir/Documentos/SOFTWARE/arduino/BluePill/primeros_ejemplos/Thermocouple/build/core/core.a(vector_table.S.o)
__stm32reservedexception7                         /home/vladimir/Documentos/SOFTWARE/arduino/BluePill/primeros_ejemplos/Thermocouple/build/core/core.a(isrs.S.o)
                                                  /home/vladimir/Documentos/SOFTWARE/arduino/BluePill/primeros_ejemplos/Thermocouple/build/core/core.a(vector_table.S.o)
__stm32reservedexception8                         /home/vladimir/Documentos/SOFTWARE/arduino/BluePill/primeros_ejemplos/Thermocouple/build/core/core.a(isrs.S.o)
                                                  /home/vladimir/Documentos/SOFTWARE/arduino/BluePill/primeros_ejemplos/Thermocouple/build/core/core.a(vector_table.S.o)
__stm32reservedexception9                         /home/vladimir/Documentos/SOFTWARE/arduino/BluePill/primeros_ejemplos/Thermocouple/build/core/core.a(isrs.S.o)
                                                  /home/vladimir/Documentos/SOFTWARE/arduino/BluePill/primeros_ejemplos/Thermocouple/build/core/core.a(vector_table.S.o)
__subdf3                                          /home/vladimir/.arduino15/packages/arduino/tools/arm-none-eabi-gcc/4.8.3-2014q1/bin/../lib/gcc/arm-none-eabi/4.8.3/armv7-m/libgcc.a(_arm_addsubdf3.o)
__truncdfsf2                                      /home/vladimir/.arduino15/packages/arduino/tools/arm-none-eabi-gcc/4.8.3-2014q1/bin/../lib/gcc/arm-none-eabi/4.8.3/armv7-m/libgcc.a(_arm_truncdfsf2.o)
__udivdi3                                         /home/vladimir/.arduino15/packages/arduino/tools/arm-none-eabi-gcc/4.8.3-2014q1/bin/../lib/gcc/arm-none-eabi/4.8.3/armv7-m/libgcc.a(_udivdi3.o)
                                                  /home/vladimir/.arduino15/packages/arduino/tools/arm-none-eabi-gcc/4.8.3-2014q1/bin/../lib/gcc/arm-none-eabi/4.8.3/armv7-m/libgcc.a(bpabi.o)
_close                                            /home/vladimir/Documentos/SOFTWARE/arduino/BluePill/primeros_ejemplos/Thermocouple/build/core/wirish/syscalls.c.o
_dma_addr_type                                    /home/vladimir/Documentos/SOFTWARE/arduino/BluePill/primeros_ejemplos/Thermocouple/build/core/core.a(dma.c.o)
                                                  /home/vladimir/Documentos/SOFTWARE/arduino/BluePill/primeros_ejemplos/Thermocouple/build/core/core.a(dma_f1.c.o)
_exit                                             /home/vladimir/Documentos/SOFTWARE/arduino/BluePill/primeros_ejemplos/Thermocouple/build/core/wirish/syscalls.c.o
                                                  /home/vladimir/.arduino15/packages/arduino/tools/arm-none-eabi-gcc/4.8.3-2014q1/bin/../lib/gcc/arm-none-eabi/4.8.3/../../../../arm-none-eabi/lib/armv7-m/libc.a(lib_a-exit.o)
_fail                                             /home/vladimir/Documentos/SOFTWARE/arduino/BluePill/primeros_ejemplos/Thermocouple/build/core/core.a(util.c.o)
_fini                                             /home/vladimir/.arduino15/packages/arduino/tools/arm-none-eabi-gcc/4.8.3-2014q1/bin/../lib/gcc/arm-none-eabi/4.8.3/armv7-m/crti.o
                                                  /home/vladimir/.arduino15/packages/arduino/tools/arm-none-eabi-gcc/4.8.3-2014q1/bin/../lib/gcc/arm-none-eabi/4.8.3/../../../../arm-none-eabi/lib/armv7-m/libc.a(lib_a-fini.o)
_fstat                                            /home/vladimir/Documentos/SOFTWARE/arduino/BluePill/primeros_ejemplos/Thermocouple/build/core/wirish/syscalls.c.o
_global_impure_ptr                                /home/vladimir/.arduino15/packages/arduino/tools/arm-none-eabi-gcc/4.8.3-2014q1/bin/../lib/gcc/arm-none-eabi/4.8.3/../../../../arm-none-eabi/lib/armv7-m/libc.a(lib_a-impure.o)
                                                  /home/vladimir/.arduino15/packages/arduino/tools/arm-none-eabi-gcc/4.8.3-2014q1/bin/../lib/gcc/arm-none-eabi/4.8.3/../../../../arm-none-eabi/lib/armv7-m/libc.a(lib_a-__atexit.o)
                                                  /home/vladimir/.arduino15/packages/arduino/tools/arm-none-eabi-gcc/4.8.3-2014q1/bin/../lib/gcc/arm-none-eabi/4.8.3/../../../../arm-none-eabi/lib/armv7-m/libc.a(lib_a-__call_atexit.o)
                                                  /home/vladimir/.arduino15/packages/arduino/tools/arm-none-eabi-gcc/4.8.3-2014q1/bin/../lib/gcc/arm-none-eabi/4.8.3/../../../../arm-none-eabi/lib/armv7-m/libc.a(lib_a-exit.o)
_i2c_irq_error_handler                            /home/vladimir/Documentos/SOFTWARE/arduino/BluePill/primeros_ejemplos/Thermocouple/build/core/core.a(i2c.c.o)
                                                  /home/vladimir/Documentos/SOFTWARE/arduino/BluePill/primeros_ejemplos/Thermocouple/build/core/core.a(i2c_f1.c.o)
_i2c_irq_handler                                  /home/vladimir/Documentos/SOFTWARE/arduino/BluePill/primeros_ejemplos/Thermocouple/build/core/core.a(i2c.c.o)
                                                  /home/vladimir/Documentos/SOFTWARE/arduino/BluePill/primeros_ejemplos/Thermocouple/build/core/core.a(i2c_f1.c.o)
_i2c_irq_priority_fixup                           /home/vladimir/Documentos/SOFTWARE/arduino/BluePill/primeros_ejemplos/Thermocouple/build/core/core.a(i2c_f1.c.o)
                                                  /home/vladimir/Documentos/SOFTWARE/arduino/BluePill/primeros_ejemplos/Thermocouple/build/core/core.a(i2c.c.o)
_impure_ptr                                       /home/vladimir/.arduino15/packages/arduino/tools/arm-none-eabi-gcc/4.8.3-2014q1/bin/../lib/gcc/arm-none-eabi/4.8.3/../../../../arm-none-eabi/lib/armv7-m/libc.a(lib_a-impure.o)
                                                  /home/vladimir/.arduino15/packages/arduino/tools/arm-none-eabi-gcc/4.8.3-2014q1/bin/../lib/gcc/arm-none-eabi/4.8.3/../../../../arm-none-eabi/lib/armv7-m/libc.a(lib_a-errno.o)
_init                                             /home/vladimir/.arduino15/packages/arduino/tools/arm-none-eabi-gcc/4.8.3-2014q1/bin/../lib/gcc/arm-none-eabi/4.8.3/armv7-m/crti.o
                                                  /home/vladimir/.arduino15/packages/arduino/tools/arm-none-eabi-gcc/4.8.3-2014q1/bin/../lib/gcc/arm-none-eabi/4.8.3/../../../../arm-none-eabi/lib/armv7-m/libc.a(lib_a-init.o)
_isatty                                           /home/vladimir/Documentos/SOFTWARE/arduino/BluePill/primeros_ejemplos/Thermocouple/build/core/wirish/syscalls.c.o
_lm_heap_end                                      /home/vladimir/Documentos/SOFTWARE/arduino/BluePill/primeros_ejemplos/Thermocouple/build/core/wirish/syscalls.c.o
_lm_heap_start                                    /home/vladimir/Documentos/SOFTWARE/arduino/BluePill/primeros_ejemplos/Thermocouple/build/core/wirish/syscalls.c.o
_lm_rom_img_cfgp                                  /home/vladimir/Documentos/SOFTWARE/arduino/BluePill/primeros_ejemplos/Thermocouple/build/core/wirish/start_c.c.o
_lseek                                            /home/vladimir/Documentos/SOFTWARE/arduino/BluePill/primeros_ejemplos/Thermocouple/build/core/wirish/syscalls.c.o
_mainCRTStartup                                   /home/vladimir/.arduino15/packages/arduino/tools/arm-none-eabi-gcc/4.8.3-2014q1/bin/../lib/gcc/arm-none-eabi/4.8.3/../../../../arm-none-eabi/lib/armv7-m/crt0.o
_open                                             /home/vladimir/Documentos/SOFTWARE/arduino/BluePill/primeros_ejemplos/Thermocouple/build/core/wirish/syscalls.c.o
_read                                             /home/vladimir/Documentos/SOFTWARE/arduino/BluePill/primeros_ejemplos/Thermocouple/build/core/wirish/syscalls.c.o
_sbrk                                             /home/vladimir/Documentos/SOFTWARE/arduino/BluePill/primeros_ejemplos/Thermocouple/build/core/wirish/syscalls.c.o
_start                                            /home/vladimir/.arduino15/packages/arduino/tools/arm-none-eabi-gcc/4.8.3-2014q1/bin/../lib/gcc/arm-none-eabi/4.8.3/../../../../arm-none-eabi/lib/armv7-m/crt0.o
_usart_clock_freq                                 /home/vladimir/Documentos/SOFTWARE/arduino/BluePill/primeros_ejemplos/Thermocouple/build/core/core.a(usart_private.c.o)
                                                  /home/vladimir/Documentos/SOFTWARE/arduino/BluePill/primeros_ejemplos/Thermocouple/build/core/core.a(usart_f1.c.o)
_write                                            /home/vladimir/Documentos/SOFTWARE/arduino/BluePill/primeros_ejemplos/Thermocouple/build/core/wirish/syscalls.c.o
abort                                             /home/vladimir/Documentos/SOFTWARE/arduino/BluePill/primeros_ejemplos/Thermocouple/build/core/core.a(util.c.o)
adc1                                              /home/vladimir/Documentos/SOFTWARE/arduino/BluePill/primeros_ejemplos/Thermocouple/build/core/core.a(adc_f1.c.o)
                                                  /home/vladimir/Documentos/SOFTWARE/arduino/BluePill/primeros_ejemplos/Thermocouple/build/core/board.cpp.o
adc2                                              /home/vladimir/Documentos/SOFTWARE/arduino/BluePill/primeros_ejemplos/Thermocouple/build/core/core.a(adc_f1.c.o)
adc_attach_interrupt                              /home/vladimir/Documentos/SOFTWARE/arduino/BluePill/primeros_ejemplos/Thermocouple/build/core/core.a(adc_f1.c.o)
adc_calibrate                                     /home/vladimir/Documentos/SOFTWARE/arduino/BluePill/primeros_ejemplos/Thermocouple/build/core/core.a(adc_f1.c.o)
adc_config_gpio                                   /home/vladimir/Documentos/SOFTWARE/arduino/BluePill/primeros_ejemplos/Thermocouple/build/core/core.a(adc_f1.c.o)
adc_enable_irq                                    /home/vladimir/Documentos/SOFTWARE/arduino/BluePill/primeros_ejemplos/Thermocouple/build/core/core.a(adc_f1.c.o)
adc_enable_single_swstart                         /home/vladimir/Documentos/SOFTWARE/arduino/BluePill/primeros_ejemplos/Thermocouple/build/core/core.a(adc_f1.c.o)
                                                  /home/vladimir/Documentos/SOFTWARE/arduino/BluePill/primeros_ejemplos/Thermocouple/build/core/wirish/boards.cpp.o
adc_foreach                                       /home/vladimir/Documentos/SOFTWARE/arduino/BluePill/primeros_ejemplos/Thermocouple/build/core/core.a(adc_f1.c.o)
                                                  /home/vladimir/Documentos/SOFTWARE/arduino/BluePill/primeros_ejemplos/Thermocouple/build/core/wirish/boards.cpp.o
adc_init                                          /home/vladimir/Documentos/SOFTWARE/arduino/BluePill/primeros_ejemplos/Thermocouple/build/core/core.a(adc.c.o)
                                                  /home/vladimir/Documentos/SOFTWARE/arduino/BluePill/primeros_ejemplos/Thermocouple/build/core/core.a(adc_f1.c.o)
adc_read                                          /home/vladimir/Documentos/SOFTWARE/arduino/BluePill/primeros_ejemplos/Thermocouple/build/core/core.a(adc.c.o)
adc_set_extsel                                    /home/vladimir/Documentos/SOFTWARE/arduino/BluePill/primeros_ejemplos/Thermocouple/build/core/core.a(adc.c.o)
                                                  /home/vladimir/Documentos/SOFTWARE/arduino/BluePill/primeros_ejemplos/Thermocouple/build/core/core.a(adc_f1.c.o)
adc_set_prescaler                                 /home/vladimir/Documentos/SOFTWARE/arduino/BluePill/primeros_ejemplos/Thermocouple/build/core/core.a(adc_f1.c.o)
                                                  /home/vladimir/Documentos/SOFTWARE/arduino/BluePill/primeros_ejemplos/Thermocouple/build/core/wirish/boards.cpp.o
adc_set_sample_rate                               /home/vladimir/Documentos/SOFTWARE/arduino/BluePill/primeros_ejemplos/Thermocouple/build/core/core.a(adc.c.o)
                                                  /home/vladimir/Documentos/SOFTWARE/arduino/BluePill/primeros_ejemplos/Thermocouple/build/core/wirish/boards.cpp.o
afio_init                                         /home/vladimir/Documentos/SOFTWARE/arduino/BluePill/primeros_ejemplos/Thermocouple/build/core/core.a(gpio_f1.c.o)
                                                  /home/vladimir/Documentos/SOFTWARE/arduino/BluePill/primeros_ejemplos/Thermocouple/build/core/wirish/boards_setup.cpp.o
afio_remap                                        /home/vladimir/Documentos/SOFTWARE/arduino/BluePill/primeros_ejemplos/Thermocouple/build/core/core.a(gpio_f1.c.o)
                                                  /home/vladimir/Documentos/SOFTWARE/arduino/BluePill/primeros_ejemplos/Thermocouple/build/core/core.a(i2c.c.o)
                                                  /home/vladimir/Documentos/SOFTWARE/arduino/BluePill/primeros_ejemplos/Thermocouple/build/core/core.a(i2c_f1.c.o)
atexit                                            /home/vladimir/.arduino15/packages/arduino/tools/arm-none-eabi-gcc/4.8.3-2014q1/bin/../lib/gcc/arm-none-eabi/4.8.3/../../../../arm-none-eabi/lib/armv7-m/libc.a(lib_a-atexit.o)
                                                  /home/vladimir/.arduino15/packages/arduino/tools/arm-none-eabi-gcc/4.8.3-2014q1/bin/../lib/gcc/arm-none-eabi/4.8.3/../../../../arm-none-eabi/lib/armv7-m/libc.a(lib_a-__call_atexit.o)
                                                  /home/vladimir/.arduino15/packages/arduino/tools/arm-none-eabi-gcc/4.8.3-2014q1/bin/../lib/gcc/arm-none-eabi/4.8.3/../../../../arm-none-eabi/lib/armv7-m/crt0.o
bkp                                               /home/vladimir/Documentos/SOFTWARE/arduino/BluePill/primeros_ejemplos/Thermocouple/build/core/core.a(bkp_f1.c.o)
bkp_disable_writes                                /home/vladimir/Documentos/SOFTWARE/arduino/BluePill/primeros_ejemplos/Thermocouple/build/core/core.a(bkp_f1.c.o)
                                                  /home/vladimir/Documentos/SOFTWARE/arduino/BluePill/primeros_ejemplos/Thermocouple/build/core/core.a(usb_serial.cpp.o)
bkp_enable_writes                                 /home/vladimir/Documentos/SOFTWARE/arduino/BluePill/primeros_ejemplos/Thermocouple/build/core/core.a(bkp_f1.c.o)
                                                  /home/vladimir/Documentos/SOFTWARE/arduino/BluePill/primeros_ejemplos/Thermocouple/build/core/core.a(usb_serial.cpp.o)
bkp_init                                          /home/vladimir/Documentos/SOFTWARE/arduino/BluePill/primeros_ejemplos/Thermocouple/build/core/core.a(bkp_f1.c.o)
                                                  /home/vladimir/Documentos/SOFTWARE/arduino/BluePill/primeros_ejemplos/Thermocouple/build/core/core.a(usb_serial.cpp.o)
bkp_read                                          /home/vladimir/Documentos/SOFTWARE/arduino/BluePill/primeros_ejemplos/Thermocouple/build/core/core.a(bkp_f1.c.o)
bkp_write                                         /home/vladimir/Documentos/SOFTWARE/arduino/BluePill/primeros_ejemplos/Thermocouple/build/core/core.a(bkp_f1.c.o)
                                                  /home/vladimir/Documentos/SOFTWARE/arduino/BluePill/primeros_ejemplos/Thermocouple/build/core/core.a(usb_serial.cpp.o)
boardADCPins                                      /home/vladimir/Documentos/SOFTWARE/arduino/BluePill/primeros_ejemplos/Thermocouple/build/core/board.cpp.o
boardInit()                                       /home/vladimir/Documentos/SOFTWARE/arduino/BluePill/primeros_ejemplos/Thermocouple/build/core/board.cpp.o
boardPWMPins                                      /home/vladimir/Documentos/SOFTWARE/arduino/BluePill/primeros_ejemplos/Thermocouple/build/core/board.cpp.o
boardUsedPins                                     /home/vladimir/Documentos/SOFTWARE/arduino/BluePill/primeros_ejemplos/Thermocouple/build/core/board.cpp.o
                                                  /home/vladimir/Documentos/SOFTWARE/arduino/BluePill/primeros_ejemplos/Thermocouple/build/core/wirish/boards.cpp.o
boardUsesPin(unsigned char)                       /home/vladimir/Documentos/SOFTWARE/arduino/BluePill/primeros_ejemplos/Thermocouple/build/core/wirish/boards.cpp.o
cgets                                             /home/vladimir/Documentos/SOFTWARE/arduino/BluePill/primeros_ejemplos/Thermocouple/build/core/wirish/syscalls.c.o
delay(unsigned long)                              /home/vladimir/Documentos/SOFTWARE/arduino/BluePill/primeros_ejemplos/Thermocouple/build/core/core.a(wirish_time.cpp.o)
                                                  /home/vladimir/Documentos/SOFTWARE/arduino/BluePill/primeros_ejemplos/Thermocouple/build/libraries/MAX6675_library-1.0.1/max6675.cpp.o
                                                  /home/vladimir/Documentos/SOFTWARE/arduino/BluePill/primeros_ejemplos/Thermocouple/build/sketch/Thermocouple.ino.cpp.o
delayMicroseconds(unsigned long)                  /home/vladimir/Documentos/SOFTWARE/arduino/BluePill/primeros_ejemplos/Thermocouple/build/core/core.a(wirish_time.cpp.o)
digitalRead(unsigned char)                        /home/vladimir/Documentos/SOFTWARE/arduino/BluePill/primeros_ejemplos/Thermocouple/build/core/core.a(wirish_digital.cpp.o)
                                                  /home/vladimir/Documentos/SOFTWARE/arduino/BluePill/primeros_ejemplos/Thermocouple/build/libraries/MAX6675_library-1.0.1/max6675.cpp.o
digitalWrite(unsigned char, unsigned char)        /home/vladimir/Documentos/SOFTWARE/arduino/BluePill/primeros_ejemplos/Thermocouple/build/core/core.a(wirish_digital.cpp.o)
                                                  /home/vladimir/Documentos/SOFTWARE/arduino/BluePill/primeros_ejemplos/Thermocouple/build/libraries/MAX6675_library-1.0.1/max6675.cpp.o
dma_attach_interrupt                              /home/vladimir/Documentos/SOFTWARE/arduino/BluePill/primeros_ejemplos/Thermocouple/build/core/core.a(dma_f1.c.o)
dma_detach_interrupt                              /home/vladimir/Documentos/SOFTWARE/arduino/BluePill/primeros_ejemplos/Thermocouple/build/core/core.a(dma_f1.c.o)
dma_disable                                       /home/vladimir/Documentos/SOFTWARE/arduino/BluePill/primeros_ejemplos/Thermocouple/build/core/core.a(dma_f1.c.o)
dma_enable                                        /home/vladimir/Documentos/SOFTWARE/arduino/BluePill/primeros_ejemplos/Thermocouple/build/core/core.a(dma_f1.c.o)
dma_get_irq_cause                                 /home/vladimir/Documentos/SOFTWARE/arduino/BluePill/primeros_ejemplos/Thermocouple/build/core/core.a(dma_f1.c.o)
dma_init                                          /home/vladimir/Documentos/SOFTWARE/arduino/BluePill/primeros_ejemplos/Thermocouple/build/core/core.a(dma.c.o)
dma_set_mem_addr                                  /home/vladimir/Documentos/SOFTWARE/arduino/BluePill/primeros_ejemplos/Thermocouple/build/core/core.a(dma_f1.c.o)
dma_set_num_transfers                             /home/vladimir/Documentos/SOFTWARE/arduino/BluePill/primeros_ejemplos/Thermocouple/build/core/core.a(dma_f1.c.o)
dma_set_per_addr                                  /home/vladimir/Documentos/SOFTWARE/arduino/BluePill/primeros_ejemplos/Thermocouple/build/core/core.a(dma_f1.c.o)
dma_set_priority                                  /home/vladimir/Documentos/SOFTWARE/arduino/BluePill/primeros_ejemplos/Thermocouple/build/core/core.a(dma_f1.c.o)
dma_setup_transfer                                /home/vladimir/Documentos/SOFTWARE/arduino/BluePill/primeros_ejemplos/Thermocouple/build/core/core.a(dma_f1.c.o)
dma_tube_cfg                                      /home/vladimir/Documentos/SOFTWARE/arduino/BluePill/primeros_ejemplos/Thermocouple/build/core/core.a(dma_f1.c.o)
exit                                              /home/vladimir/.arduino15/packages/arduino/tools/arm-none-eabi-gcc/4.8.3-2014q1/bin/../lib/gcc/arm-none-eabi/4.8.3/../../../../arm-none-eabi/lib/armv7-m/libc.a(lib_a-exit.o)
                                                  /home/vladimir/Documentos/SOFTWARE/arduino/BluePill/primeros_ejemplos/Thermocouple/build/core/wirish/start_c.c.o
                                                  /home/vladimir/.arduino15/packages/arduino/tools/arm-none-eabi-gcc/4.8.3-2014q1/bin/../lib/gcc/arm-none-eabi/4.8.3/../../../../arm-none-eabi/lib/armv7-m/crt0.o
exti_attach_callback                              /home/vladimir/Documentos/SOFTWARE/arduino/BluePill/primeros_ejemplos/Thermocouple/build/core/core.a(exti.c.o)
exti_attach_interrupt                             /home/vladimir/Documentos/SOFTWARE/arduino/BluePill/primeros_ejemplos/Thermocouple/build/core/core.a(exti.c.o)
exti_detach_interrupt                             /home/vladimir/Documentos/SOFTWARE/arduino/BluePill/primeros_ejemplos/Thermocouple/build/core/core.a(exti.c.o)
exti_do_select                                    /home/vladimir/Documentos/SOFTWARE/arduino/BluePill/primeros_ejemplos/Thermocouple/build/core/core.a(exti.c.o)
                                                  /home/vladimir/Documentos/SOFTWARE/arduino/BluePill/primeros_ejemplos/Thermocouple/build/core/core.a(exti_f1.c.o)
exti_select                                       /home/vladimir/Documentos/SOFTWARE/arduino/BluePill/primeros_ejemplos/Thermocouple/build/core/core.a(exti_f1.c.o)
                                                  /home/vladimir/Documentos/SOFTWARE/arduino/BluePill/primeros_ejemplos/Thermocouple/build/core/core.a(exti.c.o)
fgets                                             /home/vladimir/Documentos/SOFTWARE/arduino/BluePill/primeros_ejemplos/Thermocouple/build/core/wirish/syscalls.c.o
flash_set_latency                                 /home/vladimir/Documentos/SOFTWARE/arduino/BluePill/primeros_ejemplos/Thermocouple/build/core/core.a(flash.c.o)
                                                  /home/vladimir/Documentos/SOFTWARE/arduino/BluePill/primeros_ejemplos/Thermocouple/build/core/wirish/boards.cpp.o
free                                              /home/vladimir/.arduino15/packages/arduino/tools/arm-none-eabi-gcc/4.8.3-2014q1/bin/../lib/gcc/arm-none-eabi/4.8.3/../../../../arm-none-eabi/lib/armv7-m/libc.a(lib_a-__call_atexit.o)
get_direction                                     /home/vladimir/Documentos/SOFTWARE/arduino/BluePill/primeros_ejemplos/Thermocouple/build/core/core.a(timer.c.o)
getch                                             /home/vladimir/Documentos/SOFTWARE/arduino/BluePill/primeros_ejemplos/Thermocouple/build/core/wirish/syscalls.c.o
gpio_get_mode                                     /home/vladimir/Documentos/SOFTWARE/arduino/BluePill/primeros_ejemplos/Thermocouple/build/core/core.a(gpio_f1.c.o)
gpio_init                                         /home/vladimir/Documentos/SOFTWARE/arduino/BluePill/primeros_ejemplos/Thermocouple/build/core/core.a(gpio.c.o)
                                                  /home/vladimir/Documentos/SOFTWARE/arduino/BluePill/primeros_ejemplos/Thermocouple/build/core/core.a(gpio_f1.c.o)
gpio_init_all                                     /home/vladimir/Documentos/SOFTWARE/arduino/BluePill/primeros_ejemplos/Thermocouple/build/core/core.a(gpio_f1.c.o)
                                                  /home/vladimir/Documentos/SOFTWARE/arduino/BluePill/primeros_ejemplos/Thermocouple/build/core/wirish/boards_setup.cpp.o
gpio_set_mode                                     /home/vladimir/Documentos/SOFTWARE/arduino/BluePill/primeros_ejemplos/Thermocouple/build/core/core.a(gpio_f1.c.o)
                                                  /home/vladimir/Documentos/SOFTWARE/arduino/BluePill/primeros_ejemplos/Thermocouple/build/core/core.a(wirish_digital_f1.cpp.o)
                                                  /home/vladimir/Documentos/SOFTWARE/arduino/BluePill/primeros_ejemplos/Thermocouple/build/core/core.a(usb_cdcacm.c.o)
                                                  /home/vladimir/Documentos/SOFTWARE/arduino/BluePill/primeros_ejemplos/Thermocouple/build/core/core.a(util.c.o)
                                                  /home/vladimir/Documentos/SOFTWARE/arduino/BluePill/primeros_ejemplos/Thermocouple/build/core/core.a(usart_f1.c.o)
                                                  /home/vladimir/Documentos/SOFTWARE/arduino/BluePill/primeros_ejemplos/Thermocouple/build/core/core.a(i2c_f1.c.o)
                                                  /home/vladimir/Documentos/SOFTWARE/arduino/BluePill/primeros_ejemplos/Thermocouple/build/core/core.a(adc_f1.c.o)
                                                  /home/vladimir/Documentos/SOFTWARE/arduino/BluePill/primeros_ejemplos/Thermocouple/build/core/wirish/boards_setup.cpp.o
gpioa                                             /home/vladimir/Documentos/SOFTWARE/arduino/BluePill/primeros_ejemplos/Thermocouple/build/core/core.a(gpio_f1.c.o)
                                                  /home/vladimir/Documentos/SOFTWARE/arduino/BluePill/primeros_ejemplos/Thermocouple/build/core/board.cpp.o
gpiob                                             /home/vladimir/Documentos/SOFTWARE/arduino/BluePill/primeros_ejemplos/Thermocouple/build/core/core.a(gpio_f1.c.o)
                                                  /home/vladimir/Documentos/SOFTWARE/arduino/BluePill/primeros_ejemplos/Thermocouple/build/core/core.a(i2c_f1.c.o)
                                                  /home/vladimir/Documentos/SOFTWARE/arduino/BluePill/primeros_ejemplos/Thermocouple/build/core/board.cpp.o
gpioc                                             /home/vladimir/Documentos/SOFTWARE/arduino/BluePill/primeros_ejemplos/Thermocouple/build/core/core.a(gpio_f1.c.o)
                                                  /home/vladimir/Documentos/SOFTWARE/arduino/BluePill/primeros_ejemplos/Thermocouple/build/core/board.cpp.o
gpiod                                             /home/vladimir/Documentos/SOFTWARE/arduino/BluePill/primeros_ejemplos/Thermocouple/build/core/core.a(gpio_f1.c.o)
hardware_init_hook                                /home/vladimir/.arduino15/packages/arduino/tools/arm-none-eabi-gcc/4.8.3-2014q1/bin/../lib/gcc/arm-none-eabi/4.8.3/../../../../arm-none-eabi/lib/armv7-m/crt0.o
i2c_bus_reset                                     /home/vladimir/Documentos/SOFTWARE/arduino/BluePill/primeros_ejemplos/Thermocouple/build/core/core.a(i2c.c.o)
i2c_config_gpios                                  /home/vladimir/Documentos/SOFTWARE/arduino/BluePill/primeros_ejemplos/Thermocouple/build/core/core.a(i2c_f1.c.o)
                                                  /home/vladimir/Documentos/SOFTWARE/arduino/BluePill/primeros_ejemplos/Thermocouple/build/core/core.a(i2c.c.o)
i2c_init                                          /home/vladimir/Documentos/SOFTWARE/arduino/BluePill/primeros_ejemplos/Thermocouple/build/core/core.a(i2c.c.o)
i2c_master_enable                                 /home/vladimir/Documentos/SOFTWARE/arduino/BluePill/primeros_ejemplos/Thermocouple/build/core/core.a(i2c.c.o)
i2c_master_release_bus                            /home/vladimir/Documentos/SOFTWARE/arduino/BluePill/primeros_ejemplos/Thermocouple/build/core/core.a(i2c_f1.c.o)
                                                  /home/vladimir/Documentos/SOFTWARE/arduino/BluePill/primeros_ejemplos/Thermocouple/build/core/core.a(i2c.c.o)
i2c_master_xfer                                   /home/vladimir/Documentos/SOFTWARE/arduino/BluePill/primeros_ejemplos/Thermocouple/build/core/core.a(i2c.c.o)
init()                                            /home/vladimir/Documentos/SOFTWARE/arduino/BluePill/primeros_ejemplos/Thermocouple/build/core/wirish/boards.cpp.o
                                                  /home/vladimir/Documentos/SOFTWARE/arduino/BluePill/primeros_ejemplos/Thermocouple/build/core/core.a(main.cpp.o)
input_capture_mode                                /home/vladimir/Documentos/SOFTWARE/arduino/BluePill/primeros_ejemplos/Thermocouple/build/core/core.a(timer.c.o)
isatty                                            /home/vladimir/Documentos/SOFTWARE/arduino/BluePill/primeros_ejemplos/Thermocouple/build/core/wirish/syscalls.c.o
loop()                                            /home/vladimir/Documentos/SOFTWARE/arduino/BluePill/primeros_ejemplos/Thermocouple/build/sketch/Thermocouple.ino.cpp.o
                                                  /home/vladimir/Documentos/SOFTWARE/arduino/BluePill/primeros_ejemplos/Thermocouple/build/core/core.a(main.cpp.o)
main                                              /home/vladimir/Documentos/SOFTWARE/arduino/BluePill/primeros_ejemplos/Thermocouple/build/core/core.a(main.cpp.o)
                                                  /home/vladimir/Documentos/SOFTWARE/arduino/BluePill/primeros_ejemplos/Thermocouple/build/core/wirish/start_c.c.o
                                                  /home/vladimir/.arduino15/packages/arduino/tools/arm-none-eabi-gcc/4.8.3-2014q1/bin/../lib/gcc/arm-none-eabi/4.8.3/../../../../arm-none-eabi/lib/armv7-m/crt0.o
malloc                                            /home/vladimir/.arduino15/packages/arduino/tools/arm-none-eabi-gcc/4.8.3-2014q1/bin/../lib/gcc/arm-none-eabi/4.8.3/../../../../arm-none-eabi/lib/armv7-m/libc.a(lib_a-__atexit.o)
memset                                            /home/vladimir/.arduino15/packages/arduino/tools/arm-none-eabi-gcc/4.8.3-2014q1/bin/../lib/gcc/arm-none-eabi/4.8.3/../../../../arm-none-eabi/lib/armv7-m/libc.a(lib_a-memset.o)
                                                  /home/vladimir/.arduino15/packages/arduino/tools/arm-none-eabi-gcc/4.8.3-2014q1/bin/../lib/gcc/arm-none-eabi/4.8.3/../../../../arm-none-eabi/lib/armv7-m/crt0.o
nvic_init                                         /home/vladimir/Documentos/SOFTWARE/arduino/BluePill/primeros_ejemplos/Thermocouple/build/core/core.a(nvic.c.o)
                                                  /home/vladimir/Documentos/SOFTWARE/arduino/BluePill/primeros_ejemplos/Thermocouple/build/core/wirish/boards.cpp.o
nvic_irq_set_priority                             /home/vladimir/Documentos/SOFTWARE/arduino/BluePill/primeros_ejemplos/Thermocouple/build/core/core.a(nvic.c.o)
                                                  /home/vladimir/Documentos/SOFTWARE/arduino/BluePill/primeros_ejemplos/Thermocouple/build/core/core.a(i2c_f1.c.o)
nvic_set_vector_table                             /home/vladimir/Documentos/SOFTWARE/arduino/BluePill/primeros_ejemplos/Thermocouple/build/core/core.a(nvic.c.o)
nvic_sys_reset                                    /home/vladimir/Documentos/SOFTWARE/arduino/BluePill/primeros_ejemplos/Thermocouple/build/core/core.a(nvic.c.o)
                                                  /home/vladimir/Documentos/SOFTWARE/arduino/BluePill/primeros_ejemplos/Thermocouple/build/core/core.a(usb_serial.cpp.o)
pInformation                                      /home/vladimir/Documentos/SOFTWARE/arduino/BluePill/primeros_ejemplos/Thermocouple/build/core/core.a(usb_init.c.o)
                                                  /home/vladimir/Documentos/SOFTWARE/arduino/BluePill/primeros_ejemplos/Thermocouple/build/core/core.a(usb_core.c.o)
                                                  /home/vladimir/Documentos/SOFTWARE/arduino/BluePill/primeros_ejemplos/Thermocouple/build/core/core.a(usb_cdcacm.c.o)
                                                  /home/vladimir/Documentos/SOFTWARE/arduino/BluePill/primeros_ejemplos/Thermocouple/build/core/core.a(usb.c.o)
pProperty                                         /home/vladimir/Documentos/SOFTWARE/arduino/BluePill/primeros_ejemplos/Thermocouple/build/core/core.a(usb_init.c.o)
                                                  /home/vladimir/Documentos/SOFTWARE/arduino/BluePill/primeros_ejemplos/Thermocouple/build/core/core.a(usb_core.c.o)
                                                  /home/vladimir/Documentos/SOFTWARE/arduino/BluePill/primeros_ejemplos/Thermocouple/build/core/core.a(usb_cdcacm.c.o)
                                                  /home/vladimir/Documentos/SOFTWARE/arduino/BluePill/primeros_ejemplos/Thermocouple/build/core/core.a(usb.c.o)
pUser_Standard_Requests                           /home/vladimir/Documentos/SOFTWARE/arduino/BluePill/primeros_ejemplos/Thermocouple/build/core/core.a(usb_init.c.o)
                                                  /home/vladimir/Documentos/SOFTWARE/arduino/BluePill/primeros_ejemplos/Thermocouple/build/core/core.a(usb_core.c.o)
                                                  /home/vladimir/Documentos/SOFTWARE/arduino/BluePill/primeros_ejemplos/Thermocouple/build/core/core.a(usb.c.o)
pinMode(unsigned char, WiringPinMode)             /home/vladimir/Documentos/SOFTWARE/arduino/BluePill/primeros_ejemplos/Thermocouple/build/core/core.a(wirish_digital_f1.cpp.o)
                                                  /home/vladimir/Documentos/SOFTWARE/arduino/BluePill/primeros_ejemplos/Thermocouple/build/libraries/MAX6675_library-1.0.1/max6675.cpp.o
premain()                                         /home/vladimir/Documentos/SOFTWARE/arduino/BluePill/primeros_ejemplos/Thermocouple/build/core/core.a(main.cpp.o)
putch                                             /home/vladimir/Documentos/SOFTWARE/arduino/BluePill/primeros_ejemplos/Thermocouple/build/core/wirish/syscalls.c.o
rcc_clk_disable                                   /home/vladimir/Documentos/SOFTWARE/arduino/BluePill/primeros_ejemplos/Thermocouple/build/core/core.a(rcc_f1.c.o)
                                                  /home/vladimir/Documentos/SOFTWARE/arduino/BluePill/primeros_ejemplos/Thermocouple/build/core/wirish/boards_setup.cpp.o
rcc_clk_enable                                    /home/vladimir/Documentos/SOFTWARE/arduino/BluePill/primeros_ejemplos/Thermocouple/build/core/core.a(rcc_f1.c.o)
                                                  /home/vladimir/Documentos/SOFTWARE/arduino/BluePill/primeros_ejemplos/Thermocouple/build/core/core.a(usart.c.o)
                                                  /home/vladimir/Documentos/SOFTWARE/arduino/BluePill/primeros_ejemplos/Thermocouple/build/core/core.a(i2c.c.o)
                                                  /home/vladimir/Documentos/SOFTWARE/arduino/BluePill/primeros_ejemplos/Thermocouple/build/core/core.a(gpio.c.o)
                                                  /home/vladimir/Documentos/SOFTWARE/arduino/BluePill/primeros_ejemplos/Thermocouple/build/core/core.a(dma.c.o)
                                                  /home/vladimir/Documentos/SOFTWARE/arduino/BluePill/primeros_ejemplos/Thermocouple/build/core/core.a(bkp_f1.c.o)
                                                  /home/vladimir/Documentos/SOFTWARE/arduino/BluePill/primeros_ejemplos/Thermocouple/build/core/core.a(usb.c.o)
                                                  /home/vladimir/Documentos/SOFTWARE/arduino/BluePill/primeros_ejemplos/Thermocouple/build/core/core.a(timer.c.o)
                                                  /home/vladimir/Documentos/SOFTWARE/arduino/BluePill/primeros_ejemplos/Thermocouple/build/core/core.a(gpio_f1.c.o)
                                                  /home/vladimir/Documentos/SOFTWARE/arduino/BluePill/primeros_ejemplos/Thermocouple/build/core/core.a(adc.c.o)
rcc_clk_init                                      /home/vladimir/Documentos/SOFTWARE/arduino/BluePill/primeros_ejemplos/Thermocouple/build/core/core.a(rcc_f1.c.o)
rcc_configure_pll                                 /home/vladimir/Documentos/SOFTWARE/arduino/BluePill/primeros_ejemplos/Thermocouple/build/core/core.a(rcc_f1.c.o)
                                                  /home/vladimir/Documentos/SOFTWARE/arduino/BluePill/primeros_ejemplos/Thermocouple/build/core/wirish/boards.cpp.o
rcc_dev_clk                                       /home/vladimir/Documentos/SOFTWARE/arduino/BluePill/primeros_ejemplos/Thermocouple/build/core/core.a(rcc.c.o)
                                                  /home/vladimir/Documentos/SOFTWARE/arduino/BluePill/primeros_ejemplos/Thermocouple/build/core/core.a(usart_private.c.o)
                                                  /home/vladimir/Documentos/SOFTWARE/arduino/BluePill/primeros_ejemplos/Thermocouple/build/core/core.a(rcc_f1.c.o)
rcc_dev_table                                     /home/vladimir/Documentos/SOFTWARE/arduino/BluePill/primeros_ejemplos/Thermocouple/build/core/core.a(rcc_f1.c.o)
                                                  /home/vladimir/Documentos/SOFTWARE/arduino/BluePill/primeros_ejemplos/Thermocouple/build/core/core.a(rcc.c.o)
rcc_is_clk_on                                     /home/vladimir/Documentos/SOFTWARE/arduino/BluePill/primeros_ejemplos/Thermocouple/build/core/core.a(rcc.c.o)
rcc_is_clk_ready                                  /home/vladimir/Documentos/SOFTWARE/arduino/BluePill/primeros_ejemplos/Thermocouple/build/core/core.a(rcc.c.o)
                                                  /home/vladimir/Documentos/SOFTWARE/arduino/BluePill/primeros_ejemplos/Thermocouple/build/core/core.a(rcc_f1.c.o)
                                                  /home/vladimir/Documentos/SOFTWARE/arduino/BluePill/primeros_ejemplos/Thermocouple/build/core/wirish/boards.cpp.o
rcc_reset_dev                                     /home/vladimir/Documentos/SOFTWARE/arduino/BluePill/primeros_ejemplos/Thermocouple/build/core/core.a(rcc_f1.c.o)
                                                  /home/vladimir/Documentos/SOFTWARE/arduino/BluePill/primeros_ejemplos/Thermocouple/build/core/core.a(i2c.c.o)
                                                  /home/vladimir/Documentos/SOFTWARE/arduino/BluePill/primeros_ejemplos/Thermocouple/build/core/core.a(gpio.c.o)
                                                  /home/vladimir/Documentos/SOFTWARE/arduino/BluePill/primeros_ejemplos/Thermocouple/build/core/core.a(bkp_f1.c.o)
                                                  /home/vladimir/Documentos/SOFTWARE/arduino/BluePill/primeros_ejemplos/Thermocouple/build/core/core.a(timer.c.o)
                                                  /home/vladimir/Documentos/SOFTWARE/arduino/BluePill/primeros_ejemplos/Thermocouple/build/core/core.a(gpio_f1.c.o)
                                                  /home/vladimir/Documentos/SOFTWARE/arduino/BluePill/primeros_ejemplos/Thermocouple/build/core/core.a(adc.c.o)
rcc_set_prescaler                                 /home/vladimir/Documentos/SOFTWARE/arduino/BluePill/primeros_ejemplos/Thermocouple/build/core/core.a(rcc_f1.c.o)
                                                  /home/vladimir/Documentos/SOFTWARE/arduino/BluePill/primeros_ejemplos/Thermocouple/build/core/core.a(adc_f1.c.o)
                                                  /home/vladimir/Documentos/SOFTWARE/arduino/BluePill/primeros_ejemplos/Thermocouple/build/core/wirish/boards_setup.cpp.o
rcc_switch_sysclk                                 /home/vladimir/Documentos/SOFTWARE/arduino/BluePill/primeros_ejemplos/Thermocouple/build/core/core.a(rcc.c.o)
                                                  /home/vladimir/Documentos/SOFTWARE/arduino/BluePill/primeros_ejemplos/Thermocouple/build/core/core.a(rcc_f1.c.o)
                                                  /home/vladimir/Documentos/SOFTWARE/arduino/BluePill/primeros_ejemplos/Thermocouple/build/core/wirish/boards.cpp.o
rcc_turn_off_clk                                  /home/vladimir/Documentos/SOFTWARE/arduino/BluePill/primeros_ejemplos/Thermocouple/build/core/core.a(rcc.c.o)
                                                  /home/vladimir/Documentos/SOFTWARE/arduino/BluePill/primeros_ejemplos/Thermocouple/build/core/wirish/boards.cpp.o
rcc_turn_on_clk                                   /home/vladimir/Documentos/SOFTWARE/arduino/BluePill/primeros_ejemplos/Thermocouple/build/core/core.a(rcc.c.o)
                                                  /home/vladimir/Documentos/SOFTWARE/arduino/BluePill/primeros_ejemplos/Thermocouple/build/core/core.a(rcc_f1.c.o)
                                                  /home/vladimir/Documentos/SOFTWARE/arduino/BluePill/primeros_ejemplos/Thermocouple/build/core/wirish/boards.cpp.o
setup()                                           /home/vladimir/Documentos/SOFTWARE/arduino/BluePill/primeros_ejemplos/Thermocouple/build/sketch/Thermocouple.ino.cpp.o
                                                  /home/vladimir/Documentos/SOFTWARE/arduino/BluePill/primeros_ejemplos/Thermocouple/build/core/core.a(main.cpp.o)
software_init_hook                                /home/vladimir/.arduino15/packages/arduino/tools/arm-none-eabi-gcc/4.8.3-2014q1/bin/../lib/gcc/arm-none-eabi/4.8.3/../../../../arm-none-eabi/lib/armv7-m/crt0.o
start_c                                           /home/vladimir/Documentos/SOFTWARE/arduino/BluePill/primeros_ejemplos/Thermocouple/build/core/wirish/start_c.c.o
                                                  /home/vladimir/Documentos/SOFTWARE/arduino/BluePill/primeros_ejemplos/Thermocouple/build/core/wirish/start.S.o
strlen                                            /home/vladimir/.arduino15/packages/arduino/tools/arm-none-eabi-gcc/4.8.3-2014q1/bin/../lib/gcc/arm-none-eabi/4.8.3/../../../../arm-none-eabi/lib/armv7-m/libc.a(lib_a-strlen.o)
                                                  /home/vladimir/Documentos/SOFTWARE/arduino/BluePill/primeros_ejemplos/Thermocouple/build/core/core.a(usb_serial.cpp.o)
                                                  /home/vladimir/Documentos/SOFTWARE/arduino/BluePill/primeros_ejemplos/Thermocouple/build/core/core.a(Print.cpp.o)
systick_attach_callback                           /home/vladimir/Documentos/SOFTWARE/arduino/BluePill/primeros_ejemplos/Thermocouple/build/core/core.a(systick.c.o)
systick_disable                                   /home/vladimir/Documentos/SOFTWARE/arduino/BluePill/primeros_ejemplos/Thermocouple/build/core/core.a(systick.c.o)
systick_enable                                    /home/vladimir/Documentos/SOFTWARE/arduino/BluePill/primeros_ejemplos/Thermocouple/build/core/core.a(systick.c.o)
systick_init                                      /home/vladimir/Documentos/SOFTWARE/arduino/BluePill/primeros_ejemplos/Thermocouple/build/core/core.a(systick.c.o)
                                                  /home/vladimir/Documentos/SOFTWARE/arduino/BluePill/primeros_ejemplos/Thermocouple/build/core/wirish/boards.cpp.o
systick_uptime_millis                             /home/vladimir/Documentos/SOFTWARE/arduino/BluePill/primeros_ejemplos/Thermocouple/build/core/core.a(i2c.c.o)
                                                  /home/vladimir/Documentos/SOFTWARE/arduino/BluePill/primeros_ejemplos/Thermocouple/build/core/core.a(wirish_time.cpp.o)
                                                  /home/vladimir/Documentos/SOFTWARE/arduino/BluePill/primeros_ejemplos/Thermocouple/build/core/core.a(usb_serial.cpp.o)
                                                  /home/vladimir/Documentos/SOFTWARE/arduino/BluePill/primeros_ejemplos/Thermocouple/build/core/core.a(systick.c.o)
temp                                              /home/vladimir/Documentos/SOFTWARE/arduino/BluePill/primeros_ejemplos/Thermocouple/build/sketch/Thermocouple.ino.cpp.o
thermoCLK                                         /home/vladimir/Documentos/SOFTWARE/arduino/BluePill/primeros_ejemplos/Thermocouple/build/sketch/Thermocouple.ino.cpp.o
thermoCS                                          /home/vladimir/Documentos/SOFTWARE/arduino/BluePill/primeros_ejemplos/Thermocouple/build/sketch/Thermocouple.ino.cpp.o
thermoDO                                          /home/vladimir/Documentos/SOFTWARE/arduino/BluePill/primeros_ejemplos/Thermocouple/build/sketch/Thermocouple.ino.cpp.o
thermocouple                                      /home/vladimir/Documentos/SOFTWARE/arduino/BluePill/primeros_ejemplos/Thermocouple/build/sketch/Thermocouple.ino.cpp.o
throb                                             /home/vladimir/Documentos/SOFTWARE/arduino/BluePill/primeros_ejemplos/Thermocouple/build/core/core.a(util.c.o)
timer1                                            /home/vladimir/Documentos/SOFTWARE/arduino/BluePill/primeros_ejemplos/Thermocouple/build/core/core.a(timer.c.o)
                                                  /home/vladimir/Documentos/SOFTWARE/arduino/BluePill/primeros_ejemplos/Thermocouple/build/core/board.cpp.o
timer2                                            /home/vladimir/Documentos/SOFTWARE/arduino/BluePill/primeros_ejemplos/Thermocouple/build/core/core.a(timer.c.o)
                                                  /home/vladimir/Documentos/SOFTWARE/arduino/BluePill/primeros_ejemplos/Thermocouple/build/core/board.cpp.o
timer3                                            /home/vladimir/Documentos/SOFTWARE/arduino/BluePill/primeros_ejemplos/Thermocouple/build/core/core.a(timer.c.o)
                                                  /home/vladimir/Documentos/SOFTWARE/arduino/BluePill/primeros_ejemplos/Thermocouple/build/core/board.cpp.o
timer4                                            /home/vladimir/Documentos/SOFTWARE/arduino/BluePill/primeros_ejemplos/Thermocouple/build/core/core.a(timer.c.o)
                                                  /home/vladimir/Documentos/SOFTWARE/arduino/BluePill/primeros_ejemplos/Thermocouple/build/core/board.cpp.o
timer_attach_interrupt                            /home/vladimir/Documentos/SOFTWARE/arduino/BluePill/primeros_ejemplos/Thermocouple/build/core/core.a(timer.c.o)
timer_detach_interrupt                            /home/vladimir/Documentos/SOFTWARE/arduino/BluePill/primeros_ejemplos/Thermocouple/build/core/core.a(timer.c.o)
timer_disable                                     /home/vladimir/Documentos/SOFTWARE/arduino/BluePill/primeros_ejemplos/Thermocouple/build/core/core.a(timer.c.o)
timer_foreach                                     /home/vladimir/Documentos/SOFTWARE/arduino/BluePill/primeros_ejemplos/Thermocouple/build/core/core.a(timer.c.o)
                                                  /home/vladimir/Documentos/SOFTWARE/arduino/BluePill/primeros_ejemplos/Thermocouple/build/core/wirish/boards.cpp.o
timer_has_cc_channel                              /home/vladimir/Documentos/SOFTWARE/arduino/BluePill/primeros_ejemplos/Thermocouple/build/core/core.a(timer.c.o)
                                                  /home/vladimir/Documentos/SOFTWARE/arduino/BluePill/primeros_ejemplos/Thermocouple/build/core/wirish/boards.cpp.o
timer_init                                        /home/vladimir/Documentos/SOFTWARE/arduino/BluePill/primeros_ejemplos/Thermocouple/build/core/core.a(timer.c.o)
                                                  /home/vladimir/Documentos/SOFTWARE/arduino/BluePill/primeros_ejemplos/Thermocouple/build/core/wirish/boards.cpp.o
timer_set_mode                                    /home/vladimir/Documentos/SOFTWARE/arduino/BluePill/primeros_ejemplos/Thermocouple/build/core/core.a(timer.c.o)
                                                  /home/vladimir/Documentos/SOFTWARE/arduino/BluePill/primeros_ejemplos/Thermocouple/build/core/core.a(wirish_digital_f1.cpp.o)
                                                  /home/vladimir/Documentos/SOFTWARE/arduino/BluePill/primeros_ejemplos/Thermocouple/build/core/core.a(HardwareSerial.cpp.o)
usart_config_gpios_async                          /home/vladimir/Documentos/SOFTWARE/arduino/BluePill/primeros_ejemplos/Thermocouple/build/core/core.a(usart_f1.c.o)
                                                  /home/vladimir/Documentos/SOFTWARE/arduino/BluePill/primeros_ejemplos/Thermocouple/build/core/core.a(HardwareSerial.cpp.o)
usart_disable                                     /home/vladimir/Documentos/SOFTWARE/arduino/BluePill/primeros_ejemplos/Thermocouple/build/core/core.a(usart.c.o)
                                                  /home/vladimir/Documentos/SOFTWARE/arduino/BluePill/primeros_ejemplos/Thermocouple/build/core/core.a(HardwareSerial.cpp.o)
usart_enable                                      /home/vladimir/Documentos/SOFTWARE/arduino/BluePill/primeros_ejemplos/Thermocouple/build/core/core.a(usart.c.o)
                                                  /home/vladimir/Documentos/SOFTWARE/arduino/BluePill/primeros_ejemplos/Thermocouple/build/core/core.a(HardwareSerial.cpp.o)
usart_foreach                                     /home/vladimir/Documentos/SOFTWARE/arduino/BluePill/primeros_ejemplos/Thermocouple/build/core/core.a(usart_f1.c.o)
usart_init                                        /home/vladimir/Documentos/SOFTWARE/arduino/BluePill/primeros_ejemplos/Thermocouple/build/core/core.a(usart.c.o)
                                                  /home/vladimir/Documentos/SOFTWARE/arduino/BluePill/primeros_ejemplos/Thermocouple/build/core/core.a(HardwareSerial.cpp.o)
usart_putudec                                     /home/vladimir/Documentos/SOFTWARE/arduino/BluePill/primeros_ejemplos/Thermocouple/build/core/core.a(usart.c.o)
                                                  /home/vladimir/Documentos/SOFTWARE/arduino/BluePill/primeros_ejemplos/Thermocouple/build/core/core.a(util.c.o)
usart_rx                                          /home/vladimir/Documentos/SOFTWARE/arduino/BluePill/primeros_ejemplos/Thermocouple/build/core/core.a(usart.c.o)
usart_set_baud_rate                               /home/vladimir/Documentos/SOFTWARE/arduino/BluePill/primeros_ejemplos/Thermocouple/build/core/core.a(usart_f1.c.o)
                                                  /home/vladimir/Documentos/SOFTWARE/arduino/BluePill/primeros_ejemplos/Thermocouple/build/core/core.a(HardwareSerial.cpp.o)
usart_tx                                          /home/vladimir/Documentos/SOFTWARE/arduino/BluePill/primeros_ejemplos/Thermocouple/build/core/core.a(usart.c.o)
                                                  /home/vladimir/Documentos/SOFTWARE/arduino/BluePill/primeros_ejemplos/Thermocouple/build/core/core.a(HardwareSerial.cpp.o)
                                                  /home/vladimir/Documentos/SOFTWARE/arduino/BluePill/primeros_ejemplos/Thermocouple/build/core/core.a(util.c.o)
usb_cdcacm_data_available                         /home/vladimir/Documentos/SOFTWARE/arduino/BluePill/primeros_ejemplos/Thermocouple/build/core/core.a(usb_cdcacm.c.o)
                                                  /home/vladimir/Documentos/SOFTWARE/arduino/BluePill/primeros_ejemplos/Thermocouple/build/core/core.a(usb_serial.cpp.o)
usb_cdcacm_disable                                /home/vladimir/Documentos/SOFTWARE/arduino/BluePill/primeros_ejemplos/Thermocouple/build/core/core.a(usb_cdcacm.c.o)
                                                  /home/vladimir/Documentos/SOFTWARE/arduino/BluePill/primeros_ejemplos/Thermocouple/build/core/core.a(usb_serial.cpp.o)
usb_cdcacm_enable                                 /home/vladimir/Documentos/SOFTWARE/arduino/BluePill/primeros_ejemplos/Thermocouple/build/core/core.a(usb_cdcacm.c.o)
                                                  /home/vladimir/Documentos/SOFTWARE/arduino/BluePill/primeros_ejemplos/Thermocouple/build/core/core.a(usb_serial.cpp.o)
usb_cdcacm_get_baud                               /home/vladimir/Documentos/SOFTWARE/arduino/BluePill/primeros_ejemplos/Thermocouple/build/core/core.a(usb_cdcacm.c.o)
usb_cdcacm_get_dtr                                /home/vladimir/Documentos/SOFTWARE/arduino/BluePill/primeros_ejemplos/Thermocouple/build/core/core.a(usb_cdcacm.c.o)
                                                  /home/vladimir/Documentos/SOFTWARE/arduino/BluePill/primeros_ejemplos/Thermocouple/build/core/core.a(usb_serial.cpp.o)
usb_cdcacm_get_line_coding                        /home/vladimir/Documentos/SOFTWARE/arduino/BluePill/primeros_ejemplos/Thermocouple/build/core/core.a(usb_cdcacm.c.o)
usb_cdcacm_get_n_data_bits                        /home/vladimir/Documentos/SOFTWARE/arduino/BluePill/primeros_ejemplos/Thermocouple/build/core/core.a(usb_cdcacm.c.o)
usb_cdcacm_get_parity                             /home/vladimir/Documentos/SOFTWARE/arduino/BluePill/primeros_ejemplos/Thermocouple/build/core/core.a(usb_cdcacm.c.o)
usb_cdcacm_get_pending                            /home/vladimir/Documentos/SOFTWARE/arduino/BluePill/primeros_ejemplos/Thermocouple/build/core/core.a(usb_cdcacm.c.o)
                                                  /home/vladimir/Documentos/SOFTWARE/arduino/BluePill/primeros_ejemplos/Thermocouple/build/core/core.a(usb_serial.cpp.o)
usb_cdcacm_get_rts                                /home/vladimir/Documentos/SOFTWARE/arduino/BluePill/primeros_ejemplos/Thermocouple/build/core/core.a(usb_cdcacm.c.o)
                                                  /home/vladimir/Documentos/SOFTWARE/arduino/BluePill/primeros_ejemplos/Thermocouple/build/core/core.a(usb_serial.cpp.o)
usb_cdcacm_get_stop_bits                          /home/vladimir/Documentos/SOFTWARE/arduino/BluePill/primeros_ejemplos/Thermocouple/build/core/core.a(usb_cdcacm.c.o)
usb_cdcacm_is_transmitting                        /home/vladimir/Documentos/SOFTWARE/arduino/BluePill/primeros_ejemplos/Thermocouple/build/core/core.a(usb_cdcacm.c.o)
usb_cdcacm_peek                                   /home/vladimir/Documentos/SOFTWARE/arduino/BluePill/primeros_ejemplos/Thermocouple/build/core/core.a(usb_cdcacm.c.o)
                                                  /home/vladimir/Documentos/SOFTWARE/arduino/BluePill/primeros_ejemplos/Thermocouple/build/core/core.a(usb_serial.cpp.o)
usb_cdcacm_peek_char                              /home/vladimir/Documentos/SOFTWARE/arduino/BluePill/primeros_ejemplos/Thermocouple/build/core/core.a(usb_cdcacm.c.o)
usb_cdcacm_peek_ex                                /home/vladimir/Documentos/SOFTWARE/arduino/BluePill/primeros_ejemplos/Thermocouple/build/core/core.a(usb_cdcacm.c.o)
                                                  /home/vladimir/Documentos/SOFTWARE/arduino/BluePill/primeros_ejemplos/Thermocouple/build/core/core.a(usb_serial.cpp.o)
usb_cdcacm_putc                                   /home/vladimir/Documentos/SOFTWARE/arduino/BluePill/primeros_ejemplos/Thermocouple/build/core/core.a(usb_cdcacm.c.o)
usb_cdcacm_rx                                     /home/vladimir/Documentos/SOFTWARE/arduino/BluePill/primeros_ejemplos/Thermocouple/build/core/core.a(usb_cdcacm.c.o)
                                                  /home/vladimir/Documentos/SOFTWARE/arduino/BluePill/primeros_ejemplos/Thermocouple/build/core/core.a(usb_serial.cpp.o)
usb_cdcacm_set_hooks                              /home/vladimir/Documentos/SOFTWARE/arduino/BluePill/primeros_ejemplos/Thermocouple/build/core/core.a(usb_cdcacm.c.o)
                                                  /home/vladimir/Documentos/SOFTWARE/arduino/BluePill/primeros_ejemplos/Thermocouple/build/core/core.a(usb_serial.cpp.o)
usb_cdcacm_tx                                     /home/vladimir/Documentos/SOFTWARE/arduino/BluePill/primeros_ejemplos/Thermocouple/build/core/core.a(usb_cdcacm.c.o)
                                                  /home/vladimir/Documentos/SOFTWARE/arduino/BluePill/primeros_ejemplos/Thermocouple/build/core/core.a(usb_serial.cpp.o)
usb_cdcacm_tx_available                           /home/vladimir/Documentos/SOFTWARE/arduino/BluePill/primeros_ejemplos/Thermocouple/build/core/core.a(usb_cdcacm.c.o)
                                                  /home/vladimir/Documentos/SOFTWARE/arduino/BluePill/primeros_ejemplos/Thermocouple/build/core/core.a(usb_serial.cpp.o)
usb_init_usblib                                   /home/vladimir/Documentos/SOFTWARE/arduino/BluePill/primeros_ejemplos/Thermocouple/build/core/core.a(usb.c.o)
                                                  /home/vladimir/Documentos/SOFTWARE/arduino/BluePill/primeros_ejemplos/Thermocouple/build/core/core.a(usb_cdcacm.c.o)
usb_power_off                                     /home/vladimir/Documentos/SOFTWARE/arduino/BluePill/primeros_ejemplos/Thermocouple/build/core/core.a(usb.c.o)
                                                  /home/vladimir/Documentos/SOFTWARE/arduino/BluePill/primeros_ejemplos/Thermocouple/build/core/core.a(usb_cdcacm.c.o)
usb_set_ep_rx_count                               /home/vladimir/Documentos/SOFTWARE/arduino/BluePill/primeros_ejemplos/Thermocouple/build/core/core.a(usb_reg_map.c.o)
                                                  /home/vladimir/Documentos/SOFTWARE/arduino/BluePill/primeros_ejemplos/Thermocouple/build/core/core.a(usb_cdcacm.c.o)
vtable for HardwareSerial                         /home/vladimir/Documentos/SOFTWARE/arduino/BluePill/primeros_ejemplos/Thermocouple/build/core/core.a(HardwareSerial.cpp.o)
vtable for Print                                  /home/vladimir/Documentos/SOFTWARE/arduino/BluePill/primeros_ejemplos/Thermocouple/build/core/core.a(Print.cpp.o)
vtable for Stream                                 /home/vladimir/Documentos/SOFTWARE/arduino/BluePill/primeros_ejemplos/Thermocouple/build/core/core.a(HardwareSerial.cpp.o)
                                                  /home/vladimir/Documentos/SOFTWARE/arduino/BluePill/primeros_ejemplos/Thermocouple/build/core/core.a(usb_serial.cpp.o)
vtable for USBSerial                              /home/vladimir/Documentos/SOFTWARE/arduino/BluePill/primeros_ejemplos/Thermocouple/build/core/core.a(usb_serial.cpp.o)
wInterrupt_Mask                                   /home/vladimir/Documentos/SOFTWARE/arduino/BluePill/primeros_ejemplos/Thermocouple/build/core/core.a(usb_init.c.o)
wirish::priv::board_reset_pll()                   /home/vladimir/Documentos/SOFTWARE/arduino/BluePill/primeros_ejemplos/Thermocouple/build/core/wirish/boards_setup.cpp.o
                                                  /home/vladimir/Documentos/SOFTWARE/arduino/BluePill/primeros_ejemplos/Thermocouple/build/core/wirish/boards.cpp.o
wirish::priv::board_setup_clock_prescalers()      /home/vladimir/Documentos/SOFTWARE/arduino/BluePill/primeros_ejemplos/Thermocouple/build/core/wirish/boards_setup.cpp.o
                                                  /home/vladimir/Documentos/SOFTWARE/arduino/BluePill/primeros_ejemplos/Thermocouple/build/core/wirish/boards.cpp.o
wirish::priv::board_setup_gpio()                  /home/vladimir/Documentos/SOFTWARE/arduino/BluePill/primeros_ejemplos/Thermocouple/build/core/wirish/boards_setup.cpp.o
                                                  /home/vladimir/Documentos/SOFTWARE/arduino/BluePill/primeros_ejemplos/Thermocouple/build/core/wirish/boards.cpp.o
wirish::priv::board_setup_usb()                   /home/vladimir/Documentos/SOFTWARE/arduino/BluePill/primeros_ejemplos/Thermocouple/build/core/wirish/boards_setup.cpp.o
                                                  /home/vladimir/Documentos/SOFTWARE/arduino/BluePill/primeros_ejemplos/Thermocouple/build/core/wirish/boards.cpp.o
wirish::priv::series_init()                       /home/vladimir/Documentos/SOFTWARE/arduino/BluePill/primeros_ejemplos/Thermocouple/build/core/wirish/boards_setup.cpp.o
                                                  /home/vladimir/Documentos/SOFTWARE/arduino/BluePill/primeros_ejemplos/Thermocouple/build/core/wirish/boards.cpp.o
wirish::priv::w_adc_pre                           /home/vladimir/Documentos/SOFTWARE/arduino/BluePill/primeros_ejemplos/Thermocouple/build/core/wirish/boards_setup.cpp.o
                                                  /home/vladimir/Documentos/SOFTWARE/arduino/BluePill/primeros_ejemplos/Thermocouple/build/core/wirish/boards.cpp.o
wirish::priv::w_adc_smp                           /home/vladimir/Documentos/SOFTWARE/arduino/BluePill/primeros_ejemplos/Thermocouple/build/core/wirish/boards_setup.cpp.o
                                                  /home/vladimir/Documentos/SOFTWARE/arduino/BluePill/primeros_ejemplos/Thermocouple/build/core/wirish/boards.cpp.o
wirish::priv::w_board_pll_cfg                     /home/vladimir/Documentos/SOFTWARE/arduino/BluePill/primeros_ejemplos/Thermocouple/build/core/wirish/boards_setup.cpp.o
                                                  /home/vladimir/Documentos/SOFTWARE/arduino/BluePill/primeros_ejemplos/Thermocouple/build/core/wirish/boards.cpp.o
yield                                             /home/vladimir/Documentos/SOFTWARE/arduino/BluePill/primeros_ejemplos/Thermocouple/build/core/core.a(hooks.c.o)
                                                  /home/vladimir/Documentos/SOFTWARE/arduino/BluePill/primeros_ejemplos/Thermocouple/build/core/core.a(wirish_time.cpp.o)
